Component: ARM Compiler 6.13.1 Tool: armlink [5d895400]

==============================================================================

Section Cross References

    main.o(.text) refers (Special) to use_no_semi_2.o(.text) for __use_no_semihosting
    main.o(.text._sys_exit) refers (Special) to use_no_semi_2.o(.text) for __use_no_semihosting
    main.o(.ARM.exidx.text._sys_exit) refers (Special) to use_no_semi_2.o(.text) for __use_no_semihosting
    main.o(.ARM.exidx.text._sys_exit) refers to main.o(.text._sys_exit) for [Anonymous Symbol]
    main.o(.text._ttywrch) refers (Special) to use_no_semi_2.o(.text) for __use_no_semihosting
    main.o(.ARM.exidx.text._ttywrch) refers (Special) to use_no_semi_2.o(.text) for __use_no_semihosting
    main.o(.ARM.exidx.text._ttywrch) refers to main.o(.text._ttywrch) for [Anonymous Symbol]
    main.o(.text._sys_command_string) refers (Special) to use_no_semi_2.o(.text) for __use_no_semihosting
    main.o(.ARM.exidx.text._sys_command_string) refers (Special) to use_no_semi_2.o(.text) for __use_no_semihosting
    main.o(.ARM.exidx.text._sys_command_string) refers to main.o(.text._sys_command_string) for [Anonymous Symbol]
    main.o(.text._Z15DriverInit_taskPv) refers (Special) to use_no_semi_2.o(.text) for __use_no_semihosting
    main.o(.text._Z15DriverInit_taskPv) refers to drv_main.o(.text._Z13init_drv_Mainv) for init_drv_Main()
    main.o(.text._Z15DriverInit_taskPv) refers to ms_main.o(.text._Z12init_MS_Mainv) for init_MS_Main()
    main.o(.text._Z15DriverInit_taskPv) refers to debug.o(.text._Z10init_Debugv) for init_Debug()
    main.o(.text._Z15DriverInit_taskPv) refers to modes.o(.text._Z10init_Modesv) for init_Modes()
    main.o(.text._Z15DriverInit_taskPv) refers to msafe.o(.text._Z10init_MSafev) for init_MSafe()
    main.o(.text._Z15DriverInit_taskPv) refers to ctrl_main.o(.text._Z18init_ControlSystemv) for init_ControlSystem()
    main.o(.text._Z15DriverInit_taskPv) refers to main.o(.rodata.cst16) for .L__const._Z15DriverInit_taskPv.param_types
    main.o(.text._Z15DriverInit_taskPv) refers to main.o(.rodata.str1.1) for .L.str
    main.o(.text._Z15DriverInit_taskPv) refers to ms_attitude.o(.text._ZN5SNameC2EPKc) for SName::SName__sub_object(const char*)
    main.o(.text._Z15DriverInit_taskPv) refers to parameters.o(.text._Z18ParamGroupRegister5SNametjPK14MAV_PARAM_TYPEPKS_PKy) for ParamGroupRegister(SName, unsigned short, unsigned, const MAV_PARAM_TYPE*, const SName*, const unsigned long long*)
    main.o(.text._Z15DriverInit_taskPv) refers to basic.o(.text._Z26getInitializationCompletedv) for getInitializationCompleted()
    main.o(.text._Z15DriverInit_taskPv) refers to basic.o(.text._Z26setInitializationCompletedv) for setInitializationCompleted()
    main.o(.text._Z15DriverInit_taskPv) refers to main.o(.text.os_delay) for os_delay
    main.o(.text._Z15DriverInit_taskPv) refers to parameters.o(.text._Z9ReadParam5SNamePjP14MAV_PARAM_TYPEPyPbd) for ReadParam(SName, unsigned*, MAV_PARAM_TYPE*, unsigned long long*, bool*, double)
    main.o(.text._Z15DriverInit_taskPv) refers to main.o(.text._Z18UAV_MainMotorCounth) for UAV_MainMotorCount(unsigned char)
    main.o(.text._Z15DriverInit_taskPv) refers to drv_pwmout.o(.text._Z18set_MainMotorCounth) for set_MainMotorCount(unsigned char)
    main.o(.text._Z15DriverInit_taskPv) refers to parameters.o(.text._Z14ReadParamGroup5SNamePyPbd) for ReadParamGroup(SName, unsigned long long*, bool*, double)
    main.o(.text._Z15DriverInit_taskPv) refers to drv_pwmout.o(.text._Z19MainMotor_PullUpAllv) for MainMotor_PullUpAll()
    main.o(.text._Z15DriverInit_taskPv) refers to drv_pwmout.o(.text._Z21MainMotor_PullDownAllv) for MainMotor_PullDownAll()
    main.o(.text._Z15DriverInit_taskPv) refers to parameters.o(.text._Z16UpdateParamGroup5SNamePKyttbd) for UpdateParamGroup(SName, const unsigned long long*, unsigned short, unsigned short, bool, double)
    main.o(.text._Z15DriverInit_taskPv) refers to missions.o(.text._Z13init_Missionsv) for init_Missions()
    main.o(.text._Z15DriverInit_taskPv) refers to tasks.o(.text.vTaskDelete) for vTaskDelete
    main.o(.ARM.exidx.text._Z15DriverInit_taskPv) refers (Special) to use_no_semi_2.o(.text) for __use_no_semihosting
    main.o(.ARM.exidx.text._Z15DriverInit_taskPv) refers to main.o(.text._Z15DriverInit_taskPv) for [Anonymous Symbol]
    main.o(.text.main) refers (Special) to use_no_semi_2.o(.text) for __use_no_semihosting
    main.o(.text.main) refers to basic.o(.text._Z10init_Basicv) for init_Basic()
    main.o(.text.main) refers to main.o(.text._Z15DriverInit_taskPv) for DriverInit_task(void*)
    main.o(.text.main) refers to main.o(.rodata.str1.1) for .L.str.4
    main.o(.text.main) refers to tasks.o(.text.xTaskCreate) for xTaskCreate
    main.o(.text.main) refers to tasks.o(.text.vTaskStartScheduler) for vTaskStartScheduler
    main.o(.ARM.exidx.text.main) refers (Special) to use_no_semi_2.o(.text) for __use_no_semihosting
    main.o(.ARM.exidx.text.main) refers to main.o(.text.main) for [Anonymous Symbol]
    main.o(.text.HardFault_Handler) refers (Special) to use_no_semi_2.o(.text) for __use_no_semihosting
    main.o(.text.HardFault_Handler) refers to drv_pwmout.o(.text._Z15PWM_PullDownAllv) for PWM_PullDownAll()
    main.o(.ARM.exidx.text.HardFault_Handler) refers (Special) to use_no_semi_2.o(.text) for __use_no_semihosting
    main.o(.ARM.exidx.text.HardFault_Handler) refers to main.o(.text.HardFault_Handler) for [Anonymous Symbol]
    main.o(.text.vApplicationStackOverflowHook) refers (Special) to use_no_semi_2.o(.text) for __use_no_semihosting
    main.o(.text.vApplicationStackOverflowHook) refers to main.o(.bss._ZZ29vApplicationStackOverflowHookE15StackOvTaskName) for vApplicationStackOverflowHook::StackOvTaskName
    main.o(.text.vApplicationStackOverflowHook) refers to strcpy.o(.text) for strcpy
    main.o(.ARM.exidx.text.vApplicationStackOverflowHook) refers (Special) to use_no_semi_2.o(.text) for __use_no_semihosting
    main.o(.ARM.exidx.text.vApplicationStackOverflowHook) refers to main.o(.text.vApplicationStackOverflowHook) for [Anonymous Symbol]
    main.o(.rodata.cst16) refers (Special) to use_no_semi_2.o(.text) for __use_no_semihosting
    main.o(.rodata.str1.1) refers (Special) to use_no_semi_2.o(.text) for __use_no_semihosting
    main.o(.bss._ZZ29vApplicationStackOverflowHookE15StackOvTaskName) refers (Special) to use_no_semi_2.o(.text) for __use_no_semihosting
    basic.o(.text._Z26getInitializationCompletedv) refers to basic.o(.bss._ZL23InitializationCompleted) for _ZL23InitializationCompleted
    basic.o(.ARM.exidx.text._Z26getInitializationCompletedv) refers to basic.o(.text._Z26getInitializationCompletedv) for [Anonymous Symbol]
    basic.o(.text._Z26setInitializationCompletedv) refers to basic.o(.bss._ZL25InitializationStatus_Lock) for _ZL25InitializationStatus_Lock
    basic.o(.text._Z26setInitializationCompletedv) refers to basic.o(.bss._ZL23InitializationCompleted) for _ZL23InitializationCompleted
    basic.o(.ARM.exidx.text._Z26setInitializationCompletedv) refers to basic.o(.text._Z26setInitializationCompletedv) for [Anonymous Symbol]
    basic.o(.text._Z24LockInitializationStatusv) refers to basic.o(.bss._ZL25InitializationStatus_Lock) for _ZL25InitializationStatus_Lock
    basic.o(.ARM.exidx.text._Z24LockInitializationStatusv) refers to basic.o(.text._Z24LockInitializationStatusv) for [Anonymous Symbol]
    basic.o(.text._Z26UnLockInitializationStatusv) refers to basic.o(.bss._ZL25InitializationStatus_Lock) for _ZL25InitializationStatus_Lock
    basic.o(.ARM.exidx.text._Z26UnLockInitializationStatusv) refers to basic.o(.text._Z26UnLockInitializationStatusv) for [Anonymous Symbol]
    basic.o(.text._Z24xLPDaemonTaskCallFromISRPFvPvjES_jPl) refers to basic.o(.bss._ZL14LPDaemon_Queue) for _ZL14LPDaemon_Queue
    basic.o(.text._Z24xLPDaemonTaskCallFromISRPFvPvjES_jPl) refers to queue.o(.text.xQueueGenericSendFromISR) for xQueueGenericSendFromISR
    basic.o(.ARM.exidx.text._Z24xLPDaemonTaskCallFromISRPFvPvjES_jPl) refers to basic.o(.text._Z24xLPDaemonTaskCallFromISRPFvPvjES_jPl) for [Anonymous Symbol]
    basic.o(.text._Z17xLPDaemonTaskCallPFvPvjES_jj) refers to basic.o(.bss._ZL14LPDaemon_Queue) for _ZL14LPDaemon_Queue
    basic.o(.text._Z17xLPDaemonTaskCallPFvPvjES_jj) refers to queue.o(.text.xQueueGenericSend) for xQueueGenericSend
    basic.o(.ARM.exidx.text._Z17xLPDaemonTaskCallPFvPvjES_jj) refers to basic.o(.text._Z17xLPDaemonTaskCallPFvPvjES_jj) for [Anonymous Symbol]
    basic.o(.text._Z10init_Basicv) refers to basic.o(.text._ZL16SCB_EnableICachev) for _ZL16SCB_EnableICachev
    basic.o(.text._Z10init_Basicv) refers to basic.o(.text._ZL16SCB_EnableDCachev) for _ZL16SCB_EnableDCachev
    basic.o(.text._Z10init_Basicv) refers to stm32h7xx_hal_cortex.o(.text.HAL_NVIC_SetPriorityGrouping) for HAL_NVIC_SetPriorityGrouping
    basic.o(.text._Z10init_Basicv) refers to timebase.o(.text._Z13init_TimeBasev) for init_TimeBase()
    basic.o(.text._Z10init_Basicv) refers to stm32h7xx_hal_cortex.o(.text.HAL_MPU_Disable) for HAL_MPU_Disable
    basic.o(.text._Z10init_Basicv) refers to stm32h7xx_hal_cortex.o(.text.HAL_MPU_ConfigRegion) for HAL_MPU_ConfigRegion
    basic.o(.text._Z10init_Basicv) refers to stm32h7xx_hal_cortex.o(.text.HAL_MPU_Enable) for HAL_MPU_Enable
    basic.o(.text._Z10init_Basicv) refers to queue.o(.text.xQueueGenericCreate) for xQueueGenericCreate
    basic.o(.text._Z10init_Basicv) refers to basic.o(.bss._ZL14LPDaemon_Queue) for _ZL14LPDaemon_Queue
    basic.o(.text._Z10init_Basicv) refers to basic.o(.text._ZL12LPDaemonTaskPv) for _ZL12LPDaemonTaskPv
    basic.o(.text._Z10init_Basicv) refers to basic.o(.rodata.str1.1) for .L.str
    basic.o(.text._Z10init_Basicv) refers to tasks.o(.text.xTaskCreate) for xTaskCreate
    basic.o(.ARM.exidx.text._Z10init_Basicv) refers to basic.o(.text._Z10init_Basicv) for [Anonymous Symbol]
    basic.o(.ARM.exidx.text._ZL16SCB_EnableICachev) refers to basic.o(.text._ZL16SCB_EnableICachev) for [Anonymous Symbol]
    basic.o(.ARM.exidx.text._ZL16SCB_EnableDCachev) refers to basic.o(.text._ZL16SCB_EnableDCachev) for [Anonymous Symbol]
    basic.o(.text._ZL12LPDaemonTaskPv) refers to basic.o(.bss._ZL14LPDaemon_Queue) for _ZL14LPDaemon_Queue
    basic.o(.text._ZL12LPDaemonTaskPv) refers to queue.o(.text.xQueueReceive) for xQueueReceive
    basic.o(.ARM.exidx.text._ZL12LPDaemonTaskPv) refers to basic.o(.text._ZL12LPDaemonTaskPv) for [Anonymous Symbol]
    basic.o(.text._Znwj) refers to heap_4.o(.text.pvPortMalloc) for pvPortMalloc
    basic.o(.ARM.exidx.text._Znwj) refers to basic.o(.text._Znwj) for [Anonymous Symbol]
    basic.o(.text._Znaj) refers to heap_4.o(.text.pvPortMalloc) for pvPortMalloc
    basic.o(.ARM.exidx.text._Znaj) refers to basic.o(.text._Znaj) for [Anonymous Symbol]
    basic.o(.text._ZdlPv) refers to heap_4.o(.text.vPortFree) for vPortFree
    basic.o(.ARM.exidx.text._ZdlPv) refers to basic.o(.text._ZdlPv) for [Anonymous Symbol]
    basic.o(.text._ZdaPv) refers to heap_4.o(.text.vPortFree) for vPortFree
    basic.o(.ARM.exidx.text._ZdaPv) refers to basic.o(.text._ZdaPv) for [Anonymous Symbol]
    timebase.o(.text.HAL_GetTick) refers to timebase.o(.text._ZN4TIME19get_System_Run_TimeEv) for TIME::get_System_Run_Time()
    timebase.o(.ARM.exidx.text.HAL_GetTick) refers to timebase.o(.text.HAL_GetTick) for [Anonymous Symbol]
    timebase.o(.text.HAL_Delay) refers to timebase.o(.text._Z5delayd) for delay(double)
    timebase.o(.ARM.exidx.text.HAL_Delay) refers to timebase.o(.text.HAL_Delay) for [Anonymous Symbol]
    timebase.o(.text.HAL_SuspendTick) refers to timebase.o(.text._ZL17__NVIC_DisableIRQ9IRQn_Type) for _ZL17__NVIC_DisableIRQ9IRQn_Type
    timebase.o(.ARM.exidx.text.HAL_SuspendTick) refers to timebase.o(.text.HAL_SuspendTick) for [Anonymous Symbol]
    timebase.o(.ARM.exidx.text._ZL17__NVIC_DisableIRQ9IRQn_Type) refers to timebase.o(.text._ZL17__NVIC_DisableIRQ9IRQn_Type) for [Anonymous Symbol]
    timebase.o(.text.HAL_ResumeTick) refers to timebase.o(.text._ZL16__NVIC_EnableIRQ9IRQn_Type) for _ZL16__NVIC_EnableIRQ9IRQn_Type
    timebase.o(.ARM.exidx.text.HAL_ResumeTick) refers to timebase.o(.text.HAL_ResumeTick) for [Anonymous Symbol]
    timebase.o(.ARM.exidx.text._ZL16__NVIC_EnableIRQ9IRQn_Type) refers to timebase.o(.text._ZL16__NVIC_EnableIRQ9IRQn_Type) for [Anonymous Symbol]
    timebase.o(.ARM.exidx.text.HAL_InitTick) refers to timebase.o(.text.HAL_InitTick) for [Anonymous Symbol]
    timebase.o(.text.Get_RTC_Time) refers to timebase.o(.bss._ZL13RTC_Semaphore) for _ZL13RTC_Semaphore
    timebase.o(.text.Get_RTC_Time) refers to queue.o(.text.xQueueSemaphoreTake) for xQueueSemaphoreTake
    timebase.o(.text.Get_RTC_Time) refers to timebase.o(.bss._ZL8RTC_Time) for _ZL8RTC_Time
    timebase.o(.text.Get_RTC_Time) refers to queue.o(.text.xQueueGenericSend) for xQueueGenericSend
    timebase.o(.ARM.exidx.text.Get_RTC_Time) refers to timebase.o(.text.Get_RTC_Time) for [Anonymous Symbol]
    timebase.o(.ARM.exidx.text.RTC_ByteToBcd2) refers to timebase.o(.text.RTC_ByteToBcd2) for [Anonymous Symbol]
    timebase.o(.text.Set_RTC_Time) refers to timebase.o(.bss._ZL13RTC_Semaphore) for _ZL13RTC_Semaphore
    timebase.o(.text.Set_RTC_Time) refers to queue.o(.text.xQueueSemaphoreTake) for xQueueSemaphoreTake
    timebase.o(.text.Set_RTC_Time) refers to timebase.o(.text.RTC_ByteToBcd2) for RTC_ByteToBcd2
    timebase.o(.text.Set_RTC_Time) refers to queue.o(.text.xQueueGenericSend) for xQueueGenericSend
    timebase.o(.ARM.exidx.text.Set_RTC_Time) refers to timebase.o(.text.Set_RTC_Time) for [Anonymous Symbol]
    timebase.o(.ARM.exidx.text.GetTimeZone) refers to timebase.o(.text.GetTimeZone) for [Anonymous Symbol]
    timebase.o(.ARM.exidx.text.UTC2LocalTime) refers to timebase.o(.text.UTC2LocalTime) for [Anonymous Symbol]
    timebase.o(.text.TIM5_IRQHandler) refers to timebase.o(.bss._ZN13__global_time19current_time_part_1E) for __global_time::current_time_part_1
    timebase.o(.ARM.exidx.text.TIM5_IRQHandler) refers to timebase.o(.text.TIM5_IRQHandler) for [Anonymous Symbol]
    timebase.o(.text._Z13init_TimeBasev) refers to timebase.o(.text._ZL18SystemClock_Configv) for _ZL18SystemClock_Configv
    timebase.o(.text._Z13init_TimeBasev) refers to stm32h7xx_hal.o(.text.HAL_Init) for HAL_Init
    timebase.o(.text._Z13init_TimeBasev) refers to stm32h7xx_hal.o(.text.HAL_EnableCompensationCell) for HAL_EnableCompensationCell
    timebase.o(.text._Z13init_TimeBasev) refers to timebase.o(.text._ZL18__NVIC_SetPriority9IRQn_Typej) for _ZL18__NVIC_SetPriority9IRQn_Typej
    timebase.o(.text._Z13init_TimeBasev) refers to timebase.o(.text._ZL16__NVIC_EnableIRQ9IRQn_Type) for _ZL16__NVIC_EnableIRQ9IRQn_Type
    timebase.o(.text._Z13init_TimeBasev) refers to queue.o(.text.xQueueCreateMutex) for xQueueCreateMutex
    timebase.o(.text._Z13init_TimeBasev) refers to timebase.o(.bss._ZL13RTC_Semaphore) for _ZL13RTC_Semaphore
    timebase.o(.ARM.exidx.text._Z13init_TimeBasev) refers to timebase.o(.text._Z13init_TimeBasev) for [Anonymous Symbol]
    timebase.o(.text._ZL18SystemClock_Configv) refers to rt_memclr_w.o(.text) for __aeabi_memclr4
    timebase.o(.text._ZL18SystemClock_Configv) refers to stm32h7xx_hal_pwr_ex.o(.text.HAL_PWREx_ConfigSupply) for HAL_PWREx_ConfigSupply
    timebase.o(.text._ZL18SystemClock_Configv) refers to stm32h7xx_hal_pwr.o(.text.HAL_PWR_EnableBkUpAccess) for HAL_PWR_EnableBkUpAccess
    timebase.o(.text._ZL18SystemClock_Configv) refers to stm32h7xx_hal.o(.text.HAL_GetREVID) for HAL_GetREVID
    timebase.o(.text._ZL18SystemClock_Configv) refers to stm32h7xx_hal_rcc.o(.text.HAL_RCC_OscConfig) for HAL_RCC_OscConfig
    timebase.o(.text._ZL18SystemClock_Configv) refers to stm32h7xx_hal_rcc.o(.text.HAL_RCC_ClockConfig) for HAL_RCC_ClockConfig
    timebase.o(.text._ZL18SystemClock_Configv) refers to stm32h7xx_hal_rcc_ex.o(.text.HAL_RCCEx_PeriphCLKConfig) for HAL_RCCEx_PeriphCLKConfig
    timebase.o(.text._ZL18SystemClock_Configv) refers to stm32h7xx_hal_pwr_ex.o(.text.HAL_PWREx_EnableUSBVoltageDetector) for HAL_PWREx_EnableUSBVoltageDetector
    timebase.o(.ARM.exidx.text._ZL18SystemClock_Configv) refers to timebase.o(.text._ZL18SystemClock_Configv) for [Anonymous Symbol]
    timebase.o(.ARM.exidx.text._ZL18__NVIC_SetPriority9IRQn_Typej) refers to timebase.o(.text._ZL18__NVIC_SetPriority9IRQn_Typej) for [Anonymous Symbol]
    internalstorage.o(.text._Z28InternalStorage_TruncateFilePKcS0_jd) refers to internalstorage.o(.bss._ZL27InternalStorage_Initialized) for _ZL27InternalStorage_Initialized
    internalstorage.o(.text._Z28InternalStorage_TruncateFilePKcS0_jd) refers to internalstorage.o(.bss._ZL22InternalStorage_Semphr) for _ZL22InternalStorage_Semphr
    internalstorage.o(.text._Z28InternalStorage_TruncateFilePKcS0_jd) refers to queue.o(.text.xQueueSemaphoreTake) for xQueueSemaphoreTake
    internalstorage.o(.text._Z28InternalStorage_TruncateFilePKcS0_jd) refers to internalstorage.o(.bss._ZL17UserFile_filename) for _ZL17UserFile_filename
    internalstorage.o(.text._Z28InternalStorage_TruncateFilePKcS0_jd) refers to strcat.o(.text) for strcat
    internalstorage.o(.text._Z28InternalStorage_TruncateFilePKcS0_jd) refers to internalstorage.o(.bss._ZL7FlashFs) for _ZL7FlashFs
    internalstorage.o(.text._Z28InternalStorage_TruncateFilePKcS0_jd) refers to lfs.o(.text.lfs_stat) for lfs_stat
    internalstorage.o(.text._Z28InternalStorage_TruncateFilePKcS0_jd) refers to lfs.o(.text.lfs_mkdir) for lfs_mkdir
    internalstorage.o(.text._Z28InternalStorage_TruncateFilePKcS0_jd) refers to internalstorage.o(.rodata.str1.1) for .L.str
    internalstorage.o(.text._Z28InternalStorage_TruncateFilePKcS0_jd) refers to internalstorage.o(.bss._ZL8UserFile) for _ZL8UserFile
    internalstorage.o(.text._Z28InternalStorage_TruncateFilePKcS0_jd) refers to lfs.o(.text.lfs_file_open) for lfs_file_open
    internalstorage.o(.text._Z28InternalStorage_TruncateFilePKcS0_jd) refers to lfs.o(.text.lfs_file_truncate) for lfs_file_truncate
    internalstorage.o(.text._Z28InternalStorage_TruncateFilePKcS0_jd) refers to lfs.o(.text.lfs_file_close) for lfs_file_close
    internalstorage.o(.text._Z28InternalStorage_TruncateFilePKcS0_jd) refers to queue.o(.text.xQueueGenericSend) for xQueueGenericSend
    internalstorage.o(.ARM.exidx.text._Z28InternalStorage_TruncateFilePKcS0_jd) refers to internalstorage.o(.text._Z28InternalStorage_TruncateFilePKcS0_jd) for [Anonymous Symbol]
    internalstorage.o(.text._Z25InternalStorage_WriteFilePKcS0_PKvjjd) refers to internalstorage.o(.bss._ZL27InternalStorage_Initialized) for _ZL27InternalStorage_Initialized
    internalstorage.o(.text._Z25InternalStorage_WriteFilePKcS0_PKvjjd) refers to internalstorage.o(.bss._ZL22InternalStorage_Semphr) for _ZL22InternalStorage_Semphr
    internalstorage.o(.text._Z25InternalStorage_WriteFilePKcS0_PKvjjd) refers to queue.o(.text.xQueueSemaphoreTake) for xQueueSemaphoreTake
    internalstorage.o(.text._Z25InternalStorage_WriteFilePKcS0_PKvjjd) refers to internalstorage.o(.bss._ZL17UserFile_filename) for _ZL17UserFile_filename
    internalstorage.o(.text._Z25InternalStorage_WriteFilePKcS0_PKvjjd) refers to strcat.o(.text) for strcat
    internalstorage.o(.text._Z25InternalStorage_WriteFilePKcS0_PKvjjd) refers to internalstorage.o(.bss._ZL7FlashFs) for _ZL7FlashFs
    internalstorage.o(.text._Z25InternalStorage_WriteFilePKcS0_PKvjjd) refers to lfs.o(.text.lfs_stat) for lfs_stat
    internalstorage.o(.text._Z25InternalStorage_WriteFilePKcS0_PKvjjd) refers to lfs.o(.text.lfs_mkdir) for lfs_mkdir
    internalstorage.o(.text._Z25InternalStorage_WriteFilePKcS0_PKvjjd) refers to internalstorage.o(.rodata.str1.1) for .L.str
    internalstorage.o(.text._Z25InternalStorage_WriteFilePKcS0_PKvjjd) refers to internalstorage.o(.bss._ZL8UserFile) for _ZL8UserFile
    internalstorage.o(.text._Z25InternalStorage_WriteFilePKcS0_PKvjjd) refers to lfs.o(.text.lfs_file_open) for lfs_file_open
    internalstorage.o(.text._Z25InternalStorage_WriteFilePKcS0_PKvjjd) refers to lfs.o(.text.lfs_file_seek) for lfs_file_seek
    internalstorage.o(.text._Z25InternalStorage_WriteFilePKcS0_PKvjjd) refers to lfs.o(.text.lfs_file_write) for lfs_file_write
    internalstorage.o(.text._Z25InternalStorage_WriteFilePKcS0_PKvjjd) refers to lfs.o(.text.lfs_file_close) for lfs_file_close
    internalstorage.o(.text._Z25InternalStorage_WriteFilePKcS0_PKvjjd) refers to queue.o(.text.xQueueGenericSend) for xQueueGenericSend
    internalstorage.o(.ARM.exidx.text._Z25InternalStorage_WriteFilePKcS0_PKvjjd) refers to internalstorage.o(.text._Z25InternalStorage_WriteFilePKcS0_PKvjjd) for [Anonymous Symbol]
    internalstorage.o(.text._Z24InternalStorage_SaveFilePKcS0_PKvjd) refers to internalstorage.o(.bss._ZL27InternalStorage_Initialized) for _ZL27InternalStorage_Initialized
    internalstorage.o(.text._Z24InternalStorage_SaveFilePKcS0_PKvjd) refers to internalstorage.o(.bss._ZL22InternalStorage_Semphr) for _ZL22InternalStorage_Semphr
    internalstorage.o(.text._Z24InternalStorage_SaveFilePKcS0_PKvjd) refers to queue.o(.text.xQueueSemaphoreTake) for xQueueSemaphoreTake
    internalstorage.o(.text._Z24InternalStorage_SaveFilePKcS0_PKvjd) refers to internalstorage.o(.bss._ZL17UserFile_filename) for _ZL17UserFile_filename
    internalstorage.o(.text._Z24InternalStorage_SaveFilePKcS0_PKvjd) refers to strcat.o(.text) for strcat
    internalstorage.o(.text._Z24InternalStorage_SaveFilePKcS0_PKvjd) refers to internalstorage.o(.bss._ZL7FlashFs) for _ZL7FlashFs
    internalstorage.o(.text._Z24InternalStorage_SaveFilePKcS0_PKvjd) refers to lfs.o(.text.lfs_stat) for lfs_stat
    internalstorage.o(.text._Z24InternalStorage_SaveFilePKcS0_PKvjd) refers to lfs.o(.text.lfs_mkdir) for lfs_mkdir
    internalstorage.o(.text._Z24InternalStorage_SaveFilePKcS0_PKvjd) refers to internalstorage.o(.rodata.str1.1) for .L.str
    internalstorage.o(.text._Z24InternalStorage_SaveFilePKcS0_PKvjd) refers to internalstorage.o(.bss._ZL8UserFile) for _ZL8UserFile
    internalstorage.o(.text._Z24InternalStorage_SaveFilePKcS0_PKvjd) refers to lfs.o(.text.lfs_file_open) for lfs_file_open
    internalstorage.o(.text._Z24InternalStorage_SaveFilePKcS0_PKvjd) refers to lfs.o(.text.lfs_file_write) for lfs_file_write
    internalstorage.o(.text._Z24InternalStorage_SaveFilePKcS0_PKvjd) refers to lfs.o(.text.lfs_file_close) for lfs_file_close
    internalstorage.o(.text._Z24InternalStorage_SaveFilePKcS0_PKvjd) refers to queue.o(.text.xQueueGenericSend) for xQueueGenericSend
    internalstorage.o(.ARM.exidx.text._Z24InternalStorage_SaveFilePKcS0_PKvjd) refers to internalstorage.o(.text._Z24InternalStorage_SaveFilePKcS0_PKvjd) for [Anonymous Symbol]
    internalstorage.o(.text._Z27InternalStorage_GetFileSizePKcS0_Pjd) refers to internalstorage.o(.bss._ZL27InternalStorage_Initialized) for _ZL27InternalStorage_Initialized
    internalstorage.o(.text._Z27InternalStorage_GetFileSizePKcS0_Pjd) refers to internalstorage.o(.bss._ZL22InternalStorage_Semphr) for _ZL22InternalStorage_Semphr
    internalstorage.o(.text._Z27InternalStorage_GetFileSizePKcS0_Pjd) refers to queue.o(.text.xQueueSemaphoreTake) for xQueueSemaphoreTake
    internalstorage.o(.text._Z27InternalStorage_GetFileSizePKcS0_Pjd) refers to internalstorage.o(.bss._ZL17UserFile_filename) for _ZL17UserFile_filename
    internalstorage.o(.text._Z27InternalStorage_GetFileSizePKcS0_Pjd) refers to strcat.o(.text) for strcat
    internalstorage.o(.text._Z27InternalStorage_GetFileSizePKcS0_Pjd) refers to internalstorage.o(.rodata.str1.1) for .L.str
    internalstorage.o(.text._Z27InternalStorage_GetFileSizePKcS0_Pjd) refers to internalstorage.o(.bss._ZL7FlashFs) for _ZL7FlashFs
    internalstorage.o(.text._Z27InternalStorage_GetFileSizePKcS0_Pjd) refers to lfs.o(.text.lfs_stat) for lfs_stat
    internalstorage.o(.text._Z27InternalStorage_GetFileSizePKcS0_Pjd) refers to queue.o(.text.xQueueGenericSend) for xQueueGenericSend
    internalstorage.o(.ARM.exidx.text._Z27InternalStorage_GetFileSizePKcS0_Pjd) refers to internalstorage.o(.text._Z27InternalStorage_GetFileSizePKcS0_Pjd) for [Anonymous Symbol]
    internalstorage.o(.text._Z24InternalStorage_ReadFilePKcS0_PvPjjid) refers to internalstorage.o(.bss._ZL27InternalStorage_Initialized) for _ZL27InternalStorage_Initialized
    internalstorage.o(.text._Z24InternalStorage_ReadFilePKcS0_PvPjjid) refers to internalstorage.o(.bss._ZL22InternalStorage_Semphr) for _ZL22InternalStorage_Semphr
    internalstorage.o(.text._Z24InternalStorage_ReadFilePKcS0_PvPjjid) refers to queue.o(.text.xQueueSemaphoreTake) for xQueueSemaphoreTake
    internalstorage.o(.text._Z24InternalStorage_ReadFilePKcS0_PvPjjid) refers to internalstorage.o(.bss._ZL17UserFile_filename) for _ZL17UserFile_filename
    internalstorage.o(.text._Z24InternalStorage_ReadFilePKcS0_PvPjjid) refers to strcat.o(.text) for strcat
    internalstorage.o(.text._Z24InternalStorage_ReadFilePKcS0_PvPjjid) refers to internalstorage.o(.rodata.str1.1) for .L.str
    internalstorage.o(.text._Z24InternalStorage_ReadFilePKcS0_PvPjjid) refers to internalstorage.o(.bss._ZL7FlashFs) for _ZL7FlashFs
    internalstorage.o(.text._Z24InternalStorage_ReadFilePKcS0_PvPjjid) refers to internalstorage.o(.bss._ZL8UserFile) for _ZL8UserFile
    internalstorage.o(.text._Z24InternalStorage_ReadFilePKcS0_PvPjjid) refers to lfs.o(.text.lfs_file_open) for lfs_file_open
    internalstorage.o(.text._Z24InternalStorage_ReadFilePKcS0_PvPjjid) refers to lfs.o(.text.lfs_file_size) for lfs_file_size
    internalstorage.o(.text._Z24InternalStorage_ReadFilePKcS0_PvPjjid) refers to lfs.o(.text.lfs_file_seek) for lfs_file_seek
    internalstorage.o(.text._Z24InternalStorage_ReadFilePKcS0_PvPjjid) refers to lfs.o(.text.lfs_file_read) for lfs_file_read
    internalstorage.o(.text._Z24InternalStorage_ReadFilePKcS0_PvPjjid) refers to lfs.o(.text.lfs_file_close) for lfs_file_close
    internalstorage.o(.text._Z24InternalStorage_ReadFilePKcS0_PvPjjid) refers to queue.o(.text.xQueueGenericSend) for xQueueGenericSend
    internalstorage.o(.ARM.exidx.text._Z24InternalStorage_ReadFilePKcS0_PvPjjid) refers to internalstorage.o(.text._Z24InternalStorage_ReadFilePKcS0_PvPjjid) for [Anonymous Symbol]
    internalstorage.o(.text._Z20init_InternalStoragev) refers to drv_adc.o(.text._Z16Get_VDDA_Voltagev) for Get_VDDA_Voltage()
    internalstorage.o(.text._Z20init_InternalStoragev) refers to main.o(.text.os_delay) for os_delay
    internalstorage.o(.text._Z20init_InternalStoragev) refers to flash_diskio.o(.text.Flash_read) for Flash_read
    internalstorage.o(.text._Z20init_InternalStoragev) refers to flash_diskio.o(.text.Flash_write) for Flash_write
    internalstorage.o(.text._Z20init_InternalStoragev) refers to flash_diskio.o(.text.Flash_erase) for Flash_erase
    internalstorage.o(.text._Z20init_InternalStoragev) refers to flash_diskio.o(.text.Flash_sync) for Flash_sync
    internalstorage.o(.text._Z20init_InternalStoragev) refers to drv_flash.o(.text.getFlashPageSize) for getFlashPageSize
    internalstorage.o(.text._Z20init_InternalStoragev) refers to drv_flash.o(.text.getFlashSectorSize) for getFlashSectorSize
    internalstorage.o(.text._Z20init_InternalStoragev) refers to drv_flash.o(.text.getFlashSectorCount) for getFlashSectorCount
    internalstorage.o(.text._Z20init_InternalStoragev) refers to internalstorage.o(.bss._ZL3cfg) for _ZL3cfg
    internalstorage.o(.text._Z20init_InternalStoragev) refers to rt_memcpy_w.o(.text) for __aeabi_memcpy4
    internalstorage.o(.text._Z20init_InternalStoragev) refers to internalstorage.o(.bss._ZL7FlashFs) for _ZL7FlashFs
    internalstorage.o(.text._Z20init_InternalStoragev) refers to lfs.o(.text.lfs_mount) for lfs_mount
    internalstorage.o(.text._Z20init_InternalStoragev) refers to lfs.o(.text.lfs_format) for lfs_format
    internalstorage.o(.text._Z20init_InternalStoragev) refers to rt_memclr.o(.text) for __aeabi_memclr
    internalstorage.o(.text._Z20init_InternalStoragev) refers to internalstorage.o(.rodata.str1.1) for .L.str.2
    internalstorage.o(.text._Z20init_InternalStoragev) refers to strcat.o(.text) for strcat
    internalstorage.o(.text._Z20init_InternalStoragev) refers to lfs.o(.text.lfs_stat) for lfs_stat
    internalstorage.o(.text._Z20init_InternalStoragev) refers to lfs.o(.text.lfs_mkdir) for lfs_mkdir
    internalstorage.o(.text._Z20init_InternalStoragev) refers to queue.o(.text.xQueueCreateMutex) for xQueueCreateMutex
    internalstorage.o(.text._Z20init_InternalStoragev) refers to internalstorage.o(.bss._ZL22InternalStorage_Semphr) for _ZL22InternalStorage_Semphr
    internalstorage.o(.text._Z20init_InternalStoragev) refers to internalstorage.o(.bss._ZL27InternalStorage_Initialized) for _ZL27InternalStorage_Initialized
    internalstorage.o(.ARM.exidx.text._Z20init_InternalStoragev) refers to internalstorage.o(.text._Z20init_InternalStoragev) for [Anonymous Symbol]
    sdstorage.o(.text.Get_SD_Init_Complete) refers to sdstorage.o(.bss._ZL15SD_Init_Success) for _ZL15SD_Init_Success
    sdstorage.o(.ARM.exidx.text.Get_SD_Init_Complete) refers to sdstorage.o(.text.Get_SD_Init_Complete) for [Anonymous Symbol]
    sdstorage.o(.text.Set_SD_Init_Complete) refers to sdstorage.o(.bss._ZL15SD_Init_Success) for _ZL15SD_Init_Success
    sdstorage.o(.ARM.exidx.text.Set_SD_Init_Complete) refers to sdstorage.o(.text.Set_SD_Init_Complete) for [Anonymous Symbol]
    sdstorage.o(.text.Clear_SD_Init_Complete) refers to sdstorage.o(.bss._ZL15SD_Init_Success) for _ZL15SD_Init_Success
    sdstorage.o(.ARM.exidx.text.Clear_SD_Init_Complete) refers to sdstorage.o(.text.Clear_SD_Init_Complete) for [Anonymous Symbol]
    sdstorage.o(.text.__cxx_global_var_init) refers to sdstorage.o(.DTCM) for _ZL21LogStreamBufferStruct
    sdstorage.o(.text.__cxx_global_var_init) refers to stream_buffer.o(.text.xStreamBufferGenericCreateStatic) for xStreamBufferGenericCreateStatic
    sdstorage.o(.ARM.exidx.text.__cxx_global_var_init) refers to sdstorage.o(.text.__cxx_global_var_init) for [Anonymous Symbol]
    sdstorage.o(.text.__cxx_global_var_init.1) refers to queue.o(.text.xQueueCreateMutex) for xQueueCreateMutex
    sdstorage.o(.text.__cxx_global_var_init.1) refers to sdstorage.o(.bss._ZL9LogSemphr) for _ZL9LogSemphr
    sdstorage.o(.ARM.exidx.text.__cxx_global_var_init.1) refers to sdstorage.o(.text.__cxx_global_var_init.1) for [Anonymous Symbol]
    sdstorage.o(.text._Z19SDLog_Msg_PosSensorh15Position_Sensord) refers to timebase.o(.text._ZN4TIME19get_System_Run_TimeEv) for TIME::get_System_Run_Time()
    sdstorage.o(.text._Z19SDLog_Msg_PosSensorh15Position_Sensord) refers to sdstorage.o(.text._Z10rad2degreed) for rad2degree(double)
    sdstorage.o(.text._Z19SDLog_Msg_PosSensorh15Position_Sensord) refers to sdstorage.o(.text._ZL10Lock_SDLogd) for _ZL10Lock_SDLogd
    sdstorage.o(.text._Z19SDLog_Msg_PosSensorh15Position_Sensord) refers to sdstorage.o(.DTCM) for _ZL15LogStreamBuffer
    sdstorage.o(.text._Z19SDLog_Msg_PosSensorh15Position_Sensord) refers to stream_buffer.o(.text.xStreamBufferSend) for xStreamBufferSend
    sdstorage.o(.text._Z19SDLog_Msg_PosSensorh15Position_Sensord) refers to sdstorage.o(.text._ZL12UnLock_SDLogv) for _ZL12UnLock_SDLogv
    sdstorage.o(.ARM.exidx.text._Z19SDLog_Msg_PosSensorh15Position_Sensord) refers to sdstorage.o(.text._Z19SDLog_Msg_PosSensorh15Position_Sensord) for [Anonymous Symbol]
    sdstorage.o(.text._ZL10Lock_SDLogd) refers to sdstorage.o(.bss._ZL9LogSemphr) for _ZL9LogSemphr
    sdstorage.o(.text._ZL10Lock_SDLogd) refers to queue.o(.text.xQueueSemaphoreTake) for xQueueSemaphoreTake
    sdstorage.o(.ARM.exidx.text._ZL10Lock_SDLogd) refers to sdstorage.o(.text._ZL10Lock_SDLogd) for [Anonymous Symbol]
    sdstorage.o(.text._ZL12UnLock_SDLogv) refers to sdstorage.o(.bss._ZL9LogSemphr) for _ZL9LogSemphr
    sdstorage.o(.text._ZL12UnLock_SDLogv) refers to queue.o(.text.xQueueGenericSend) for xQueueGenericSend
    sdstorage.o(.ARM.exidx.text._ZL12UnLock_SDLogv) refers to sdstorage.o(.text._ZL12UnLock_SDLogv) for [Anonymous Symbol]
    sdstorage.o(.text._Z18SDLog_Msg_Attituded) refers to sdstorage.o(.text._ZN10QuaternionC2Ev) for Quaternion::Quaternion__sub_object()
    sdstorage.o(.text._Z18SDLog_Msg_Attituded) refers to ms_attitude.o(.text._Z18get_AirframeY_quatP10Quaterniond) for get_AirframeY_quat(Quaternion*, double)
    sdstorage.o(.text._Z18SDLog_Msg_Attituded) refers to sdstorage.o(.text._ZN7vector3IdEC2Ev) for vector3<double>::vector3__sub_object()
    sdstorage.o(.text._Z18SDLog_Msg_Attituded) refers to ms_attitude.o(.text._Z20get_AngularRate_CtrlP7vector3IdEd) for get_AngularRate_Ctrl(vector3<double>*, double)
    sdstorage.o(.text._Z18SDLog_Msg_Attituded) refers to timebase.o(.text._ZN4TIME19get_System_Run_TimeEv) for TIME::get_System_Run_Time()
    sdstorage.o(.text._Z18SDLog_Msg_Attituded) refers to sdstorage.o(.text._ZNK10Quaternion7getRollEv) for Quaternion::getRoll() const
    sdstorage.o(.text._Z18SDLog_Msg_Attituded) refers to sdstorage.o(.text._ZNK10Quaternion8getPitchEv) for Quaternion::getPitch() const
    sdstorage.o(.text._Z18SDLog_Msg_Attituded) refers to sdstorage.o(.text._ZNK10Quaternion6getYawEv) for Quaternion::getYaw() const
    sdstorage.o(.text._Z18SDLog_Msg_Attituded) refers to sdstorage.o(.text._ZL10Lock_SDLogd) for _ZL10Lock_SDLogd
    sdstorage.o(.text._Z18SDLog_Msg_Attituded) refers to sdstorage.o(.DTCM) for _ZL15LogStreamBuffer
    sdstorage.o(.text._Z18SDLog_Msg_Attituded) refers to stream_buffer.o(.text.xStreamBufferSend) for xStreamBufferSend
    sdstorage.o(.text._Z18SDLog_Msg_Attituded) refers to sdstorage.o(.text._ZL12UnLock_SDLogv) for _ZL12UnLock_SDLogv
    sdstorage.o(.ARM.exidx.text._Z18SDLog_Msg_Attituded) refers to sdstorage.o(.text._Z18SDLog_Msg_Attituded) for [Anonymous Symbol]
    sdstorage.o(.text._Z28SDLog_Msg_AttitudeQuaterniond) refers to sdstorage.o(.text._ZN10QuaternionC2Ev) for Quaternion::Quaternion__sub_object()
    sdstorage.o(.text._Z28SDLog_Msg_AttitudeQuaterniond) refers to ms_attitude.o(.text._Z18get_AirframeY_quatP10Quaterniond) for get_AirframeY_quat(Quaternion*, double)
    sdstorage.o(.text._Z28SDLog_Msg_AttitudeQuaterniond) refers to sdstorage.o(.text._ZN7vector3IdEC2Ev) for vector3<double>::vector3__sub_object()
    sdstorage.o(.text._Z28SDLog_Msg_AttitudeQuaterniond) refers to ms_attitude.o(.text._Z20get_AngularRate_CtrlP7vector3IdEd) for get_AngularRate_Ctrl(vector3<double>*, double)
    sdstorage.o(.text._Z28SDLog_Msg_AttitudeQuaterniond) refers to timebase.o(.text._ZN4TIME19get_System_Run_TimeEv) for TIME::get_System_Run_Time()
    sdstorage.o(.text._Z28SDLog_Msg_AttitudeQuaterniond) refers to sdstorage.o(.text._ZNK10Quaternion6get_qwEv) for Quaternion::get_qw() const
    sdstorage.o(.text._Z28SDLog_Msg_AttitudeQuaterniond) refers to sdstorage.o(.text._ZNK10Quaternion6get_qxEv) for Quaternion::get_qx() const
    sdstorage.o(.text._Z28SDLog_Msg_AttitudeQuaterniond) refers to sdstorage.o(.text._ZNK10Quaternion6get_qyEv) for Quaternion::get_qy() const
    sdstorage.o(.text._Z28SDLog_Msg_AttitudeQuaterniond) refers to sdstorage.o(.text._ZNK10Quaternion6get_qzEv) for Quaternion::get_qz() const
    sdstorage.o(.text._Z28SDLog_Msg_AttitudeQuaterniond) refers to sdstorage.o(.text._ZL10Lock_SDLogd) for _ZL10Lock_SDLogd
    sdstorage.o(.text._Z28SDLog_Msg_AttitudeQuaterniond) refers to sdstorage.o(.DTCM) for _ZL15LogStreamBuffer
    sdstorage.o(.text._Z28SDLog_Msg_AttitudeQuaterniond) refers to stream_buffer.o(.text.xStreamBufferSend) for xStreamBufferSend
    sdstorage.o(.text._Z28SDLog_Msg_AttitudeQuaterniond) refers to sdstorage.o(.text._ZL12UnLock_SDLogv) for _ZL12UnLock_SDLogv
    sdstorage.o(.ARM.exidx.text._Z28SDLog_Msg_AttitudeQuaterniond) refers to sdstorage.o(.text._Z28SDLog_Msg_AttitudeQuaterniond) for [Anonymous Symbol]
    sdstorage.o(.text._Z26SDLog_Msg_LocalPositionNedd) refers to sdstorage.o(.text._ZN7vector3IdEC2Ev) for vector3<double>::vector3__sub_object()
    sdstorage.o(.text._Z26SDLog_Msg_LocalPositionNedd) refers to ms_position.o(.text._Z17get_Position_CtrlP7vector3IdEd) for get_Position_Ctrl(vector3<double>*, double)
    sdstorage.o(.text._Z26SDLog_Msg_LocalPositionNedd) refers to ms_position.o(.text._Z20get_VelocityENU_CtrlP7vector3IdEd) for get_VelocityENU_Ctrl(vector3<double>*, double)
    sdstorage.o(.text._Z26SDLog_Msg_LocalPositionNedd) refers to ms_position.o(.text._Z24get_AccelerationENU_CtrlP7vector3IdEd) for get_AccelerationENU_Ctrl(vector3<double>*, double)
    sdstorage.o(.text._Z26SDLog_Msg_LocalPositionNedd) refers to ms_position.o(.text._Z20get_Current_XYSensorv) for get_Current_XYSensor()
    sdstorage.o(.text._Z26SDLog_Msg_LocalPositionNedd) refers to ms_position.o(.text._Z19get_Current_ZSensorv) for get_Current_ZSensor()
    sdstorage.o(.text._Z26SDLog_Msg_LocalPositionNedd) refers to timebase.o(.text._ZN4TIME19get_System_Run_TimeEv) for TIME::get_System_Run_Time()
    sdstorage.o(.text._Z26SDLog_Msg_LocalPositionNedd) refers to sdstorage.o(.text._ZL10Lock_SDLogd) for _ZL10Lock_SDLogd
    sdstorage.o(.text._Z26SDLog_Msg_LocalPositionNedd) refers to sdstorage.o(.DTCM) for _ZL15LogStreamBuffer
    sdstorage.o(.text._Z26SDLog_Msg_LocalPositionNedd) refers to stream_buffer.o(.text.xStreamBufferSend) for xStreamBufferSend
    sdstorage.o(.text._Z26SDLog_Msg_LocalPositionNedd) refers to sdstorage.o(.text._ZL12UnLock_SDLogv) for _ZL12UnLock_SDLogv
    sdstorage.o(.ARM.exidx.text._Z26SDLog_Msg_LocalPositionNedd) refers to sdstorage.o(.text._Z26SDLog_Msg_LocalPositionNedd) for [Anonymous Symbol]
    sdstorage.o(.text._Z19SDLog_Msg_DebugVectPKcPdhd) refers to basic.o(.text._Znaj) for operator new[] (unsigned)
    sdstorage.o(.text._Z19SDLog_Msg_DebugVectPKcPdhd) refers to timebase.o(.text._ZN4TIME19get_System_Run_TimeEv) for TIME::get_System_Run_Time()
    sdstorage.o(.text._Z19SDLog_Msg_DebugVectPKcPdhd) refers to rt_memcpy_v6.o(.text) for __aeabi_memcpy
    sdstorage.o(.text._Z19SDLog_Msg_DebugVectPKcPdhd) refers to sdstorage.o(.text._ZL10Lock_SDLogd) for _ZL10Lock_SDLogd
    sdstorage.o(.text._Z19SDLog_Msg_DebugVectPKcPdhd) refers to sdstorage.o(.DTCM) for _ZL15LogStreamBuffer
    sdstorage.o(.text._Z19SDLog_Msg_DebugVectPKcPdhd) refers to stream_buffer.o(.text.xStreamBufferSend) for xStreamBufferSend
    sdstorage.o(.text._Z19SDLog_Msg_DebugVectPKcPdhd) refers to sdstorage.o(.text._ZL12UnLock_SDLogv) for _ZL12UnLock_SDLogv
    sdstorage.o(.text._Z19SDLog_Msg_DebugVectPKcPdhd) refers to basic.o(.text._ZdaPv) for operator delete[] (void*)
    sdstorage.o(.ARM.exidx.text._Z19SDLog_Msg_DebugVectPKcPdhd) refers to sdstorage.o(.text._Z19SDLog_Msg_DebugVectPKcPdhd) for [Anonymous Symbol]
    sdstorage.o(.text.__cxx_global_var_init.2) refers to sdstorage.o(.DTCM) for _ZL25Txt1LogStreamBufferStruct
    sdstorage.o(.text.__cxx_global_var_init.2) refers to stream_buffer.o(.text.xStreamBufferGenericCreateStatic) for xStreamBufferGenericCreateStatic
    sdstorage.o(.ARM.exidx.text.__cxx_global_var_init.2) refers to sdstorage.o(.text.__cxx_global_var_init.2) for [Anonymous Symbol]
    sdstorage.o(.text.__cxx_global_var_init.3) refers to queue.o(.text.xQueueCreateMutex) for xQueueCreateMutex
    sdstorage.o(.text.__cxx_global_var_init.3) refers to sdstorage.o(.bss._ZL13Txt1LogSemphr) for _ZL13Txt1LogSemphr
    sdstorage.o(.ARM.exidx.text.__cxx_global_var_init.3) refers to sdstorage.o(.text.__cxx_global_var_init.3) for [Anonymous Symbol]
    sdstorage.o(.text._Z10SDLog_Txt1PKctd) refers to sdstorage.o(.text._ZL12Lock_Txt1Logd) for _ZL12Lock_Txt1Logd
    sdstorage.o(.text._Z10SDLog_Txt1PKctd) refers to sdstorage.o(.DTCM) for _ZL19Txt1LogStreamBuffer
    sdstorage.o(.text._Z10SDLog_Txt1PKctd) refers to stream_buffer.o(.text.xStreamBufferSend) for xStreamBufferSend
    sdstorage.o(.text._Z10SDLog_Txt1PKctd) refers to sdstorage.o(.text._ZL14UnLock_Txt1Logv) for _ZL14UnLock_Txt1Logv
    sdstorage.o(.ARM.exidx.text._Z10SDLog_Txt1PKctd) refers to sdstorage.o(.text._Z10SDLog_Txt1PKctd) for [Anonymous Symbol]
    sdstorage.o(.text._ZL12Lock_Txt1Logd) refers to sdstorage.o(.bss._ZL13Txt1LogSemphr) for _ZL13Txt1LogSemphr
    sdstorage.o(.text._ZL12Lock_Txt1Logd) refers to queue.o(.text.xQueueSemaphoreTake) for xQueueSemaphoreTake
    sdstorage.o(.ARM.exidx.text._ZL12Lock_Txt1Logd) refers to sdstorage.o(.text._ZL12Lock_Txt1Logd) for [Anonymous Symbol]
    sdstorage.o(.text._ZL14UnLock_Txt1Logv) refers to sdstorage.o(.bss._ZL13Txt1LogSemphr) for _ZL13Txt1LogSemphr
    sdstorage.o(.text._ZL14UnLock_Txt1Logv) refers to queue.o(.text.xQueueGenericSend) for xQueueGenericSend
    sdstorage.o(.ARM.exidx.text._ZL14UnLock_Txt1Logv) refers to sdstorage.o(.text._ZL14UnLock_Txt1Logv) for [Anonymous Symbol]
    sdstorage.o(.text._Z14init_SDStoragev) refers to sdstorage.o(.rodata..L__const._Z14init_SDStoragev.param_types) for .L__const._Z14init_SDStoragev.param_types
    sdstorage.o(.text._Z14init_SDStoragev) refers to sdstorage.o(.rodata.str1.1) for .L.str
    sdstorage.o(.text._Z14init_SDStoragev) refers to ms_attitude.o(.text._ZN5SNameC2EPKc) for SName::SName__sub_object(const char*)
    sdstorage.o(.text._Z14init_SDStoragev) refers to rt_memclr_w.o(.text) for __aeabi_memclr8
    sdstorage.o(.text._Z14init_SDStoragev) refers to parameters.o(.text._Z18ParamGroupRegister5SNametjPK14MAV_PARAM_TYPEPKS_PKy) for ParamGroupRegister(SName, unsigned short, unsigned, const MAV_PARAM_TYPE*, const SName*, const unsigned long long*)
    sdstorage.o(.text._Z14init_SDStoragev) refers to sdstorage.o(.text._ZL8SDS_TaskPv) for _ZL8SDS_TaskPv
    sdstorage.o(.text._Z14init_SDStoragev) refers to tasks.o(.text.xTaskCreate) for xTaskCreate
    sdstorage.o(.ARM.exidx.text._Z14init_SDStoragev) refers to sdstorage.o(.text._Z14init_SDStoragev) for [Anonymous Symbol]
    sdstorage.o(.text._ZL8SDS_TaskPv) refers to main.o(.text.os_delay) for os_delay
    sdstorage.o(.text._ZL8SDS_TaskPv) refers to bsp_driver_sd.o(.text.BSP_SD_IsDetected) for BSP_SD_IsDetected
    sdstorage.o(.text._ZL8SDS_TaskPv) refers to drv_sdmmc.o(.text.Lock_SD) for Lock_SD
    sdstorage.o(.text._ZL8SDS_TaskPv) refers to sdstorage.o(.text.Get_SD_Init_Complete) for Get_SD_Init_Complete
    sdstorage.o(.text._ZL8SDS_TaskPv) refers to bsp_driver_sd.o(.text.BSP_SD_Init) for BSP_SD_Init
    sdstorage.o(.text._ZL8SDS_TaskPv) refers to drv_sdmmc.o(.text.UnLock_SD) for UnLock_SD
    sdstorage.o(.text._ZL8SDS_TaskPv) refers to sd_diskio.o(.rodata.SD_Driver) for SD_Driver
    sdstorage.o(.text._ZL8SDS_TaskPv) refers to sdstorage.o(.text.Set_SD_Init_Complete) for Set_SD_Init_Complete
    sdstorage.o(.text._ZL8SDS_TaskPv) refers to fatfs.o(.bss.SDFatFS) for SDFatFS
    sdstorage.o(.text._ZL8SDS_TaskPv) refers to fatfs.o(.bss.SDPath) for SDPath
    sdstorage.o(.text._ZL8SDS_TaskPv) refers to ff.o(.text.f_mount) for f_mount
    sdstorage.o(.text._ZL8SDS_TaskPv) refers to strcat.o(.text) for strcat
    sdstorage.o(.text._ZL8SDS_TaskPv) refers to sdstorage.o(.rodata.str1.1) for .L.str.12
    sdstorage.o(.text._ZL8SDS_TaskPv) refers to ff.o(.text.f_stat) for f_stat
    sdstorage.o(.text._ZL8SDS_TaskPv) refers to ff.o(.text.f_chmod) for f_chmod
    sdstorage.o(.text._ZL8SDS_TaskPv) refers to ff.o(.text.f_unlink) for f_unlink
    sdstorage.o(.text._ZL8SDS_TaskPv) refers to ff.o(.text.f_mkdir) for f_mkdir
    sdstorage.o(.text._ZL8SDS_TaskPv) refers to timebase.o(.text.Get_RTC_Time) for Get_RTC_Time
    sdstorage.o(.text._ZL8SDS_TaskPv) refers to strlen.o(.text) for strlen
    sdstorage.o(.text._ZL8SDS_TaskPv) refers to sprintf.o(.text) for sprintf
    sdstorage.o(.text._ZL8SDS_TaskPv) refers to sdstorage.o(.bss._ZZL8SDS_TaskPvE6SDFile) for _ZZL8SDS_TaskPvE6SDFile
    sdstorage.o(.text._ZL8SDS_TaskPv) refers to ff.o(.text.f_open) for f_open
    sdstorage.o(.text._ZL8SDS_TaskPv) refers to sdstorage.o(.AXI_DMA_RAM) for _ZZL8SDS_TaskPvE3buf
    sdstorage.o(.text._ZL8SDS_TaskPv) refers to ff.o(.text.f_write) for f_write
    sdstorage.o(.text._ZL8SDS_TaskPv) refers to ff.o(.text.f_close) for f_close
    sdstorage.o(.text._ZL8SDS_TaskPv) refers to strcpy.o(.text) for strcpy
    sdstorage.o(.text._ZL8SDS_TaskPv) refers to ctrl_attitude.o(.text._Z15get_is_inFlightPbd) for get_is_inFlight(bool*, double)
    sdstorage.o(.text._ZL8SDS_TaskPv) refers to tasks.o(.text.xTaskGetTickCount) for xTaskGetTickCount
    sdstorage.o(.text._ZL8SDS_TaskPv) refers to timebase.o(.text._ZN4TIMEC2Ev) for TIME::TIME__sub_object()
    sdstorage.o(.text._ZL8SDS_TaskPv) refers to sdstorage.o(.DTCM) for _ZL15LogStreamBuffer
    sdstorage.o(.text._ZL8SDS_TaskPv) refers to stream_buffer.o(.text.xStreamBufferReceive) for xStreamBufferReceive
    sdstorage.o(.text._ZL8SDS_TaskPv) refers to sdstorage.o(.bss._ZZL8SDS_TaskPvE8Txt1File) for _ZZL8SDS_TaskPvE8Txt1File
    sdstorage.o(.text._ZL8SDS_TaskPv) refers to timebase.o(.text._ZNK4TIME13get_pass_timeEv) for TIME::get_pass_time() const
    sdstorage.o(.text._ZL8SDS_TaskPv) refers to ff.o(.text.f_sync) for f_sync
    sdstorage.o(.text._ZL8SDS_TaskPv) refers to timebase.o(.text._ZN4TIME3nowEv) for TIME::now()
    sdstorage.o(.text._ZL8SDS_TaskPv) refers to sdstorage.o(.text._ZN4TIMEaSERKS_) for TIME::operator =(const TIME&)
    sdstorage.o(.text._ZL8SDS_TaskPv) refers to tasks.o(.text.vTaskDelayUntil) for vTaskDelayUntil
    sdstorage.o(.text._ZL8SDS_TaskPv) refers to sdstorage.o(.text.Clear_SD_Init_Complete) for Clear_SD_Init_Complete
    sdstorage.o(.ARM.exidx.text._ZL8SDS_TaskPv) refers to sdstorage.o(.text._ZL8SDS_TaskPv) for [Anonymous Symbol]
    sdstorage.o(.text._GLOBAL__sub_I_SDStorage.cpp) refers to sdstorage.o(.text.__cxx_global_var_init) for __cxx_global_var_init
    sdstorage.o(.text._GLOBAL__sub_I_SDStorage.cpp) refers to sdstorage.o(.text.__cxx_global_var_init.1) for __cxx_global_var_init.1
    sdstorage.o(.text._GLOBAL__sub_I_SDStorage.cpp) refers to sdstorage.o(.text.__cxx_global_var_init.2) for __cxx_global_var_init.2
    sdstorage.o(.text._GLOBAL__sub_I_SDStorage.cpp) refers to sdstorage.o(.text.__cxx_global_var_init.3) for __cxx_global_var_init.3
    sdstorage.o(.ARM.exidx.text._GLOBAL__sub_I_SDStorage.cpp) refers to sdstorage.o(.text._GLOBAL__sub_I_SDStorage.cpp) for [Anonymous Symbol]
    sdstorage.o(.init_array) refers to sdstorage.o(.text._GLOBAL__sub_I_SDStorage.cpp) for _GLOBAL__sub_I_SDStorage.cpp
    parameters.o(.text.__cxx_global_var_init) refers to parameters.o(.bss._ZL11ParamGroups) for _ZL11ParamGroups
    parameters.o(.text.__cxx_global_var_init) refers to parameters.o(.text._ZNSt3__16__treeINS_12__value_typeI5SNameP10ParamGroupEENS_19__map_value_compareIS2_S5_NS_4lessIS2_EELb1EEENS_9allocatorIS5_EEEC2ERKS9_) for std::__1::__tree<std::__1::__value_type<SName, ParamGroup*>, std::__1::__map_value_compare<SName, std::__1::__value_type<SName, ParamGroup*>, std::__1::less<SName>, (bool)1>, std::__1::allocator<std::__1::__value_type<SName, ParamGroup*>>>::__tree__sub_object(const std::__1::__map_value_compare<SName, std::__1::__value_type<SName, ParamGroup*>, std::__1::less<SName>, (bool)1>&)
    parameters.o(.text.__cxx_global_var_init) refers to parameters.o(.text._ZNSt3__13mapI5SNameP10ParamGroupNS_4lessIS1_EENS_9allocatorINS_4pairIKS1_S3_EEEEED2Ev) for std::__1::map<SName, ParamGroup*, std::__1::less<SName>, std::__1::allocator<std::__1::pair<const SName, ParamGroup*>>>::~map__sub_object()
    parameters.o(.text.__cxx_global_var_init) refers to cxa_atexit.o(.text) for __cxa_atexit
    parameters.o(.ARM.exidx.text.__cxx_global_var_init) refers to parameters.o(.text.__cxx_global_var_init) for [Anonymous Symbol]
    parameters.o(.text.__cxx_global_var_init.1) refers to parameters.o(.bss._ZL15GroupParameters) for _ZL15GroupParameters
    parameters.o(.text.__cxx_global_var_init.1) refers to parameters.o(.text._ZNSt3__16__treeINS_12__value_typeI5SName5ParamEENS_19__map_value_compareIS2_S4_NS_4lessIS2_EELb1EEENS_9allocatorIS4_EEEC2ERKS8_) for std::__1::__tree<std::__1::__value_type<SName, Param>, std::__1::__map_value_compare<SName, std::__1::__value_type<SName, Param>, std::__1::less<SName>, (bool)1>, std::__1::allocator<std::__1::__value_type<SName, Param>>>::__tree__sub_object(const std::__1::__map_value_compare<SName, std::__1::__value_type<SName, Param>, std::__1::less<SName>, (bool)1>&)
    parameters.o(.text.__cxx_global_var_init.1) refers to parameters.o(.text._ZNSt3__13mapI5SName5ParamNS_4lessIS1_EENS_9allocatorINS_4pairIKS1_S2_EEEEED2Ev) for std::__1::map<SName, Param, std::__1::less<SName>, std::__1::allocator<std::__1::pair<const SName, Param>>>::~map__sub_object()
    parameters.o(.text.__cxx_global_var_init.1) refers to cxa_atexit.o(.text) for __cxa_atexit
    parameters.o(.ARM.exidx.text.__cxx_global_var_init.1) refers to parameters.o(.text.__cxx_global_var_init.1) for [Anonymous Symbol]
    parameters.o(.text._Z26VolatileParamGroupRegister5SNamettj) refers to basic.o(.text._Znaj) for operator new[] (unsigned)
    parameters.o(.text._Z26VolatileParamGroupRegister5SNamettj) refers to parameters.o(.text._ZN5SName11get_CharStrEPc) for SName::get_CharStr(char*)
    parameters.o(.text._Z26VolatileParamGroupRegister5SNamettj) refers to parameters.o(.rodata.str1.1) for .L.str
    parameters.o(.text._Z26VolatileParamGroupRegister5SNamettj) refers to internalstorage.o(.text._Z27InternalStorage_GetFileSizePKcS0_Pjd) for InternalStorage_GetFileSize(const char*, const char*, unsigned*, double)
    parameters.o(.text._Z26VolatileParamGroupRegister5SNamettj) refers to internalstorage.o(.text._Z24InternalStorage_ReadFilePKcS0_PvPjjid) for InternalStorage_ReadFile(const char*, const char*, void*, unsigned*, unsigned, int, double)
    parameters.o(.text._Z26VolatileParamGroupRegister5SNamettj) refers to timebase.o(.text.Get_RTC_Time) for Get_RTC_Time
    parameters.o(.text._Z26VolatileParamGroupRegister5SNamettj) refers to basic.o(.text._Znwj) for operator new(unsigned)
    parameters.o(.text._Z26VolatileParamGroupRegister5SNamettj) refers to rt_memclr_w.o(.text) for __aeabi_memclr8
    parameters.o(.text._Z26VolatileParamGroupRegister5SNamettj) refers to parameters.o(.text._ZN18VolatileParamGroupC2Ev) for VolatileParamGroup::VolatileParamGroup__sub_object()
    parameters.o(.text._Z26VolatileParamGroupRegister5SNamettj) refers to queue.o(.text.xQueueCreateMutex) for xQueueCreateMutex
    parameters.o(.text._Z26VolatileParamGroupRegister5SNamettj) refers to parameters.o(.bss._ZL17ParamGroup_Semphr) for _ZL17ParamGroup_Semphr
    parameters.o(.text._Z26VolatileParamGroupRegister5SNamettj) refers to queue.o(.text.xQueueSemaphoreTake) for xQueueSemaphoreTake
    parameters.o(.text._Z26VolatileParamGroupRegister5SNamettj) refers to parameters.o(.bss._ZL11ParamGroups) for _ZL11ParamGroups
    parameters.o(.text._Z26VolatileParamGroupRegister5SNamettj) refers to parameters.o(.text._ZNSt3__16__treeINS_12__value_typeI5SNameP10ParamGroupEENS_19__map_value_compareIS2_S5_NS_4lessIS2_EELb1EEENS_9allocatorIS5_EEE4findIS2_EENS_15__tree_iteratorIS5_PNS_11__tree_nodeIS5_PvEEiEERKT_) for std::__1::__tree_iterator<std::__1::__value_type<SName, ParamGroup*>, std::__1::__tree_node<std::__1::__value_type<SName, ParamGroup*>, void*>*, int> std::__1::__tree<std::__1::__value_type<SName, ParamGroup*>, std::__1::__map_value_compare<SName, std::__1::__value_type<SName, ParamGroup*>, std::__1::less<SName>, (bool)1>, std::__1::allocator<std::__1::__value_type<SName, ParamGroup*>>>::find<SName>(const T1&)
    parameters.o(.text._Z26VolatileParamGroupRegister5SNamettj) refers to basic.o(.text._ZdaPv) for operator delete[] (void*)
    parameters.o(.text._Z26VolatileParamGroupRegister5SNamettj) refers to basic.o(.text._ZdlPv) for operator delete (void*)
    parameters.o(.text._Z26VolatileParamGroupRegister5SNamettj) refers to queue.o(.text.xQueueGenericSend) for xQueueGenericSend
    parameters.o(.text._Z26VolatileParamGroupRegister5SNamettj) refers to parameters.o(.text._ZNSt3__16__treeINS_12__value_typeI5SNameP10ParamGroupEENS_19__map_value_compareIS2_S5_NS_4lessIS2_EELb1EEENS_9allocatorIS5_EEE25__emplace_unique_key_argsIS2_JNS_4pairIS2_P18VolatileParamGroupEEEEENSE_INS_15__tree_iteratorIS5_PNS_11__tree_nodeIS5_PvEEiEEbEERKT_DpOT0_) for std::__1::pair<std::__1::__tree_iterator<std::__1::__value_type<SName, ParamGroup*>, std::__1::__tree_node<std::__1::__value_type<SName, ParamGroup*>, void*>*, int>, bool> std::__1::__tree<std::__1::__value_type<SName, ParamGroup*>, std::__1::__map_value_compare<SName, std::__1::__value_type<SName, ParamGroup*>, std::__1::less<SName>, (bool)1>, std::__1::allocator<std::__1::__value_type<SName, ParamGroup*>>>::__emplace_unique_key_args<SName, <std::__1::pair<SName, VolatileParamGroup*>>>(const T1&, T2&&...)
    parameters.o(.ARM.exidx.text._Z26VolatileParamGroupRegister5SNamettj) refers to parameters.o(.text._Z26VolatileParamGroupRegister5SNamettj) for [Anonymous Symbol]
    parameters.o(.text._Z18ParamGroupRegister5SNametjPK14MAV_PARAM_TYPEPKS_PKy) refers to basic.o(.text._Z24LockInitializationStatusv) for LockInitializationStatus()
    parameters.o(.text._Z18ParamGroupRegister5SNametjPK14MAV_PARAM_TYPEPKS_PKy) refers to basic.o(.text._Z26getInitializationCompletedv) for getInitializationCompleted()
    parameters.o(.text._Z18ParamGroupRegister5SNametjPK14MAV_PARAM_TYPEPKS_PKy) refers to basic.o(.text._Z26UnLockInitializationStatusv) for UnLockInitializationStatus()
    parameters.o(.text._Z18ParamGroupRegister5SNametjPK14MAV_PARAM_TYPEPKS_PKy) refers to basic.o(.text._Znaj) for operator new[] (unsigned)
    parameters.o(.text._Z18ParamGroupRegister5SNametjPK14MAV_PARAM_TYPEPKS_PKy) refers to parameters.o(.text._ZN5SName11get_CharStrEPc) for SName::get_CharStr(char*)
    parameters.o(.text._Z18ParamGroupRegister5SNametjPK14MAV_PARAM_TYPEPKS_PKy) refers to parameters.o(.rodata.str1.1) for .L.str
    parameters.o(.text._Z18ParamGroupRegister5SNametjPK14MAV_PARAM_TYPEPKS_PKy) refers to internalstorage.o(.text._Z27InternalStorage_GetFileSizePKcS0_Pjd) for InternalStorage_GetFileSize(const char*, const char*, unsigned*, double)
    parameters.o(.text._Z18ParamGroupRegister5SNametjPK14MAV_PARAM_TYPEPKS_PKy) refers to internalstorage.o(.text._Z24InternalStorage_ReadFilePKcS0_PvPjjid) for InternalStorage_ReadFile(const char*, const char*, void*, unsigned*, unsigned, int, double)
    parameters.o(.text._Z18ParamGroupRegister5SNametjPK14MAV_PARAM_TYPEPKS_PKy) refers to parameters.o(.text._ZNK5SNameneERKS_) for SName::operator !=(const SName&) const
    parameters.o(.text._Z18ParamGroupRegister5SNametjPK14MAV_PARAM_TYPEPKS_PKy) refers to timebase.o(.text.Get_RTC_Time) for Get_RTC_Time
    parameters.o(.text._Z18ParamGroupRegister5SNametjPK14MAV_PARAM_TYPEPKS_PKy) refers to basic.o(.text._Znwj) for operator new(unsigned)
    parameters.o(.text._Z18ParamGroupRegister5SNametjPK14MAV_PARAM_TYPEPKS_PKy) refers to parameters.o(.text._ZN10ParamGroupC2Ev) for ParamGroup::ParamGroup__sub_object()
    parameters.o(.text._Z18ParamGroupRegister5SNametjPK14MAV_PARAM_TYPEPKS_PKy) refers to queue.o(.text.xQueueCreateMutex) for xQueueCreateMutex
    parameters.o(.text._Z18ParamGroupRegister5SNametjPK14MAV_PARAM_TYPEPKS_PKy) refers to parameters.o(.bss._ZL17ParamGroup_Semphr) for _ZL17ParamGroup_Semphr
    parameters.o(.text._Z18ParamGroupRegister5SNametjPK14MAV_PARAM_TYPEPKS_PKy) refers to queue.o(.text.xQueueSemaphoreTake) for xQueueSemaphoreTake
    parameters.o(.text._Z18ParamGroupRegister5SNametjPK14MAV_PARAM_TYPEPKS_PKy) refers to parameters.o(.bss._ZL11ParamGroups) for _ZL11ParamGroups
    parameters.o(.text._Z18ParamGroupRegister5SNametjPK14MAV_PARAM_TYPEPKS_PKy) refers to parameters.o(.text._ZNSt3__16__treeINS_12__value_typeI5SNameP10ParamGroupEENS_19__map_value_compareIS2_S5_NS_4lessIS2_EELb1EEENS_9allocatorIS5_EEE4findIS2_EENS_15__tree_iteratorIS5_PNS_11__tree_nodeIS5_PvEEiEERKT_) for std::__1::__tree_iterator<std::__1::__value_type<SName, ParamGroup*>, std::__1::__tree_node<std::__1::__value_type<SName, ParamGroup*>, void*>*, int> std::__1::__tree<std::__1::__value_type<SName, ParamGroup*>, std::__1::__map_value_compare<SName, std::__1::__value_type<SName, ParamGroup*>, std::__1::less<SName>, (bool)1>, std::__1::allocator<std::__1::__value_type<SName, ParamGroup*>>>::find<SName>(const T1&)
    parameters.o(.text._Z18ParamGroupRegister5SNametjPK14MAV_PARAM_TYPEPKS_PKy) refers to basic.o(.text._ZdaPv) for operator delete[] (void*)
    parameters.o(.text._Z18ParamGroupRegister5SNametjPK14MAV_PARAM_TYPEPKS_PKy) refers to basic.o(.text._ZdlPv) for operator delete (void*)
    parameters.o(.text._Z18ParamGroupRegister5SNametjPK14MAV_PARAM_TYPEPKS_PKy) refers to queue.o(.text.xQueueGenericSend) for xQueueGenericSend
    parameters.o(.text._Z18ParamGroupRegister5SNametjPK14MAV_PARAM_TYPEPKS_PKy) refers to parameters.o(.text._ZNSt3__16__treeINS_12__value_typeI5SNameP10ParamGroupEENS_19__map_value_compareIS2_S5_NS_4lessIS2_EELb1EEENS_9allocatorIS5_EEE25__emplace_unique_key_argsIS2_JNS_4pairIS2_S4_EEEEENSE_INS_15__tree_iteratorIS5_PNS_11__tree_nodeIS5_PvEEiEEbEERKT_DpOT0_) for std::__1::pair<std::__1::__tree_iterator<std::__1::__value_type<SName, ParamGroup*>, std::__1::__tree_node<std::__1::__value_type<SName, ParamGroup*>, void*>*, int>, bool> std::__1::__tree<std::__1::__value_type<SName, ParamGroup*>, std::__1::__map_value_compare<SName, std::__1::__value_type<SName, ParamGroup*>, std::__1::less<SName>, (bool)1>, std::__1::allocator<std::__1::__value_type<SName, ParamGroup*>>>::__emplace_unique_key_args<SName, <std::__1::pair<SName, ParamGroup*>>>(const T1&, T2&&...)
    parameters.o(.text._Z18ParamGroupRegister5SNametjPK14MAV_PARAM_TYPEPKS_PKy) refers to parameters.o(.bss._ZL13Params_Semphr) for _ZL13Params_Semphr
    parameters.o(.text._Z18ParamGroupRegister5SNametjPK14MAV_PARAM_TYPEPKS_PKy) refers to parameters.o(.bss._ZL15ParametersCount) for _ZL15ParametersCount
    parameters.o(.text._Z18ParamGroupRegister5SNametjPK14MAV_PARAM_TYPEPKS_PKy) refers to parameters.o(.bss._ZL15GroupParameters) for _ZL15GroupParameters
    parameters.o(.text._Z18ParamGroupRegister5SNametjPK14MAV_PARAM_TYPEPKS_PKy) refers to parameters.o(.text._ZNSt3__16__treeINS_12__value_typeI5SName5ParamEENS_19__map_value_compareIS2_S4_NS_4lessIS2_EELb1EEENS_9allocatorIS4_EEE25__emplace_unique_key_argsIS2_JNS_4pairIS2_S3_EEEEENSD_INS_15__tree_iteratorIS4_PNS_11__tree_nodeIS4_PvEEiEEbEERKT_DpOT0_) for std::__1::pair<std::__1::__tree_iterator<std::__1::__value_type<SName, Param>, std::__1::__tree_node<std::__1::__value_type<SName, Param>, void*>*, int>, bool> std::__1::__tree<std::__1::__value_type<SName, Param>, std::__1::__map_value_compare<SName, std::__1::__value_type<SName, Param>, std::__1::less<SName>, (bool)1>, std::__1::allocator<std::__1::__value_type<SName, Param>>>::__emplace_unique_key_args<SName, <std::__1::pair<SName, Param>>>(const T1&, T2&&...)
    parameters.o(.ARM.exidx.text._Z18ParamGroupRegister5SNametjPK14MAV_PARAM_TYPEPKS_PKy) refers to parameters.o(.text._Z18ParamGroupRegister5SNametjPK14MAV_PARAM_TYPEPKS_PKy) for [Anonymous Symbol]
    parameters.o(.text._Z18ParamGroupRegister5SNametjPKS_) refers to basic.o(.text._Z24LockInitializationStatusv) for LockInitializationStatus()
    parameters.o(.text._Z18ParamGroupRegister5SNametjPKS_) refers to basic.o(.text._Z26getInitializationCompletedv) for getInitializationCompleted()
    parameters.o(.text._Z18ParamGroupRegister5SNametjPKS_) refers to basic.o(.text._Z26UnLockInitializationStatusv) for UnLockInitializationStatus()
    parameters.o(.text._Z18ParamGroupRegister5SNametjPKS_) refers to basic.o(.text._Znaj) for operator new[] (unsigned)
    parameters.o(.text._Z18ParamGroupRegister5SNametjPKS_) refers to parameters.o(.text._ZN5SName11get_CharStrEPc) for SName::get_CharStr(char*)
    parameters.o(.text._Z18ParamGroupRegister5SNametjPKS_) refers to parameters.o(.rodata.str1.1) for .L.str
    parameters.o(.text._Z18ParamGroupRegister5SNametjPKS_) refers to internalstorage.o(.text._Z27InternalStorage_GetFileSizePKcS0_Pjd) for InternalStorage_GetFileSize(const char*, const char*, unsigned*, double)
    parameters.o(.text._Z18ParamGroupRegister5SNametjPKS_) refers to internalstorage.o(.text._Z24InternalStorage_ReadFilePKcS0_PvPjjid) for InternalStorage_ReadFile(const char*, const char*, void*, unsigned*, unsigned, int, double)
    parameters.o(.text._Z18ParamGroupRegister5SNametjPKS_) refers to basic.o(.text._ZdaPv) for operator delete[] (void*)
    parameters.o(.text._Z18ParamGroupRegister5SNametjPKS_) refers to basic.o(.text._Znwj) for operator new(unsigned)
    parameters.o(.text._Z18ParamGroupRegister5SNametjPKS_) refers to parameters.o(.text._ZN10ParamGroupC2Ev) for ParamGroup::ParamGroup__sub_object()
    parameters.o(.text._Z18ParamGroupRegister5SNametjPKS_) refers to queue.o(.text.xQueueCreateMutex) for xQueueCreateMutex
    parameters.o(.text._Z18ParamGroupRegister5SNametjPKS_) refers to parameters.o(.bss._ZL17ParamGroup_Semphr) for _ZL17ParamGroup_Semphr
    parameters.o(.text._Z18ParamGroupRegister5SNametjPKS_) refers to queue.o(.text.xQueueSemaphoreTake) for xQueueSemaphoreTake
    parameters.o(.text._Z18ParamGroupRegister5SNametjPKS_) refers to parameters.o(.bss._ZL11ParamGroups) for _ZL11ParamGroups
    parameters.o(.text._Z18ParamGroupRegister5SNametjPKS_) refers to parameters.o(.text._ZNSt3__16__treeINS_12__value_typeI5SNameP10ParamGroupEENS_19__map_value_compareIS2_S5_NS_4lessIS2_EELb1EEENS_9allocatorIS5_EEE4findIS2_EENS_15__tree_iteratorIS5_PNS_11__tree_nodeIS5_PvEEiEERKT_) for std::__1::__tree_iterator<std::__1::__value_type<SName, ParamGroup*>, std::__1::__tree_node<std::__1::__value_type<SName, ParamGroup*>, void*>*, int> std::__1::__tree<std::__1::__value_type<SName, ParamGroup*>, std::__1::__map_value_compare<SName, std::__1::__value_type<SName, ParamGroup*>, std::__1::less<SName>, (bool)1>, std::__1::allocator<std::__1::__value_type<SName, ParamGroup*>>>::find<SName>(const T1&)
    parameters.o(.text._Z18ParamGroupRegister5SNametjPKS_) refers to queue.o(.text.xQueueGenericSend) for xQueueGenericSend
    parameters.o(.text._Z18ParamGroupRegister5SNametjPKS_) refers to parameters.o(.text._ZNSt3__16__treeINS_12__value_typeI5SNameP10ParamGroupEENS_19__map_value_compareIS2_S5_NS_4lessIS2_EELb1EEENS_9allocatorIS5_EEE25__emplace_unique_key_argsIS2_JNS_4pairIS2_S4_EEEEENSE_INS_15__tree_iteratorIS5_PNS_11__tree_nodeIS5_PvEEiEEbEERKT_DpOT0_) for std::__1::pair<std::__1::__tree_iterator<std::__1::__value_type<SName, ParamGroup*>, std::__1::__tree_node<std::__1::__value_type<SName, ParamGroup*>, void*>*, int>, bool> std::__1::__tree<std::__1::__value_type<SName, ParamGroup*>, std::__1::__map_value_compare<SName, std::__1::__value_type<SName, ParamGroup*>, std::__1::less<SName>, (bool)1>, std::__1::allocator<std::__1::__value_type<SName, ParamGroup*>>>::__emplace_unique_key_args<SName, <std::__1::pair<SName, ParamGroup*>>>(const T1&, T2&&...)
    parameters.o(.text._Z18ParamGroupRegister5SNametjPKS_) refers to parameters.o(.bss._ZL13Params_Semphr) for _ZL13Params_Semphr
    parameters.o(.text._Z18ParamGroupRegister5SNametjPKS_) refers to parameters.o(.bss._ZL15ParametersCount) for _ZL15ParametersCount
    parameters.o(.text._Z18ParamGroupRegister5SNametjPKS_) refers to parameters.o(.bss._ZL15GroupParameters) for _ZL15GroupParameters
    parameters.o(.text._Z18ParamGroupRegister5SNametjPKS_) refers to parameters.o(.text._ZNSt3__16__treeINS_12__value_typeI5SName5ParamEENS_19__map_value_compareIS2_S4_NS_4lessIS2_EELb1EEENS_9allocatorIS4_EEE25__emplace_unique_key_argsIS2_JNS_4pairIS2_S3_EEEEENSD_INS_15__tree_iteratorIS4_PNS_11__tree_nodeIS4_PvEEiEEbEERKT_DpOT0_) for std::__1::pair<std::__1::__tree_iterator<std::__1::__value_type<SName, Param>, std::__1::__tree_node<std::__1::__value_type<SName, Param>, void*>*, int>, bool> std::__1::__tree<std::__1::__value_type<SName, Param>, std::__1::__map_value_compare<SName, std::__1::__value_type<SName, Param>, std::__1::less<SName>, (bool)1>, std::__1::allocator<std::__1::__value_type<SName, Param>>>::__emplace_unique_key_args<SName, <std::__1::pair<SName, Param>>>(const T1&, T2&&...)
    parameters.o(.ARM.exidx.text._Z18ParamGroupRegister5SNametjPKS_) refers to parameters.o(.text._Z18ParamGroupRegister5SNametjPKS_) for [Anonymous Symbol]
    parameters.o(.text.__cxx_global_var_init.2) refers to queue.o(.text.xQueueCreateMutex) for xQueueCreateMutex
    parameters.o(.text.__cxx_global_var_init.2) refers to parameters.o(.bss._ZL19Parameters_it_Mutex) for _ZL19Parameters_it_Mutex
    parameters.o(.ARM.exidx.text.__cxx_global_var_init.2) refers to parameters.o(.text.__cxx_global_var_init.2) for [Anonymous Symbol]
    parameters.o(.text.__cxx_global_var_init.3) refers to parameters.o(.bss._ZL15GroupParameters) for _ZL15GroupParameters
    parameters.o(.text.__cxx_global_var_init.3) refers to parameters.o(.bss._ZL13Parameters_it) for _ZL13Parameters_it
    parameters.o(.ARM.exidx.text.__cxx_global_var_init.3) refers to parameters.o(.text.__cxx_global_var_init.3) for [Anonymous Symbol]
    parameters.o(.text._Z18GetParametersCountPj) refers to basic.o(.text._Z26getInitializationCompletedv) for getInitializationCompleted()
    parameters.o(.text._Z18GetParametersCountPj) refers to parameters.o(.bss._ZL15ParametersCount) for _ZL15ParametersCount
    parameters.o(.ARM.exidx.text._Z18GetParametersCountPj) refers to parameters.o(.text._Z18GetParametersCountPj) for [Anonymous Symbol]
    parameters.o(.text._Z23ResetParametersIteratorv) refers to basic.o(.text._Z26getInitializationCompletedv) for getInitializationCompleted()
    parameters.o(.text._Z23ResetParametersIteratorv) refers to parameters.o(.bss._ZL19Parameters_it_Mutex) for _ZL19Parameters_it_Mutex
    parameters.o(.text._Z23ResetParametersIteratorv) refers to queue.o(.text.xQueueSemaphoreTake) for xQueueSemaphoreTake
    parameters.o(.text._Z23ResetParametersIteratorv) refers to parameters.o(.bss._ZL15GroupParameters) for _ZL15GroupParameters
    parameters.o(.text._Z23ResetParametersIteratorv) refers to parameters.o(.bss._ZL13Parameters_it) for _ZL13Parameters_it
    parameters.o(.text._Z23ResetParametersIteratorv) refers to queue.o(.text.xQueueGenericSend) for xQueueGenericSend
    parameters.o(.ARM.exidx.text._Z23ResetParametersIteratorv) refers to parameters.o(.text._Z23ResetParametersIteratorv) for [Anonymous Symbol]
    parameters.o(.text._Z25ParameterIteratorMoveNextv) refers to basic.o(.text._Z26getInitializationCompletedv) for getInitializationCompleted()
    parameters.o(.text._Z25ParameterIteratorMoveNextv) refers to parameters.o(.bss._ZL19Parameters_it_Mutex) for _ZL19Parameters_it_Mutex
    parameters.o(.text._Z25ParameterIteratorMoveNextv) refers to queue.o(.text.xQueueSemaphoreTake) for xQueueSemaphoreTake
    parameters.o(.text._Z25ParameterIteratorMoveNextv) refers to parameters.o(.bss._ZL15GroupParameters) for _ZL15GroupParameters
    parameters.o(.text._Z25ParameterIteratorMoveNextv) refers to parameters.o(.bss._ZL13Parameters_it) for _ZL13Parameters_it
    parameters.o(.text._Z25ParameterIteratorMoveNextv) refers to queue.o(.text.xQueueGenericSend) for xQueueGenericSend
    parameters.o(.ARM.exidx.text._Z25ParameterIteratorMoveNextv) refers to parameters.o(.text._Z25ParameterIteratorMoveNextv) for [Anonymous Symbol]
    parameters.o(.text._Z20ReadCurrentParameterP5SNamePjP14MAV_PARAM_TYPEPyPbd) refers to basic.o(.text._Z26getInitializationCompletedv) for getInitializationCompleted()
    parameters.o(.text._Z20ReadCurrentParameterP5SNamePjP14MAV_PARAM_TYPEPyPbd) refers to parameters.o(.bss._ZL19Parameters_it_Mutex) for _ZL19Parameters_it_Mutex
    parameters.o(.text._Z20ReadCurrentParameterP5SNamePjP14MAV_PARAM_TYPEPyPbd) refers to queue.o(.text.xQueueSemaphoreTake) for xQueueSemaphoreTake
    parameters.o(.text._Z20ReadCurrentParameterP5SNamePjP14MAV_PARAM_TYPEPyPbd) refers to parameters.o(.bss._ZL15GroupParameters) for _ZL15GroupParameters
    parameters.o(.text._Z20ReadCurrentParameterP5SNamePjP14MAV_PARAM_TYPEPyPbd) refers to parameters.o(.bss._ZL13Parameters_it) for _ZL13Parameters_it
    parameters.o(.text._Z20ReadCurrentParameterP5SNamePjP14MAV_PARAM_TYPEPyPbd) refers to queue.o(.text.xQueueGenericSend) for xQueueGenericSend
    parameters.o(.ARM.exidx.text._Z20ReadCurrentParameterP5SNamePjP14MAV_PARAM_TYPEPyPbd) refers to parameters.o(.text._Z20ReadCurrentParameterP5SNamePjP14MAV_PARAM_TYPEPyPbd) for [Anonymous Symbol]
    parameters.o(.text._Z9ReadParam5SNamePjP14MAV_PARAM_TYPEPyPbd) refers to basic.o(.text._Z26getInitializationCompletedv) for getInitializationCompleted()
    parameters.o(.text._Z9ReadParam5SNamePjP14MAV_PARAM_TYPEPyPbd) refers to parameters.o(.bss._ZL15GroupParameters) for _ZL15GroupParameters
    parameters.o(.text._Z9ReadParam5SNamePjP14MAV_PARAM_TYPEPyPbd) refers to parameters.o(.text._ZNSt3__16__treeINS_12__value_typeI5SName5ParamEENS_19__map_value_compareIS2_S4_NS_4lessIS2_EELb1EEENS_9allocatorIS4_EEE4findIS2_EENS_15__tree_iteratorIS4_PNS_11__tree_nodeIS4_PvEEiEERKT_) for std::__1::__tree_iterator<std::__1::__value_type<SName, Param>, std::__1::__tree_node<std::__1::__value_type<SName, Param>, void*>*, int> std::__1::__tree<std::__1::__value_type<SName, Param>, std::__1::__map_value_compare<SName, std::__1::__value_type<SName, Param>, std::__1::less<SName>, (bool)1>, std::__1::allocator<std::__1::__value_type<SName, Param>>>::find<SName>(const T1&)
    parameters.o(.text._Z9ReadParam5SNamePjP14MAV_PARAM_TYPEPyPbd) refers to queue.o(.text.xQueueSemaphoreTake) for xQueueSemaphoreTake
    parameters.o(.text._Z9ReadParam5SNamePjP14MAV_PARAM_TYPEPyPbd) refers to queue.o(.text.xQueueGenericSend) for xQueueGenericSend
    parameters.o(.ARM.exidx.text._Z9ReadParam5SNamePjP14MAV_PARAM_TYPEPyPbd) refers to parameters.o(.text._Z9ReadParam5SNamePjP14MAV_PARAM_TYPEPyPbd) for [Anonymous Symbol]
    parameters.o(.text._Z9ReadParamjP5SNameP14MAV_PARAM_TYPEPyPbd) refers to basic.o(.text._Z26getInitializationCompletedv) for getInitializationCompleted()
    parameters.o(.text._Z9ReadParamjP5SNameP14MAV_PARAM_TYPEPyPbd) refers to parameters.o(.bss._ZL15ParametersCount) for _ZL15ParametersCount
    parameters.o(.text._Z9ReadParamjP5SNameP14MAV_PARAM_TYPEPyPbd) refers to parameters.o(.bss._ZL15GroupParameters) for _ZL15GroupParameters
    parameters.o(.text._Z9ReadParamjP5SNameP14MAV_PARAM_TYPEPyPbd) refers to queue.o(.text.xQueueSemaphoreTake) for xQueueSemaphoreTake
    parameters.o(.text._Z9ReadParamjP5SNameP14MAV_PARAM_TYPEPyPbd) refers to queue.o(.text.xQueueGenericSend) for xQueueGenericSend
    parameters.o(.ARM.exidx.text._Z9ReadParamjP5SNameP14MAV_PARAM_TYPEPyPbd) refers to parameters.o(.text._Z9ReadParamjP5SNameP14MAV_PARAM_TYPEPyPbd) for [Anonymous Symbol]
    parameters.o(.text._Z14ReadParamGroup5SNamePyPbd) refers to basic.o(.text._Z26getInitializationCompletedv) for getInitializationCompleted()
    parameters.o(.text._Z14ReadParamGroup5SNamePyPbd) refers to parameters.o(.bss._ZL17ParamGroup_Semphr) for _ZL17ParamGroup_Semphr
    parameters.o(.text._Z14ReadParamGroup5SNamePyPbd) refers to queue.o(.text.xQueueSemaphoreTake) for xQueueSemaphoreTake
    parameters.o(.text._Z14ReadParamGroup5SNamePyPbd) refers to parameters.o(.bss._ZL11ParamGroups) for _ZL11ParamGroups
    parameters.o(.text._Z14ReadParamGroup5SNamePyPbd) refers to parameters.o(.text._ZNSt3__16__treeINS_12__value_typeI5SNameP10ParamGroupEENS_19__map_value_compareIS2_S5_NS_4lessIS2_EELb1EEENS_9allocatorIS5_EEE4findIS2_EENS_15__tree_iteratorIS5_PNS_11__tree_nodeIS5_PvEEiEERKT_) for std::__1::__tree_iterator<std::__1::__value_type<SName, ParamGroup*>, std::__1::__tree_node<std::__1::__value_type<SName, ParamGroup*>, void*>*, int> std::__1::__tree<std::__1::__value_type<SName, ParamGroup*>, std::__1::__map_value_compare<SName, std::__1::__value_type<SName, ParamGroup*>, std::__1::less<SName>, (bool)1>, std::__1::allocator<std::__1::__value_type<SName, ParamGroup*>>>::find<SName>(const T1&)
    parameters.o(.text._Z14ReadParamGroup5SNamePyPbd) refers to queue.o(.text.xQueueGenericSend) for xQueueGenericSend
    parameters.o(.ARM.exidx.text._Z14ReadParamGroup5SNamePyPbd) refers to parameters.o(.text._Z14ReadParamGroup5SNamePyPbd) for [Anonymous Symbol]
    parameters.o(.text._Z14ReadParamGroup5SNamePyPbttd) refers to basic.o(.text._Z26getInitializationCompletedv) for getInitializationCompleted()
    parameters.o(.text._Z14ReadParamGroup5SNamePyPbttd) refers to parameters.o(.bss._ZL17ParamGroup_Semphr) for _ZL17ParamGroup_Semphr
    parameters.o(.text._Z14ReadParamGroup5SNamePyPbttd) refers to queue.o(.text.xQueueSemaphoreTake) for xQueueSemaphoreTake
    parameters.o(.text._Z14ReadParamGroup5SNamePyPbttd) refers to parameters.o(.bss._ZL11ParamGroups) for _ZL11ParamGroups
    parameters.o(.text._Z14ReadParamGroup5SNamePyPbttd) refers to parameters.o(.text._ZNSt3__16__treeINS_12__value_typeI5SNameP10ParamGroupEENS_19__map_value_compareIS2_S5_NS_4lessIS2_EELb1EEENS_9allocatorIS5_EEE4findIS2_EENS_15__tree_iteratorIS5_PNS_11__tree_nodeIS5_PvEEiEERKT_) for std::__1::__tree_iterator<std::__1::__value_type<SName, ParamGroup*>, std::__1::__tree_node<std::__1::__value_type<SName, ParamGroup*>, void*>*, int> std::__1::__tree<std::__1::__value_type<SName, ParamGroup*>, std::__1::__map_value_compare<SName, std::__1::__value_type<SName, ParamGroup*>, std::__1::less<SName>, (bool)1>, std::__1::allocator<std::__1::__value_type<SName, ParamGroup*>>>::find<SName>(const T1&)
    parameters.o(.text._Z14ReadParamGroup5SNamePyPbttd) refers to queue.o(.text.xQueueGenericSend) for xQueueGenericSend
    parameters.o(.ARM.exidx.text._Z14ReadParamGroup5SNamePyPbttd) refers to parameters.o(.text._Z14ReadParamGroup5SNamePyPbttd) for [Anonymous Symbol]
    parameters.o(.text._Z31GetVolatileParamGroupParamCount5SNamePtd) refers to basic.o(.text._Z26getInitializationCompletedv) for getInitializationCompleted()
    parameters.o(.text._Z31GetVolatileParamGroupParamCount5SNamePtd) refers to parameters.o(.bss._ZL17ParamGroup_Semphr) for _ZL17ParamGroup_Semphr
    parameters.o(.text._Z31GetVolatileParamGroupParamCount5SNamePtd) refers to queue.o(.text.xQueueSemaphoreTake) for xQueueSemaphoreTake
    parameters.o(.text._Z31GetVolatileParamGroupParamCount5SNamePtd) refers to parameters.o(.bss._ZL11ParamGroups) for _ZL11ParamGroups
    parameters.o(.text._Z31GetVolatileParamGroupParamCount5SNamePtd) refers to parameters.o(.text._ZNSt3__16__treeINS_12__value_typeI5SNameP10ParamGroupEENS_19__map_value_compareIS2_S5_NS_4lessIS2_EELb1EEENS_9allocatorIS5_EEE4findIS2_EENS_15__tree_iteratorIS5_PNS_11__tree_nodeIS5_PvEEiEERKT_) for std::__1::__tree_iterator<std::__1::__value_type<SName, ParamGroup*>, std::__1::__tree_node<std::__1::__value_type<SName, ParamGroup*>, void*>*, int> std::__1::__tree<std::__1::__value_type<SName, ParamGroup*>, std::__1::__map_value_compare<SName, std::__1::__value_type<SName, ParamGroup*>, std::__1::less<SName>, (bool)1>, std::__1::allocator<std::__1::__value_type<SName, ParamGroup*>>>::find<SName>(const T1&)
    parameters.o(.text._Z31GetVolatileParamGroupParamCount5SNamePtd) refers to queue.o(.text.xQueueGenericSend) for xQueueGenericSend
    parameters.o(.ARM.exidx.text._Z31GetVolatileParamGroupParamCount5SNamePtd) refers to parameters.o(.text._Z31GetVolatileParamGroupParamCount5SNamePtd) for [Anonymous Symbol]
    parameters.o(.text._Z22ReadVolatileParamGroup5SNamePvttd) refers to basic.o(.text._Z26getInitializationCompletedv) for getInitializationCompleted()
    parameters.o(.text._Z22ReadVolatileParamGroup5SNamePvttd) refers to parameters.o(.bss._ZL17ParamGroup_Semphr) for _ZL17ParamGroup_Semphr
    parameters.o(.text._Z22ReadVolatileParamGroup5SNamePvttd) refers to queue.o(.text.xQueueSemaphoreTake) for xQueueSemaphoreTake
    parameters.o(.text._Z22ReadVolatileParamGroup5SNamePvttd) refers to parameters.o(.bss._ZL11ParamGroups) for _ZL11ParamGroups
    parameters.o(.text._Z22ReadVolatileParamGroup5SNamePvttd) refers to parameters.o(.text._ZNSt3__16__treeINS_12__value_typeI5SNameP10ParamGroupEENS_19__map_value_compareIS2_S5_NS_4lessIS2_EELb1EEENS_9allocatorIS5_EEE4findIS2_EENS_15__tree_iteratorIS5_PNS_11__tree_nodeIS5_PvEEiEERKT_) for std::__1::__tree_iterator<std::__1::__value_type<SName, ParamGroup*>, std::__1::__tree_node<std::__1::__value_type<SName, ParamGroup*>, void*>*, int> std::__1::__tree<std::__1::__value_type<SName, ParamGroup*>, std::__1::__map_value_compare<SName, std::__1::__value_type<SName, ParamGroup*>, std::__1::less<SName>, (bool)1>, std::__1::allocator<std::__1::__value_type<SName, ParamGroup*>>>::find<SName>(const T1&)
    parameters.o(.text._Z22ReadVolatileParamGroup5SNamePvttd) refers to queue.o(.text.xQueueGenericSend) for xQueueGenericSend
    parameters.o(.text._Z22ReadVolatileParamGroup5SNamePvttd) refers to parameters.o(.text._ZN5SName11get_CharStrEPc) for SName::get_CharStr(char*)
    parameters.o(.text._Z22ReadVolatileParamGroup5SNamePvttd) refers to parameters.o(.rodata.str1.1) for .L.str
    parameters.o(.text._Z22ReadVolatileParamGroup5SNamePvttd) refers to internalstorage.o(.text._Z25InternalStorage_WriteFilePKcS0_PKvjjd) for InternalStorage_WriteFile(const char*, const char*, const void*, unsigned, unsigned, double)
    parameters.o(.text._Z22ReadVolatileParamGroup5SNamePvttd) refers to basic.o(.text._Znaj) for operator new[] (unsigned)
    parameters.o(.text._Z22ReadVolatileParamGroup5SNamePvttd) refers to internalstorage.o(.text._Z24InternalStorage_ReadFilePKcS0_PvPjjid) for InternalStorage_ReadFile(const char*, const char*, void*, unsigned*, unsigned, int, double)
    parameters.o(.text._Z22ReadVolatileParamGroup5SNamePvttd) refers to rt_memcpy_v6.o(.text) for __aeabi_memcpy
    parameters.o(.text._Z22ReadVolatileParamGroup5SNamePvttd) refers to basic.o(.text._ZdaPv) for operator delete[] (void*)
    parameters.o(.ARM.exidx.text._Z22ReadVolatileParamGroup5SNamePvttd) refers to parameters.o(.text._Z22ReadVolatileParamGroup5SNamePvttd) for [Anonymous Symbol]
    parameters.o(.text._Z22SaveVolatileParamGroup5SNamed) refers to basic.o(.text._Z26getInitializationCompletedv) for getInitializationCompleted()
    parameters.o(.text._Z22SaveVolatileParamGroup5SNamed) refers to parameters.o(.bss._ZL17ParamGroup_Semphr) for _ZL17ParamGroup_Semphr
    parameters.o(.text._Z22SaveVolatileParamGroup5SNamed) refers to queue.o(.text.xQueueSemaphoreTake) for xQueueSemaphoreTake
    parameters.o(.text._Z22SaveVolatileParamGroup5SNamed) refers to parameters.o(.bss._ZL11ParamGroups) for _ZL11ParamGroups
    parameters.o(.text._Z22SaveVolatileParamGroup5SNamed) refers to parameters.o(.text._ZNSt3__16__treeINS_12__value_typeI5SNameP10ParamGroupEENS_19__map_value_compareIS2_S5_NS_4lessIS2_EELb1EEENS_9allocatorIS5_EEE4findIS2_EENS_15__tree_iteratorIS5_PNS_11__tree_nodeIS5_PvEEiEERKT_) for std::__1::__tree_iterator<std::__1::__value_type<SName, ParamGroup*>, std::__1::__tree_node<std::__1::__value_type<SName, ParamGroup*>, void*>*, int> std::__1::__tree<std::__1::__value_type<SName, ParamGroup*>, std::__1::__map_value_compare<SName, std::__1::__value_type<SName, ParamGroup*>, std::__1::less<SName>, (bool)1>, std::__1::allocator<std::__1::__value_type<SName, ParamGroup*>>>::find<SName>(const T1&)
    parameters.o(.text._Z22SaveVolatileParamGroup5SNamed) refers to queue.o(.text.xQueueGenericSend) for xQueueGenericSend
    parameters.o(.text._Z22SaveVolatileParamGroup5SNamed) refers to parameters.o(.text._ZN5SName11get_CharStrEPc) for SName::get_CharStr(char*)
    parameters.o(.text._Z22SaveVolatileParamGroup5SNamed) refers to parameters.o(.rodata.str1.1) for .L.str
    parameters.o(.text._Z22SaveVolatileParamGroup5SNamed) refers to internalstorage.o(.text._Z25InternalStorage_WriteFilePKcS0_PKvjjd) for InternalStorage_WriteFile(const char*, const char*, const void*, unsigned, unsigned, double)
    parameters.o(.ARM.exidx.text._Z22SaveVolatileParamGroup5SNamed) refers to parameters.o(.text._Z22SaveVolatileParamGroup5SNamed) for [Anonymous Symbol]
    parameters.o(.text._Z26TruncateVolatileParamGroup5SNametd) refers to basic.o(.text._Z26getInitializationCompletedv) for getInitializationCompleted()
    parameters.o(.text._Z26TruncateVolatileParamGroup5SNametd) refers to parameters.o(.bss._ZL17ParamGroup_Semphr) for _ZL17ParamGroup_Semphr
    parameters.o(.text._Z26TruncateVolatileParamGroup5SNametd) refers to queue.o(.text.xQueueSemaphoreTake) for xQueueSemaphoreTake
    parameters.o(.text._Z26TruncateVolatileParamGroup5SNametd) refers to parameters.o(.bss._ZL11ParamGroups) for _ZL11ParamGroups
    parameters.o(.text._Z26TruncateVolatileParamGroup5SNametd) refers to parameters.o(.text._ZNSt3__16__treeINS_12__value_typeI5SNameP10ParamGroupEENS_19__map_value_compareIS2_S5_NS_4lessIS2_EELb1EEENS_9allocatorIS5_EEE4findIS2_EENS_15__tree_iteratorIS5_PNS_11__tree_nodeIS5_PvEEiEERKT_) for std::__1::__tree_iterator<std::__1::__value_type<SName, ParamGroup*>, std::__1::__tree_node<std::__1::__value_type<SName, ParamGroup*>, void*>*, int> std::__1::__tree<std::__1::__value_type<SName, ParamGroup*>, std::__1::__map_value_compare<SName, std::__1::__value_type<SName, ParamGroup*>, std::__1::less<SName>, (bool)1>, std::__1::allocator<std::__1::__value_type<SName, ParamGroup*>>>::find<SName>(const T1&)
    parameters.o(.text._Z26TruncateVolatileParamGroup5SNametd) refers to queue.o(.text.xQueueGenericSend) for xQueueGenericSend
    parameters.o(.text._Z26TruncateVolatileParamGroup5SNametd) refers to parameters.o(.text._ZN5SName11get_CharStrEPc) for SName::get_CharStr(char*)
    parameters.o(.text._Z26TruncateVolatileParamGroup5SNametd) refers to parameters.o(.rodata.str1.1) for .L.str
    parameters.o(.text._Z26TruncateVolatileParamGroup5SNametd) refers to internalstorage.o(.text._Z28InternalStorage_TruncateFilePKcS0_jd) for InternalStorage_TruncateFile(const char*, const char*, unsigned, double)
    parameters.o(.ARM.exidx.text._Z26TruncateVolatileParamGroup5SNametd) refers to parameters.o(.text._Z26TruncateVolatileParamGroup5SNametd) for [Anonymous Symbol]
    parameters.o(.text._Z23WriteVolatileParamGroup5SNamePKvttbd) refers to basic.o(.text._Z26getInitializationCompletedv) for getInitializationCompleted()
    parameters.o(.text._Z23WriteVolatileParamGroup5SNamePKvttbd) refers to parameters.o(.bss._ZL17ParamGroup_Semphr) for _ZL17ParamGroup_Semphr
    parameters.o(.text._Z23WriteVolatileParamGroup5SNamePKvttbd) refers to queue.o(.text.xQueueSemaphoreTake) for xQueueSemaphoreTake
    parameters.o(.text._Z23WriteVolatileParamGroup5SNamePKvttbd) refers to parameters.o(.bss._ZL11ParamGroups) for _ZL11ParamGroups
    parameters.o(.text._Z23WriteVolatileParamGroup5SNamePKvttbd) refers to parameters.o(.text._ZNSt3__16__treeINS_12__value_typeI5SNameP10ParamGroupEENS_19__map_value_compareIS2_S5_NS_4lessIS2_EELb1EEENS_9allocatorIS5_EEE4findIS2_EENS_15__tree_iteratorIS5_PNS_11__tree_nodeIS5_PvEEiEERKT_) for std::__1::__tree_iterator<std::__1::__value_type<SName, ParamGroup*>, std::__1::__tree_node<std::__1::__value_type<SName, ParamGroup*>, void*>*, int> std::__1::__tree<std::__1::__value_type<SName, ParamGroup*>, std::__1::__map_value_compare<SName, std::__1::__value_type<SName, ParamGroup*>, std::__1::less<SName>, (bool)1>, std::__1::allocator<std::__1::__value_type<SName, ParamGroup*>>>::find<SName>(const T1&)
    parameters.o(.text._Z23WriteVolatileParamGroup5SNamePKvttbd) refers to queue.o(.text.xQueueGenericSend) for xQueueGenericSend
    parameters.o(.text._Z23WriteVolatileParamGroup5SNamePKvttbd) refers to parameters.o(.text._ZN5SName11get_CharStrEPc) for SName::get_CharStr(char*)
    parameters.o(.text._Z23WriteVolatileParamGroup5SNamePKvttbd) refers to parameters.o(.rodata.str1.1) for .L.str
    parameters.o(.text._Z23WriteVolatileParamGroup5SNamePKvttbd) refers to internalstorage.o(.text._Z25InternalStorage_WriteFilePKcS0_PKvjjd) for InternalStorage_WriteFile(const char*, const char*, const void*, unsigned, unsigned, double)
    parameters.o(.text._Z23WriteVolatileParamGroup5SNamePKvttbd) refers to basic.o(.text._Znaj) for operator new[] (unsigned)
    parameters.o(.text._Z23WriteVolatileParamGroup5SNamePKvttbd) refers to internalstorage.o(.text._Z24InternalStorage_ReadFilePKcS0_PvPjjid) for InternalStorage_ReadFile(const char*, const char*, void*, unsigned*, unsigned, int, double)
    parameters.o(.text._Z23WriteVolatileParamGroup5SNamePKvttbd) refers to rt_memcpy_v6.o(.text) for __aeabi_memcpy
    parameters.o(.text._Z23WriteVolatileParamGroup5SNamePKvttbd) refers to basic.o(.text._ZdaPv) for operator delete[] (void*)
    parameters.o(.ARM.exidx.text._Z23WriteVolatileParamGroup5SNamePKvttbd) refers to parameters.o(.text._Z23WriteVolatileParamGroup5SNamePKvttbd) for [Anonymous Symbol]
    parameters.o(.text._Z16UpdateParamGroup5SNamePKyttbd) refers to basic.o(.text._Z26getInitializationCompletedv) for getInitializationCompleted()
    parameters.o(.text._Z16UpdateParamGroup5SNamePKyttbd) refers to parameters.o(.bss._ZL17ParamGroup_Semphr) for _ZL17ParamGroup_Semphr
    parameters.o(.text._Z16UpdateParamGroup5SNamePKyttbd) refers to queue.o(.text.xQueueSemaphoreTake) for xQueueSemaphoreTake
    parameters.o(.text._Z16UpdateParamGroup5SNamePKyttbd) refers to parameters.o(.bss._ZL11ParamGroups) for _ZL11ParamGroups
    parameters.o(.text._Z16UpdateParamGroup5SNamePKyttbd) refers to parameters.o(.text._ZNSt3__16__treeINS_12__value_typeI5SNameP10ParamGroupEENS_19__map_value_compareIS2_S5_NS_4lessIS2_EELb1EEENS_9allocatorIS5_EEE4findIS2_EENS_15__tree_iteratorIS5_PNS_11__tree_nodeIS5_PvEEiEERKT_) for std::__1::__tree_iterator<std::__1::__value_type<SName, ParamGroup*>, std::__1::__tree_node<std::__1::__value_type<SName, ParamGroup*>, void*>*, int> std::__1::__tree<std::__1::__value_type<SName, ParamGroup*>, std::__1::__map_value_compare<SName, std::__1::__value_type<SName, ParamGroup*>, std::__1::less<SName>, (bool)1>, std::__1::allocator<std::__1::__value_type<SName, ParamGroup*>>>::find<SName>(const T1&)
    parameters.o(.text._Z16UpdateParamGroup5SNamePKyttbd) refers to queue.o(.text.xQueueGenericSend) for xQueueGenericSend
    parameters.o(.text._Z16UpdateParamGroup5SNamePKyttbd) refers to parameters.o(.bss._ZL13Params_Semphr) for _ZL13Params_Semphr
    parameters.o(.text._Z16UpdateParamGroup5SNamePKyttbd) refers to parameters.o(.text._ZN5SName11get_CharStrEPc) for SName::get_CharStr(char*)
    parameters.o(.text._Z16UpdateParamGroup5SNamePKyttbd) refers to parameters.o(.rodata.str1.1) for .L.str
    parameters.o(.text._Z16UpdateParamGroup5SNamePKyttbd) refers to internalstorage.o(.text._Z24InternalStorage_SaveFilePKcS0_PKvjd) for InternalStorage_SaveFile(const char*, const char*, const void*, unsigned, double)
    parameters.o(.ARM.exidx.text._Z16UpdateParamGroup5SNamePKyttbd) refers to parameters.o(.text._Z16UpdateParamGroup5SNamePKyttbd) for [Anonymous Symbol]
    parameters.o(.text._Z14SaveParamGroup5SNamed) refers to basic.o(.text._Z26getInitializationCompletedv) for getInitializationCompleted()
    parameters.o(.text._Z14SaveParamGroup5SNamed) refers to parameters.o(.bss._ZL17ParamGroup_Semphr) for _ZL17ParamGroup_Semphr
    parameters.o(.text._Z14SaveParamGroup5SNamed) refers to queue.o(.text.xQueueSemaphoreTake) for xQueueSemaphoreTake
    parameters.o(.text._Z14SaveParamGroup5SNamed) refers to parameters.o(.bss._ZL11ParamGroups) for _ZL11ParamGroups
    parameters.o(.text._Z14SaveParamGroup5SNamed) refers to parameters.o(.text._ZNSt3__16__treeINS_12__value_typeI5SNameP10ParamGroupEENS_19__map_value_compareIS2_S5_NS_4lessIS2_EELb1EEENS_9allocatorIS5_EEE4findIS2_EENS_15__tree_iteratorIS5_PNS_11__tree_nodeIS5_PvEEiEERKT_) for std::__1::__tree_iterator<std::__1::__value_type<SName, ParamGroup*>, std::__1::__tree_node<std::__1::__value_type<SName, ParamGroup*>, void*>*, int> std::__1::__tree<std::__1::__value_type<SName, ParamGroup*>, std::__1::__map_value_compare<SName, std::__1::__value_type<SName, ParamGroup*>, std::__1::less<SName>, (bool)1>, std::__1::allocator<std::__1::__value_type<SName, ParamGroup*>>>::find<SName>(const T1&)
    parameters.o(.text._Z14SaveParamGroup5SNamed) refers to queue.o(.text.xQueueGenericSend) for xQueueGenericSend
    parameters.o(.text._Z14SaveParamGroup5SNamed) refers to parameters.o(.bss._ZL13Params_Semphr) for _ZL13Params_Semphr
    parameters.o(.text._Z14SaveParamGroup5SNamed) refers to parameters.o(.text._ZN5SName11get_CharStrEPc) for SName::get_CharStr(char*)
    parameters.o(.text._Z14SaveParamGroup5SNamed) refers to parameters.o(.rodata.str1.1) for .L.str
    parameters.o(.text._Z14SaveParamGroup5SNamed) refers to internalstorage.o(.text._Z24InternalStorage_SaveFilePKcS0_PKvjd) for InternalStorage_SaveFile(const char*, const char*, const void*, unsigned, double)
    parameters.o(.ARM.exidx.text._Z14SaveParamGroup5SNamed) refers to parameters.o(.text._Z14SaveParamGroup5SNamed) for [Anonymous Symbol]
    parameters.o(.text._Z11UpdateParam5SNameyd) refers to basic.o(.text._Z26getInitializationCompletedv) for getInitializationCompleted()
    parameters.o(.text._Z11UpdateParam5SNameyd) refers to parameters.o(.bss._ZL15GroupParameters) for _ZL15GroupParameters
    parameters.o(.text._Z11UpdateParam5SNameyd) refers to parameters.o(.text._ZNSt3__16__treeINS_12__value_typeI5SName5ParamEENS_19__map_value_compareIS2_S4_NS_4lessIS2_EELb1EEENS_9allocatorIS4_EEE4findIS2_EENS_15__tree_iteratorIS4_PNS_11__tree_nodeIS4_PvEEiEERKT_) for std::__1::__tree_iterator<std::__1::__value_type<SName, Param>, std::__1::__tree_node<std::__1::__value_type<SName, Param>, void*>*, int> std::__1::__tree<std::__1::__value_type<SName, Param>, std::__1::__map_value_compare<SName, std::__1::__value_type<SName, Param>, std::__1::less<SName>, (bool)1>, std::__1::allocator<std::__1::__value_type<SName, Param>>>::find<SName>(const T1&)
    parameters.o(.text._Z11UpdateParam5SNameyd) refers to parameters.o(.bss._ZL13Params_Semphr) for _ZL13Params_Semphr
    parameters.o(.text._Z11UpdateParam5SNameyd) refers to queue.o(.text.xQueueSemaphoreTake) for xQueueSemaphoreTake
    parameters.o(.text._Z11UpdateParam5SNameyd) refers to queue.o(.text.xQueueGenericSend) for xQueueGenericSend
    parameters.o(.text._Z11UpdateParam5SNameyd) refers to parameters.o(.text._ZN5SName11get_CharStrEPc) for SName::get_CharStr(char*)
    parameters.o(.text._Z11UpdateParam5SNameyd) refers to parameters.o(.rodata.str1.1) for .L.str
    parameters.o(.text._Z11UpdateParam5SNameyd) refers to internalstorage.o(.text._Z24InternalStorage_SaveFilePKcS0_PKvjd) for InternalStorage_SaveFile(const char*, const char*, const void*, unsigned, double)
    parameters.o(.ARM.exidx.text._Z11UpdateParam5SNameyd) refers to parameters.o(.text._Z11UpdateParam5SNameyd) for [Anonymous Symbol]
    parameters.o(.text._Z15init_Parametersv) refers to queue.o(.text.xQueueCreateMutex) for xQueueCreateMutex
    parameters.o(.text._Z15init_Parametersv) refers to parameters.o(.bss._ZL17ParamGroup_Semphr) for _ZL17ParamGroup_Semphr
    parameters.o(.text._Z15init_Parametersv) refers to parameters.o(.bss._ZL13Params_Semphr) for _ZL13Params_Semphr
    parameters.o(.ARM.exidx.text._Z15init_Parametersv) refers to parameters.o(.text._Z15init_Parametersv) for [Anonymous Symbol]
    parameters.o(.text._GLOBAL__sub_I_Parameters.cpp) refers to parameters.o(.text.__cxx_global_var_init) for __cxx_global_var_init
    parameters.o(.text._GLOBAL__sub_I_Parameters.cpp) refers to parameters.o(.text.__cxx_global_var_init.1) for __cxx_global_var_init.1
    parameters.o(.text._GLOBAL__sub_I_Parameters.cpp) refers to parameters.o(.text.__cxx_global_var_init.2) for __cxx_global_var_init.2
    parameters.o(.text._GLOBAL__sub_I_Parameters.cpp) refers to parameters.o(.text.__cxx_global_var_init.3) for __cxx_global_var_init.3
    parameters.o(.ARM.exidx.text._GLOBAL__sub_I_Parameters.cpp) refers to parameters.o(.text._GLOBAL__sub_I_Parameters.cpp) for [Anonymous Symbol]
    parameters.o(.init_array) refers to parameters.o(.text._GLOBAL__sub_I_Parameters.cpp) for _GLOBAL__sub_I_Parameters.cpp
    gui.o(.text.__cxx_global_var_init) refers to event_groups.o(.text.xEventGroupCreate) for xEventGroupCreate
    gui.o(.text.__cxx_global_var_init) refers to gui.o(.bss._ZL9TC_events) for _ZL9TC_events
    gui.o(.ARM.exidx.text.__cxx_global_var_init) refers to gui.o(.text.__cxx_global_var_init) for [Anonymous Symbol]
    gui.o(.text.DMA2D_IRQHandler) refers to gui.o(.bss._ZL9TC_events) for _ZL9TC_events
    gui.o(.text.DMA2D_IRQHandler) refers to event_groups.o(.text.vEventGroupSetBitsCallback) for vEventGroupSetBitsCallback
    gui.o(.text.DMA2D_IRQHandler) refers to timers.o(.text.xTimerPendFunctionCallFromISR) for xTimerPendFunctionCallFromISR
    gui.o(.ARM.exidx.text.DMA2D_IRQHandler) refers to gui.o(.text.DMA2D_IRQHandler) for [Anonymous Symbol]
    gui.o(.text._Z8init_GUIv) refers to main.o(.text.os_delay) for os_delay
    gui.o(.text._Z8init_GUIv) refers to gui.o(.text._ZL18__NVIC_SetPriority9IRQn_Typej) for _ZL18__NVIC_SetPriority9IRQn_Typej
    gui.o(.text._Z8init_GUIv) refers to gui.o(.text._ZL16__NVIC_EnableIRQ9IRQn_Type) for _ZL16__NVIC_EnableIRQ9IRQn_Type
    gui.o(.text._Z8init_GUIv) refers to gui.o(.text._ZL10GUI_ServerPv) for _ZL10GUI_ServerPv
    gui.o(.text._Z8init_GUIv) refers to gui.o(.rodata.str1.1) for .L.str
    gui.o(.text._Z8init_GUIv) refers to tasks.o(.text.xTaskCreate) for xTaskCreate
    gui.o(.ARM.exidx.text._Z8init_GUIv) refers to gui.o(.text._Z8init_GUIv) for [Anonymous Symbol]
    gui.o(.ARM.exidx.text._ZL18__NVIC_SetPriority9IRQn_Typej) refers to gui.o(.text._ZL18__NVIC_SetPriority9IRQn_Typej) for [Anonymous Symbol]
    gui.o(.ARM.exidx.text._ZL16__NVIC_EnableIRQ9IRQn_Type) refers to gui.o(.text._ZL16__NVIC_EnableIRQ9IRQn_Type) for [Anonymous Symbol]
    gui.o(.text._ZL10GUI_ServerPv) refers to gui.o(.SRAM1) for _ZL9ImgBuffer
    gui.o(.text._ZL10GUI_ServerPv) refers to gui_images.o(.RES_IROM) for gImage_BG1
    gui.o(.text._ZL10GUI_ServerPv) refers to gui.o(.text._ZL21ImageFormatConversionPv9ImgFormattS_ttS0_tsb) for _ZL21ImageFormatConversionPv9ImgFormattS_ttS0_tsb
    gui.o(.text._ZL10GUI_ServerPv) refers to gui.o(.rodata.str1.1) for .L.str.1
    gui.o(.text._ZL10GUI_ServerPv) refers to gui.o(.text._ZL13DrawFont32x16PKcttt) for _ZL13DrawFont32x16PKcttt
    gui.o(.text._ZL10GUI_ServerPv) refers to gui.o(.text._ZL13DrawFont24x12PKcttt) for _ZL13DrawFont24x12PKcttt
    gui.o(.text._ZL10GUI_ServerPv) refers to drv_oled.o(.text._Z16LCD_WritePicturettttPvd) for LCD_WritePicture(unsigned short, unsigned short, unsigned short, unsigned short, void*, double)
    gui.o(.text._ZL10GUI_ServerPv) refers to tasks.o(.text.xTaskGetTickCount) for xTaskGetTickCount
    gui.o(.text._ZL10GUI_ServerPv) refers to gui.o(.text._ZL12ImageOverlayPv9ImgFormattS_S_ttS0_tS0_tsbs) for _ZL12ImageOverlayPv9ImgFormattS_S_ttS0_tS0_tsbs
    gui.o(.text._ZL10GUI_ServerPv) refers to tasks.o(.text.vTaskDelayUntil) for vTaskDelayUntil
    gui.o(.text._ZL10GUI_ServerPv) refers to main.o(.text.os_delay) for os_delay
    gui.o(.text._ZL10GUI_ServerPv) refers to gui.o(.text._ZL9ImageFillPv9ImgFormattjtt) for _ZL9ImageFillPv9ImgFormattjtt
    gui.o(.text._ZL10GUI_ServerPv) refers to gui.o(.text._ZL12DrawFont16x8PKcttt) for _ZL12DrawFont16x8PKcttt
    gui.o(.text._ZL10GUI_ServerPv) refers to sdstorage.o(.text._ZN7vector3IdEC2Ev) for vector3<double>::vector3__sub_object()
    gui.o(.text._ZL10GUI_ServerPv) refers to sdstorage.o(.text._ZN10QuaternionC2Ev) for Quaternion::Quaternion__sub_object()
    gui.o(.text._ZL10GUI_ServerPv) refers to ms_attitude.o(.text._Z18get_AirframeY_quatP10Quaterniond) for get_AirframeY_quat(Quaternion*, double)
    gui.o(.text._ZL10GUI_ServerPv) refers to sdstorage.o(.text._ZNK10Quaternion7getRollEv) for Quaternion::getRoll() const
    gui.o(.text._ZL10GUI_ServerPv) refers to sdstorage.o(.text._Z10rad2degreed) for rad2degree(double)
    gui.o(.text._ZL10GUI_ServerPv) refers to sprintf.o(.text) for sprintf
    gui.o(.text._ZL10GUI_ServerPv) refers to sdstorage.o(.text._ZNK10Quaternion8getPitchEv) for Quaternion::getPitch() const
    gui.o(.text._ZL10GUI_ServerPv) refers to sdstorage.o(.text._ZNK10Quaternion6getYawEv) for Quaternion::getYaw() const
    gui.o(.text._ZL10GUI_ServerPv) refers to ms_position.o(.text._Z20get_VelocityENU_CtrlP7vector3IdEd) for get_VelocityENU_Ctrl(vector3<double>*, double)
    gui.o(.text._ZL10GUI_ServerPv) refers to gui.o(.text._ZN19PosSensorHealthInf1C2Ev) for PosSensorHealthInf1::PosSensorHealthInf1__sub_object()
    gui.o(.text._ZL10GUI_ServerPv) refers to ms_position.o(.text._Z12get_Health_ZP19PosSensorHealthInf1d) for get_Health_Z(PosSensorHealthInf1*, double)
    gui.o(.text._ZL10GUI_ServerPv) refers to gui.o(.text._ZN19PosSensorHealthInf2C2Ev) for PosSensorHealthInf2::PosSensorHealthInf2__sub_object()
    gui.o(.text._ZL10GUI_ServerPv) refers to ms_position.o(.text._Z13get_Health_XYP19PosSensorHealthInf2d) for get_Health_XY(PosSensorHealthInf2*, double)
    gui.o(.text._ZL10GUI_ServerPv) refers to gui.o(.text._ZNK7vector2IdEmiERKS0_) for vector2<double>::operator -(const vector2<double>&) const
    gui.o(.text._ZL10GUI_ServerPv) refers to gui.o(.text._ZNK7vector2IdE10get_squareEv) for vector2<double>::get_square() const
    gui.o(.text._ZL10GUI_ServerPv) refers to gui.o(.text._Z9safe_sqrtd) for safe_sqrt(double)
    gui.o(.text._ZL10GUI_ServerPv) refers to gui.o(.text._ZN8ReceiverC2Ev) for Receiver::Receiver__sub_object()
    gui.o(.text._ZL10GUI_ServerPv) refers to receiver.o(.text._Z11getReceiverP8ReceiverP5SNamed) for getReceiver(Receiver*, SName*, double)
    gui.o(.text._ZL10GUI_ServerPv) refers to gui.o(.text._ZN10IMU_SensorC2Ev) for IMU_Sensor::IMU_Sensor__sub_object()
    gui.o(.text._ZL10GUI_ServerPv) refers to sensors.o(.text._Z15GetMagnetometerhP10IMU_Sensord) for GetMagnetometer(unsigned char, IMU_Sensor*, double)
    gui.o(.text._ZL10GUI_ServerPv) refers to gui.o(.text._ZN15Position_SensorC2Ev) for Position_Sensor::Position_Sensor__sub_object()
    gui.o(.text._ZL10GUI_ServerPv) refers to sensors.o(.text._Z17GetPositionSensorhP15Position_Sensord) for GetPositionSensor(unsigned char, Position_Sensor*, double)
    gui.o(.ARM.exidx.text._ZL10GUI_ServerPv) refers to gui.o(.text._ZL10GUI_ServerPv) for [Anonymous Symbol]
    gui.o(.text._ZL21ImageFormatConversionPv9ImgFormattS_ttS0_tsb) refers to gui.o(.bss._ZL9TC_events) for _ZL9TC_events
    gui.o(.text._ZL21ImageFormatConversionPv9ImgFormattS_ttS0_tsb) refers to event_groups.o(.text.xEventGroupWaitBits) for xEventGroupWaitBits
    gui.o(.ARM.exidx.text._ZL21ImageFormatConversionPv9ImgFormattS_ttS0_tsb) refers to gui.o(.text._ZL21ImageFormatConversionPv9ImgFormattS_ttS0_tsb) for [Anonymous Symbol]
    gui.o(.text._ZL13DrawFont32x16PKcttt) refers to font.o(.RES_IROM) for Font_32x16
    gui.o(.text._ZL13DrawFont32x16PKcttt) refers to gui.o(.SRAM1) for _ZL9ImgBuffer
    gui.o(.ARM.exidx.text._ZL13DrawFont32x16PKcttt) refers to gui.o(.text._ZL13DrawFont32x16PKcttt) for [Anonymous Symbol]
    gui.o(.text._ZL13DrawFont24x12PKcttt) refers to font.o(.RES_IROM) for Font_24x12
    gui.o(.text._ZL13DrawFont24x12PKcttt) refers to gui.o(.SRAM1) for _ZL9ImgBuffer
    gui.o(.ARM.exidx.text._ZL13DrawFont24x12PKcttt) refers to gui.o(.text._ZL13DrawFont24x12PKcttt) for [Anonymous Symbol]
    gui.o(.text._ZL12ImageOverlayPv9ImgFormattS_S_ttS0_tS0_tsbs) refers to gui.o(.bss._ZL9TC_events) for _ZL9TC_events
    gui.o(.text._ZL12ImageOverlayPv9ImgFormattS_S_ttS0_tS0_tsbs) refers to event_groups.o(.text.xEventGroupWaitBits) for xEventGroupWaitBits
    gui.o(.ARM.exidx.text._ZL12ImageOverlayPv9ImgFormattS_S_ttS0_tS0_tsbs) refers to gui.o(.text._ZL12ImageOverlayPv9ImgFormattS_S_ttS0_tS0_tsbs) for [Anonymous Symbol]
    gui.o(.text._ZL9ImageFillPv9ImgFormattjtt) refers to gui.o(.bss._ZL9TC_events) for _ZL9TC_events
    gui.o(.text._ZL9ImageFillPv9ImgFormattjtt) refers to event_groups.o(.text.xEventGroupWaitBits) for xEventGroupWaitBits
    gui.o(.ARM.exidx.text._ZL9ImageFillPv9ImgFormattjtt) refers to gui.o(.text._ZL9ImageFillPv9ImgFormattjtt) for [Anonymous Symbol]
    gui.o(.text._ZL12DrawFont16x8PKcttt) refers to font.o(.RES_IROM) for Font_16x8
    gui.o(.text._ZL12DrawFont16x8PKcttt) refers to gui.o(.SRAM1) for _ZL9ImgBuffer
    gui.o(.ARM.exidx.text._ZL12DrawFont16x8PKcttt) refers to gui.o(.text._ZL12DrawFont16x8PKcttt) for [Anonymous Symbol]
    gui.o(.text._GLOBAL__sub_I_GUI.cpp) refers to gui.o(.text.__cxx_global_var_init) for __cxx_global_var_init
    gui.o(.ARM.exidx.text._GLOBAL__sub_I_GUI.cpp) refers to gui.o(.text._GLOBAL__sub_I_GUI.cpp) for [Anonymous Symbol]
    gui.o(.init_array) refers to gui.o(.text._GLOBAL__sub_I_GUI.cpp) for _GLOBAL__sub_I_GUI.cpp
    missions.o(.text.__cxx_global_var_init) refers to queue.o(.text.xQueueCreateMutex) for xQueueCreateMutex
    missions.o(.text.__cxx_global_var_init) refers to missions.o(.bss._ZL14MissionsSemphr) for _ZL14MissionsSemphr
    missions.o(.ARM.exidx.text.__cxx_global_var_init) refers to missions.o(.text.__cxx_global_var_init) for [Anonymous Symbol]
    missions.o(.text._Z17setCurrentMissiont) refers to missions.o(.bss._ZL13MissionsCount) for _ZL13MissionsCount
    missions.o(.text._Z17setCurrentMissiont) refers to missions.o(.bss._ZL14CurrentMission) for _ZL14CurrentMission
    missions.o(.ARM.exidx.text._Z17setCurrentMissiont) refers to missions.o(.text._Z17setCurrentMissiont) for [Anonymous Symbol]
    missions.o(.text._Z20getCurrentMissionIndv) refers to missions.o(.bss._ZL14CurrentMission) for _ZL14CurrentMission
    missions.o(.ARM.exidx.text._Z20getCurrentMissionIndv) refers to missions.o(.text._Z20getCurrentMissionIndv) for [Anonymous Symbol]
    missions.o(.text._Z16getMissionsCountv) refers to missions.o(.bss._ZL13MissionsCount) for _ZL13MissionsCount
    missions.o(.ARM.exidx.text._Z16getMissionsCountv) refers to missions.o(.text._Z16getMissionsCountv) for [Anonymous Symbol]
    missions.o(.text._Z25getUploadingMissionsCountv) refers to missions.o(.bss._ZL22UploadingMissionsCount) for _ZL22UploadingMissionsCount
    missions.o(.ARM.exidx.text._Z25getUploadingMissionsCountv) refers to missions.o(.text._Z25getUploadingMissionsCountv) for [Anonymous Symbol]
    missions.o(.text._Z13clearMissionsd) refers to missions.o(.text._ZL13Lock_Missionsd) for _ZL13Lock_Missionsd
    missions.o(.text._Z13clearMissionsd) refers to missions.o(.rodata.str1.1) for .L.str
    missions.o(.text._Z13clearMissionsd) refers to ms_attitude.o(.text._ZN5SNameC2EPKc) for SName::SName__sub_object(const char*)
    missions.o(.text._Z13clearMissionsd) refers to parameters.o(.text._Z26TruncateVolatileParamGroup5SNametd) for TruncateVolatileParamGroup(SName, unsigned short, double)
    missions.o(.text._Z13clearMissionsd) refers to missions.o(.bss._ZL22UploadingMissionsCount) for _ZL22UploadingMissionsCount
    missions.o(.text._Z13clearMissionsd) refers to missions.o(.bss._ZL13MissionsCount) for _ZL13MissionsCount
    missions.o(.text._Z13clearMissionsd) refers to missions.o(.bss._ZL14CurrentMission) for _ZL14CurrentMission
    missions.o(.text._Z13clearMissionsd) refers to missions.o(.text._ZL15UnLock_Missionsv) for _ZL15UnLock_Missionsv
    missions.o(.text._Z13clearMissionsd) refers to parameters.o(.text._Z16UpdateParamGroup5SNamePKyttbd) for UpdateParamGroup(SName, const unsigned long long*, unsigned short, unsigned short, bool, double)
    missions.o(.ARM.exidx.text._Z13clearMissionsd) refers to missions.o(.text._Z13clearMissionsd) for [Anonymous Symbol]
    missions.o(.text._ZL13Lock_Missionsd) refers to missions.o(.bss._ZL14MissionsSemphr) for _ZL14MissionsSemphr
    missions.o(.text._ZL13Lock_Missionsd) refers to queue.o(.text.xQueueSemaphoreTake) for xQueueSemaphoreTake
    missions.o(.ARM.exidx.text._ZL13Lock_Missionsd) refers to missions.o(.text._ZL13Lock_Missionsd) for [Anonymous Symbol]
    missions.o(.text._ZL15UnLock_Missionsv) refers to missions.o(.bss._ZL14MissionsSemphr) for _ZL14MissionsSemphr
    missions.o(.text._ZL15UnLock_Missionsv) refers to queue.o(.text.xQueueGenericSend) for xQueueGenericSend
    missions.o(.ARM.exidx.text._ZL15UnLock_Missionsv) refers to missions.o(.text._ZL15UnLock_Missionsv) for [Anonymous Symbol]
    missions.o(.text._Z10addMission10MissionInfbd) refers to missions.o(.bss._ZL13MissionsCount) for _ZL13MissionsCount
    missions.o(.text._Z10addMission10MissionInfbd) refers to missions.o(.bss._ZL22UploadingMissionsCount) for _ZL22UploadingMissionsCount
    missions.o(.text._Z10addMission10MissionInfbd) refers to missions.o(.text._ZL13Lock_Missionsd) for _ZL13Lock_Missionsd
    missions.o(.text._Z10addMission10MissionInfbd) refers to missions.o(.rodata.str1.1) for .L.str
    missions.o(.text._Z10addMission10MissionInfbd) refers to ms_attitude.o(.text._ZN5SNameC2EPKc) for SName::SName__sub_object(const char*)
    missions.o(.text._Z10addMission10MissionInfbd) refers to parameters.o(.text._Z23WriteVolatileParamGroup5SNamePKvttbd) for WriteVolatileParamGroup(SName, const void*, unsigned short, unsigned short, bool, double)
    missions.o(.text._Z10addMission10MissionInfbd) refers to missions.o(.text._ZL15UnLock_Missionsv) for _ZL15UnLock_Missionsv
    missions.o(.ARM.exidx.text._Z10addMission10MissionInfbd) refers to missions.o(.text._Z10addMission10MissionInfbd) for [Anonymous Symbol]
    missions.o(.text._Z12saveMissionsd) refers to missions.o(.bss._ZL22UploadingMissionsCount) for _ZL22UploadingMissionsCount
    missions.o(.text._Z12saveMissionsd) refers to missions.o(.text._ZL13Lock_Missionsd) for _ZL13Lock_Missionsd
    missions.o(.text._Z12saveMissionsd) refers to missions.o(.rodata.str1.1) for .L.str
    missions.o(.text._Z12saveMissionsd) refers to ms_attitude.o(.text._ZN5SNameC2EPKc) for SName::SName__sub_object(const char*)
    missions.o(.text._Z12saveMissionsd) refers to parameters.o(.text._Z22SaveVolatileParamGroup5SNamed) for SaveVolatileParamGroup(SName, double)
    missions.o(.text._Z12saveMissionsd) refers to missions.o(.bss._ZL13MissionsCount) for _ZL13MissionsCount
    missions.o(.text._Z12saveMissionsd) refers to missions.o(.text._ZL15UnLock_Missionsv) for _ZL15UnLock_Missionsv
    missions.o(.ARM.exidx.text._Z12saveMissionsd) refers to missions.o(.text._Z12saveMissionsd) for [Anonymous Symbol]
    missions.o(.text._Z11ReadMissiontP10MissionInfd) refers to missions.o(.bss._ZL13MissionsCount) for _ZL13MissionsCount
    missions.o(.text._Z11ReadMissiontP10MissionInfd) refers to missions.o(.rodata.str1.1) for .L.str
    missions.o(.text._Z11ReadMissiontP10MissionInfd) refers to ms_attitude.o(.text._ZN5SNameC2EPKc) for SName::SName__sub_object(const char*)
    missions.o(.text._Z11ReadMissiontP10MissionInfd) refers to parameters.o(.text._Z22ReadVolatileParamGroup5SNamePvttd) for ReadVolatileParamGroup(SName, void*, unsigned short, unsigned short, double)
    missions.o(.ARM.exidx.text._Z11ReadMissiontP10MissionInfd) refers to missions.o(.text._Z11ReadMissiontP10MissionInfd) for [Anonymous Symbol]
    missions.o(.text._Z18ReadCurrentMissionP10MissionInfPtd) refers to missions.o(.bss._ZL13MissionsCount) for _ZL13MissionsCount
    missions.o(.text._Z18ReadCurrentMissionP10MissionInfPtd) refers to missions.o(.bss._ZL14CurrentMission) for _ZL14CurrentMission
    missions.o(.text._Z18ReadCurrentMissionP10MissionInfPtd) refers to missions.o(.rodata.str1.1) for .L.str
    missions.o(.text._Z18ReadCurrentMissionP10MissionInfPtd) refers to ms_attitude.o(.text._ZN5SNameC2EPKc) for SName::SName__sub_object(const char*)
    missions.o(.text._Z18ReadCurrentMissionP10MissionInfPtd) refers to parameters.o(.text._Z22ReadVolatileParamGroup5SNamePvttd) for ReadVolatileParamGroup(SName, void*, unsigned short, unsigned short, double)
    missions.o(.ARM.exidx.text._Z18ReadCurrentMissionP10MissionInfPtd) refers to missions.o(.text._Z18ReadCurrentMissionP10MissionInfPtd) for [Anonymous Symbol]
    missions.o(.text._Z13init_Missionsv) refers to missions.o(.bss._ZL22UploadingMissionsCount) for _ZL22UploadingMissionsCount
    missions.o(.text._Z13init_Missionsv) refers to missions.o(.bss._ZL13MissionsCount) for _ZL13MissionsCount
    missions.o(.text._Z13init_Missionsv) refers to missions.o(.rodata.str1.1) for .L.str
    missions.o(.text._Z13init_Missionsv) refers to ms_attitude.o(.text._ZN5SNameC2EPKc) for SName::SName__sub_object(const char*)
    missions.o(.text._Z13init_Missionsv) refers to parameters.o(.text._Z26VolatileParamGroupRegister5SNamettj) for VolatileParamGroupRegister(SName, unsigned short, unsigned short, unsigned)
    missions.o(.text._Z13init_Missionsv) refers to parameters.o(.text._Z31GetVolatileParamGroupParamCount5SNamePtd) for GetVolatileParamGroupParamCount(SName, unsigned short*, double)
    missions.o(.text._Z13init_Missionsv) refers to parameters.o(.text._Z14ReadParamGroup5SNamePyPbd) for ReadParamGroup(SName, unsigned long long*, bool*, double)
    missions.o(.text._Z13init_Missionsv) refers to missions.o(.text._Z17setCurrentMissiont) for setCurrentMission(unsigned short)
    missions.o(.ARM.exidx.text._Z13init_Missionsv) refers to missions.o(.text._Z13init_Missionsv) for [Anonymous Symbol]
    missions.o(.text._GLOBAL__sub_I_Missions.cpp) refers to missions.o(.text.__cxx_global_var_init) for __cxx_global_var_init
    missions.o(.ARM.exidx.text._GLOBAL__sub_I_Missions.cpp) refers to missions.o(.text._GLOBAL__sub_I_Missions.cpp) for [Anonymous Symbol]
    missions.o(.init_array) refers to missions.o(.text._GLOBAL__sub_I_Missions.cpp) for _GLOBAL__sub_I_Missions.cpp
    startup_stm32h743xx.o(STACK) refers (Special) to heapauxi.o(.text) for __use_two_region_memory
    startup_stm32h743xx.o(HEAP) refers (Special) to heapauxi.o(.text) for __use_two_region_memory
    startup_stm32h743xx.o(RESET) refers (Special) to heapauxi.o(.text) for __use_two_region_memory
    startup_stm32h743xx.o(RESET) refers to startup_stm32h743xx.o(STACK) for __initial_sp
    startup_stm32h743xx.o(RESET) refers to startup_stm32h743xx.o(.text) for Reset_Handler
    startup_stm32h743xx.o(RESET) refers to main.o(.text.HardFault_Handler) for HardFault_Handler
    startup_stm32h743xx.o(RESET) refers to port.o(.text.SVC_Handler) for SVC_Handler
    startup_stm32h743xx.o(RESET) refers to port.o(.text.PendSV_Handler) for PendSV_Handler
    startup_stm32h743xx.o(RESET) refers to port.o(.text.SysTick_Handler) for SysTick_Handler
    startup_stm32h743xx.o(RESET) refers to drv_sensors.o(.text.DMA1_Stream1_IRQHandler) for DMA1_Stream1_IRQHandler
    startup_stm32h743xx.o(RESET) refers to drv_rcppm.o(.text.TIM1_CC_IRQHandler) for TIM1_CC_IRQHandler
    startup_stm32h743xx.o(RESET) refers to drv_adc.o(.text.TIM4_IRQHandler) for TIM4_IRQHandler
    startup_stm32h743xx.o(RESET) refers to drv_extiic.o(.text.I2C1_EV_IRQHandler) for I2C1_EV_IRQHandler
    startup_stm32h743xx.o(RESET) refers to drv_extiic.o(.text.I2C1_ER_IRQHandler) for I2C1_ER_IRQHandler
    startup_stm32h743xx.o(RESET) refers to drv_uart1.o(.text.USART1_IRQHandler) for USART1_IRQHandler
    startup_stm32h743xx.o(RESET) refers to drv_rcsbus.o(.text.USART2_IRQHandler) for USART2_IRQHandler
    startup_stm32h743xx.o(RESET) refers to drv_uart3.o(.text.USART3_IRQHandler) for USART3_IRQHandler
    startup_stm32h743xx.o(RESET) refers to drv_ultrasonic.o(.text.TIM8_BRK_TIM12_IRQHandler) for TIM8_BRK_TIM12_IRQHandler
    startup_stm32h743xx.o(RESET) refers to drv_sdmmc.o(.text.SDMMC1_IRQHandler) for SDMMC1_IRQHandler
    startup_stm32h743xx.o(RESET) refers to timebase.o(.text.TIM5_IRQHandler) for TIM5_IRQHandler
    startup_stm32h743xx.o(RESET) refers to drv_uart5.o(.text.UART5_IRQHandler) for UART5_IRQHandler
    startup_stm32h743xx.o(RESET) refers to drv_uart7.o(.text.UART7_IRQHandler) for UART7_IRQHandler
    startup_stm32h743xx.o(RESET) refers to drv_uart8.o(.text.UART8_IRQHandler) for UART8_IRQHandler
    startup_stm32h743xx.o(RESET) refers to drv_oled.o(.text.SPI4_IRQHandler) for SPI4_IRQHandler
    startup_stm32h743xx.o(RESET) refers to gui.o(.text.DMA2D_IRQHandler) for DMA2D_IRQHandler
    startup_stm32h743xx.o(RESET) refers to drv_flash.o(.text.QUADSPI_IRQHandler) for QUADSPI_IRQHandler
    startup_stm32h743xx.o(RESET) refers to drv_usb.o(.text.OTG_FS_IRQHandler) for OTG_FS_IRQHandler
    startup_stm32h743xx.o(RESET) refers to drv_sensors.o(.text.TIM16_IRQHandler) for TIM16_IRQHandler
    startup_stm32h743xx.o(RESET) refers to drv_sensors.o(.text.TIM17_IRQHandler) for TIM17_IRQHandler
    startup_stm32h743xx.o(.text) refers (Special) to heapauxi.o(.text) for __use_two_region_memory
    startup_stm32h743xx.o(.text) refers to system_stm32h7xx.o(.text.SystemInit) for SystemInit
    startup_stm32h743xx.o(.text) refers to __main.o(!!!main) for __main
    startup_stm32h743xx.o(.text) refers to startup_stm32h743xx.o(HEAP) for Heap_Mem
    startup_stm32h743xx.o(.text) refers to startup_stm32h743xx.o(STACK) for Stack_Mem
    system_stm32h7xx.o(.ARM.exidx.text.SystemInit) refers to system_stm32h7xx.o(.text.SystemInit) for [Anonymous Symbol]
    system_stm32h7xx.o(.text.SystemCoreClockUpdate) refers to system_stm32h7xx.o(.data.SystemCoreClock) for SystemCoreClock
    system_stm32h7xx.o(.text.SystemCoreClockUpdate) refers to system_stm32h7xx.o(.rodata.D1CorePrescTable) for D1CorePrescTable
    system_stm32h7xx.o(.text.SystemCoreClockUpdate) refers to system_stm32h7xx.o(.data.SystemD2Clock) for SystemD2Clock
    system_stm32h7xx.o(.ARM.exidx.text.SystemCoreClockUpdate) refers to system_stm32h7xx.o(.text.SystemCoreClockUpdate) for [Anonymous Symbol]
    stm32h7xx_hal.o(.text.HAL_Init) refers to stm32h7xx_hal_rcc.o(.text.HAL_RCC_GetSysClockFreq) for HAL_RCC_GetSysClockFreq
    stm32h7xx_hal.o(.text.HAL_Init) refers to system_stm32h7xx.o(.rodata.D1CorePrescTable) for D1CorePrescTable
    stm32h7xx_hal.o(.text.HAL_Init) refers to system_stm32h7xx.o(.data.SystemCoreClock) for SystemCoreClock
    stm32h7xx_hal.o(.text.HAL_Init) refers to system_stm32h7xx.o(.data.SystemD2Clock) for SystemD2Clock
    stm32h7xx_hal.o(.text.HAL_Init) refers to timebase.o(.text.HAL_InitTick) for HAL_InitTick
    stm32h7xx_hal.o(.text.HAL_Init) refers to stm32h7xx_hal_msp.o(.text.HAL_MspInit) for HAL_MspInit
    stm32h7xx_hal.o(.ARM.exidx.text.HAL_Init) refers to stm32h7xx_hal.o(.text.HAL_Init) for [Anonymous Symbol]
    stm32h7xx_hal.o(.text.HAL_InitTick) refers to stm32h7xx_hal.o(.data.uwTickFreq) for uwTickFreq
    stm32h7xx_hal.o(.text.HAL_InitTick) refers to system_stm32h7xx.o(.data.SystemCoreClock) for SystemCoreClock
    stm32h7xx_hal.o(.text.HAL_InitTick) refers to stm32h7xx_hal_cortex.o(.text.HAL_SYSTICK_Config) for HAL_SYSTICK_Config
    stm32h7xx_hal.o(.text.HAL_InitTick) refers to stm32h7xx_hal_cortex.o(.text.HAL_NVIC_SetPriority) for HAL_NVIC_SetPriority
    stm32h7xx_hal.o(.text.HAL_InitTick) refers to stm32h7xx_hal.o(.data.uwTickPrio) for uwTickPrio
    stm32h7xx_hal.o(.ARM.exidx.text.HAL_InitTick) refers to stm32h7xx_hal.o(.text.HAL_InitTick) for [Anonymous Symbol]
    stm32h7xx_hal.o(.ARM.exidx.text.HAL_MspInit) refers to stm32h7xx_hal.o(.text.HAL_MspInit) for [Anonymous Symbol]
    stm32h7xx_hal.o(.text.HAL_DeInit) refers to stm32h7xx_hal.o(.text.HAL_MspDeInit) for HAL_MspDeInit
    stm32h7xx_hal.o(.ARM.exidx.text.HAL_DeInit) refers to stm32h7xx_hal.o(.text.HAL_DeInit) for [Anonymous Symbol]
    stm32h7xx_hal.o(.ARM.exidx.text.HAL_MspDeInit) refers to stm32h7xx_hal.o(.text.HAL_MspDeInit) for [Anonymous Symbol]
    stm32h7xx_hal.o(.text.HAL_IncTick) refers to stm32h7xx_hal.o(.data.uwTickFreq) for uwTickFreq
    stm32h7xx_hal.o(.text.HAL_IncTick) refers to stm32h7xx_hal.o(.bss.uwTick) for uwTick
    stm32h7xx_hal.o(.ARM.exidx.text.HAL_IncTick) refers to stm32h7xx_hal.o(.text.HAL_IncTick) for [Anonymous Symbol]
    stm32h7xx_hal.o(.text.HAL_GetTick) refers to stm32h7xx_hal.o(.bss.uwTick) for uwTick
    stm32h7xx_hal.o(.ARM.exidx.text.HAL_GetTick) refers to stm32h7xx_hal.o(.text.HAL_GetTick) for [Anonymous Symbol]
    stm32h7xx_hal.o(.text.HAL_GetTickPrio) refers to stm32h7xx_hal.o(.data.uwTickPrio) for uwTickPrio
    stm32h7xx_hal.o(.ARM.exidx.text.HAL_GetTickPrio) refers to stm32h7xx_hal.o(.text.HAL_GetTickPrio) for [Anonymous Symbol]
    stm32h7xx_hal.o(.text.HAL_SetTickFreq) refers to stm32h7xx_hal.o(.data.uwTickFreq) for uwTickFreq
    stm32h7xx_hal.o(.text.HAL_SetTickFreq) refers to stm32h7xx_hal.o(.data.uwTickPrio) for uwTickPrio
    stm32h7xx_hal.o(.text.HAL_SetTickFreq) refers to timebase.o(.text.HAL_InitTick) for HAL_InitTick
    stm32h7xx_hal.o(.ARM.exidx.text.HAL_SetTickFreq) refers to stm32h7xx_hal.o(.text.HAL_SetTickFreq) for [Anonymous Symbol]
    stm32h7xx_hal.o(.text.HAL_GetTickFreq) refers to stm32h7xx_hal.o(.data.uwTickFreq) for uwTickFreq
    stm32h7xx_hal.o(.ARM.exidx.text.HAL_GetTickFreq) refers to stm32h7xx_hal.o(.text.HAL_GetTickFreq) for [Anonymous Symbol]
    stm32h7xx_hal.o(.text.HAL_Delay) refers to timebase.o(.text.HAL_GetTick) for HAL_GetTick
    stm32h7xx_hal.o(.text.HAL_Delay) refers to stm32h7xx_hal.o(.data.uwTickFreq) for uwTickFreq
    stm32h7xx_hal.o(.ARM.exidx.text.HAL_Delay) refers to stm32h7xx_hal.o(.text.HAL_Delay) for [Anonymous Symbol]
    stm32h7xx_hal.o(.ARM.exidx.text.HAL_SuspendTick) refers to stm32h7xx_hal.o(.text.HAL_SuspendTick) for [Anonymous Symbol]
    stm32h7xx_hal.o(.ARM.exidx.text.HAL_ResumeTick) refers to stm32h7xx_hal.o(.text.HAL_ResumeTick) for [Anonymous Symbol]
    stm32h7xx_hal.o(.ARM.exidx.text.HAL_GetHalVersion) refers to stm32h7xx_hal.o(.text.HAL_GetHalVersion) for [Anonymous Symbol]
    stm32h7xx_hal.o(.ARM.exidx.text.HAL_GetREVID) refers to stm32h7xx_hal.o(.text.HAL_GetREVID) for [Anonymous Symbol]
    stm32h7xx_hal.o(.ARM.exidx.text.HAL_GetDEVID) refers to stm32h7xx_hal.o(.text.HAL_GetDEVID) for [Anonymous Symbol]
    stm32h7xx_hal.o(.ARM.exidx.text.HAL_GetUIDw0) refers to stm32h7xx_hal.o(.text.HAL_GetUIDw0) for [Anonymous Symbol]
    stm32h7xx_hal.o(.ARM.exidx.text.HAL_GetUIDw1) refers to stm32h7xx_hal.o(.text.HAL_GetUIDw1) for [Anonymous Symbol]
    stm32h7xx_hal.o(.ARM.exidx.text.HAL_GetUIDw2) refers to stm32h7xx_hal.o(.text.HAL_GetUIDw2) for [Anonymous Symbol]
    stm32h7xx_hal.o(.ARM.exidx.text.HAL_SYSCFG_VREFBUF_VoltageScalingConfig) refers to stm32h7xx_hal.o(.text.HAL_SYSCFG_VREFBUF_VoltageScalingConfig) for [Anonymous Symbol]
    stm32h7xx_hal.o(.ARM.exidx.text.HAL_SYSCFG_VREFBUF_HighImpedanceConfig) refers to stm32h7xx_hal.o(.text.HAL_SYSCFG_VREFBUF_HighImpedanceConfig) for [Anonymous Symbol]
    stm32h7xx_hal.o(.ARM.exidx.text.HAL_SYSCFG_VREFBUF_TrimmingConfig) refers to stm32h7xx_hal.o(.text.HAL_SYSCFG_VREFBUF_TrimmingConfig) for [Anonymous Symbol]
    stm32h7xx_hal.o(.text.HAL_SYSCFG_EnableVREFBUF) refers to timebase.o(.text.HAL_GetTick) for HAL_GetTick
    stm32h7xx_hal.o(.ARM.exidx.text.HAL_SYSCFG_EnableVREFBUF) refers to stm32h7xx_hal.o(.text.HAL_SYSCFG_EnableVREFBUF) for [Anonymous Symbol]
    stm32h7xx_hal.o(.ARM.exidx.text.HAL_SYSCFG_DisableVREFBUF) refers to stm32h7xx_hal.o(.text.HAL_SYSCFG_DisableVREFBUF) for [Anonymous Symbol]
    stm32h7xx_hal.o(.ARM.exidx.text.HAL_SYSCFG_ETHInterfaceSelect) refers to stm32h7xx_hal.o(.text.HAL_SYSCFG_ETHInterfaceSelect) for [Anonymous Symbol]
    stm32h7xx_hal.o(.ARM.exidx.text.HAL_SYSCFG_AnalogSwitchConfig) refers to stm32h7xx_hal.o(.text.HAL_SYSCFG_AnalogSwitchConfig) for [Anonymous Symbol]
    stm32h7xx_hal.o(.ARM.exidx.text.HAL_SYSCFG_EnableBOOST) refers to stm32h7xx_hal.o(.text.HAL_SYSCFG_EnableBOOST) for [Anonymous Symbol]
    stm32h7xx_hal.o(.ARM.exidx.text.HAL_SYSCFG_DisableBOOST) refers to stm32h7xx_hal.o(.text.HAL_SYSCFG_DisableBOOST) for [Anonymous Symbol]
    stm32h7xx_hal.o(.ARM.exidx.text.HAL_SYSCFG_CM7BootAddConfig) refers to stm32h7xx_hal.o(.text.HAL_SYSCFG_CM7BootAddConfig) for [Anonymous Symbol]
    stm32h7xx_hal.o(.ARM.exidx.text.HAL_EnableCompensationCell) refers to stm32h7xx_hal.o(.text.HAL_EnableCompensationCell) for [Anonymous Symbol]
    stm32h7xx_hal.o(.ARM.exidx.text.HAL_DisableCompensationCell) refers to stm32h7xx_hal.o(.text.HAL_DisableCompensationCell) for [Anonymous Symbol]
    stm32h7xx_hal.o(.ARM.exidx.text.HAL_SYSCFG_EnableIOSpeedOptimize) refers to stm32h7xx_hal.o(.text.HAL_SYSCFG_EnableIOSpeedOptimize) for [Anonymous Symbol]
    stm32h7xx_hal.o(.ARM.exidx.text.HAL_SYSCFG_DisableIOSpeedOptimize) refers to stm32h7xx_hal.o(.text.HAL_SYSCFG_DisableIOSpeedOptimize) for [Anonymous Symbol]
    stm32h7xx_hal.o(.ARM.exidx.text.HAL_SYSCFG_CompensationCodeSelect) refers to stm32h7xx_hal.o(.text.HAL_SYSCFG_CompensationCodeSelect) for [Anonymous Symbol]
    stm32h7xx_hal.o(.ARM.exidx.text.HAL_SYSCFG_CompensationCodeConfig) refers to stm32h7xx_hal.o(.text.HAL_SYSCFG_CompensationCodeConfig) for [Anonymous Symbol]
    stm32h7xx_hal.o(.ARM.exidx.text.HAL_DBGMCU_EnableDBGSleepMode) refers to stm32h7xx_hal.o(.text.HAL_DBGMCU_EnableDBGSleepMode) for [Anonymous Symbol]
    stm32h7xx_hal.o(.ARM.exidx.text.HAL_DBGMCU_DisableDBGSleepMode) refers to stm32h7xx_hal.o(.text.HAL_DBGMCU_DisableDBGSleepMode) for [Anonymous Symbol]
    stm32h7xx_hal.o(.ARM.exidx.text.HAL_DBGMCU_EnableDBGStopMode) refers to stm32h7xx_hal.o(.text.HAL_DBGMCU_EnableDBGStopMode) for [Anonymous Symbol]
    stm32h7xx_hal.o(.ARM.exidx.text.HAL_DBGMCU_DisableDBGStopMode) refers to stm32h7xx_hal.o(.text.HAL_DBGMCU_DisableDBGStopMode) for [Anonymous Symbol]
    stm32h7xx_hal.o(.ARM.exidx.text.HAL_DBGMCU_EnableDBGStandbyMode) refers to stm32h7xx_hal.o(.text.HAL_DBGMCU_EnableDBGStandbyMode) for [Anonymous Symbol]
    stm32h7xx_hal.o(.ARM.exidx.text.HAL_DBGMCU_DisableDBGStandbyMode) refers to stm32h7xx_hal.o(.text.HAL_DBGMCU_DisableDBGStandbyMode) for [Anonymous Symbol]
    stm32h7xx_hal.o(.ARM.exidx.text.HAL_EnableDomain3DBGStopMode) refers to stm32h7xx_hal.o(.text.HAL_EnableDomain3DBGStopMode) for [Anonymous Symbol]
    stm32h7xx_hal.o(.ARM.exidx.text.HAL_DisableDomain3DBGStopMode) refers to stm32h7xx_hal.o(.text.HAL_DisableDomain3DBGStopMode) for [Anonymous Symbol]
    stm32h7xx_hal.o(.ARM.exidx.text.HAL_EnableDomain3DBGStandbyMode) refers to stm32h7xx_hal.o(.text.HAL_EnableDomain3DBGStandbyMode) for [Anonymous Symbol]
    stm32h7xx_hal.o(.ARM.exidx.text.HAL_DisableDomain3DBGStandbyMode) refers to stm32h7xx_hal.o(.text.HAL_DisableDomain3DBGStandbyMode) for [Anonymous Symbol]
    stm32h7xx_hal.o(.ARM.exidx.text.HAL_SetFMCMemorySwappingConfig) refers to stm32h7xx_hal.o(.text.HAL_SetFMCMemorySwappingConfig) for [Anonymous Symbol]
    stm32h7xx_hal.o(.ARM.exidx.text.HAL_GetFMCMemorySwappingConfig) refers to stm32h7xx_hal.o(.text.HAL_GetFMCMemorySwappingConfig) for [Anonymous Symbol]
    stm32h7xx_hal.o(.ARM.exidx.text.HAL_EXTI_EdgeConfig) refers to stm32h7xx_hal.o(.text.HAL_EXTI_EdgeConfig) for [Anonymous Symbol]
    stm32h7xx_hal.o(.ARM.exidx.text.HAL_EXTI_GenerateSWInterrupt) refers to stm32h7xx_hal.o(.text.HAL_EXTI_GenerateSWInterrupt) for [Anonymous Symbol]
    stm32h7xx_hal.o(.ARM.exidx.text.HAL_EXTI_D1_ClearFlag) refers to stm32h7xx_hal.o(.text.HAL_EXTI_D1_ClearFlag) for [Anonymous Symbol]
    stm32h7xx_hal.o(.ARM.exidx.text.HAL_EXTI_D1_EventInputConfig) refers to stm32h7xx_hal.o(.text.HAL_EXTI_D1_EventInputConfig) for [Anonymous Symbol]
    stm32h7xx_hal.o(.ARM.exidx.text.HAL_EXTI_D3_EventInputConfig) refers to stm32h7xx_hal.o(.text.HAL_EXTI_D3_EventInputConfig) for [Anonymous Symbol]
    stm32h7xx_hal_msp.o(.text.HAL_MspInit) refers to stm32h7xx_hal_cortex.o(.text.HAL_NVIC_SetPriority) for HAL_NVIC_SetPriority
    stm32h7xx_hal_msp.o(.ARM.exidx.text.HAL_MspInit) refers to stm32h7xx_hal_msp.o(.text.HAL_MspInit) for [Anonymous Symbol]
    stm32h7xx_hal_msp.o(.text.HAL_SD_MspInit) refers to stm32h7xx_hal_gpio.o(.text.HAL_GPIO_Init) for HAL_GPIO_Init
    stm32h7xx_hal_msp.o(.text.HAL_SD_MspInit) refers to stm32h7xx_hal_cortex.o(.text.HAL_NVIC_SetPriority) for HAL_NVIC_SetPriority
    stm32h7xx_hal_msp.o(.text.HAL_SD_MspInit) refers to stm32h7xx_hal_cortex.o(.text.HAL_NVIC_EnableIRQ) for HAL_NVIC_EnableIRQ
    stm32h7xx_hal_msp.o(.ARM.exidx.text.HAL_SD_MspInit) refers to stm32h7xx_hal_msp.o(.text.HAL_SD_MspInit) for [Anonymous Symbol]
    stm32h7xx_hal_msp.o(.text.HAL_SD_MspDeInit) refers to stm32h7xx_hal_gpio.o(.text.HAL_GPIO_DeInit) for HAL_GPIO_DeInit
    stm32h7xx_hal_msp.o(.text.HAL_SD_MspDeInit) refers to stm32h7xx_hal_cortex.o(.text.HAL_NVIC_DisableIRQ) for HAL_NVIC_DisableIRQ
    stm32h7xx_hal_msp.o(.ARM.exidx.text.HAL_SD_MspDeInit) refers to stm32h7xx_hal_msp.o(.text.HAL_SD_MspDeInit) for [Anonymous Symbol]
    stm32h7xx_hal_cortex.o(.text.HAL_NVIC_SetPriorityGrouping) refers to stm32h7xx_hal_cortex.o(.text.__NVIC_SetPriorityGrouping) for __NVIC_SetPriorityGrouping
    stm32h7xx_hal_cortex.o(.ARM.exidx.text.HAL_NVIC_SetPriorityGrouping) refers to stm32h7xx_hal_cortex.o(.text.HAL_NVIC_SetPriorityGrouping) for [Anonymous Symbol]
    stm32h7xx_hal_cortex.o(.ARM.exidx.text.__NVIC_SetPriorityGrouping) refers to stm32h7xx_hal_cortex.o(.text.__NVIC_SetPriorityGrouping) for [Anonymous Symbol]
    stm32h7xx_hal_cortex.o(.text.HAL_NVIC_SetPriority) refers to stm32h7xx_hal_cortex.o(.text.__NVIC_GetPriorityGrouping) for __NVIC_GetPriorityGrouping
    stm32h7xx_hal_cortex.o(.text.HAL_NVIC_SetPriority) refers to stm32h7xx_hal_cortex.o(.text.NVIC_EncodePriority) for NVIC_EncodePriority
    stm32h7xx_hal_cortex.o(.text.HAL_NVIC_SetPriority) refers to stm32h7xx_hal_cortex.o(.text.__NVIC_SetPriority) for __NVIC_SetPriority
    stm32h7xx_hal_cortex.o(.ARM.exidx.text.HAL_NVIC_SetPriority) refers to stm32h7xx_hal_cortex.o(.text.HAL_NVIC_SetPriority) for [Anonymous Symbol]
    stm32h7xx_hal_cortex.o(.ARM.exidx.text.__NVIC_GetPriorityGrouping) refers to stm32h7xx_hal_cortex.o(.text.__NVIC_GetPriorityGrouping) for [Anonymous Symbol]
    stm32h7xx_hal_cortex.o(.ARM.exidx.text.__NVIC_SetPriority) refers to stm32h7xx_hal_cortex.o(.text.__NVIC_SetPriority) for [Anonymous Symbol]
    stm32h7xx_hal_cortex.o(.ARM.exidx.text.NVIC_EncodePriority) refers to stm32h7xx_hal_cortex.o(.text.NVIC_EncodePriority) for [Anonymous Symbol]
    stm32h7xx_hal_cortex.o(.text.HAL_NVIC_EnableIRQ) refers to stm32h7xx_hal_cortex.o(.text.__NVIC_EnableIRQ) for __NVIC_EnableIRQ
    stm32h7xx_hal_cortex.o(.ARM.exidx.text.HAL_NVIC_EnableIRQ) refers to stm32h7xx_hal_cortex.o(.text.HAL_NVIC_EnableIRQ) for [Anonymous Symbol]
    stm32h7xx_hal_cortex.o(.ARM.exidx.text.__NVIC_EnableIRQ) refers to stm32h7xx_hal_cortex.o(.text.__NVIC_EnableIRQ) for [Anonymous Symbol]
    stm32h7xx_hal_cortex.o(.text.HAL_NVIC_DisableIRQ) refers to stm32h7xx_hal_cortex.o(.text.__NVIC_DisableIRQ) for __NVIC_DisableIRQ
    stm32h7xx_hal_cortex.o(.ARM.exidx.text.HAL_NVIC_DisableIRQ) refers to stm32h7xx_hal_cortex.o(.text.HAL_NVIC_DisableIRQ) for [Anonymous Symbol]
    stm32h7xx_hal_cortex.o(.ARM.exidx.text.__NVIC_DisableIRQ) refers to stm32h7xx_hal_cortex.o(.text.__NVIC_DisableIRQ) for [Anonymous Symbol]
    stm32h7xx_hal_cortex.o(.text.HAL_NVIC_SystemReset) refers to stm32h7xx_hal_cortex.o(.text.NVIC_SystemReset) for NVIC_SystemReset
    stm32h7xx_hal_cortex.o(.ARM.exidx.text.HAL_NVIC_SystemReset) refers to stm32h7xx_hal_cortex.o(.text.HAL_NVIC_SystemReset) for [Anonymous Symbol]
    stm32h7xx_hal_cortex.o(.ARM.exidx.text.NVIC_SystemReset) refers to stm32h7xx_hal_cortex.o(.text.NVIC_SystemReset) for [Anonymous Symbol]
    stm32h7xx_hal_cortex.o(.text.HAL_SYSTICK_Config) refers to stm32h7xx_hal_cortex.o(.text.SysTick_Config) for SysTick_Config
    stm32h7xx_hal_cortex.o(.ARM.exidx.text.HAL_SYSTICK_Config) refers to stm32h7xx_hal_cortex.o(.text.HAL_SYSTICK_Config) for [Anonymous Symbol]
    stm32h7xx_hal_cortex.o(.text.SysTick_Config) refers to stm32h7xx_hal_cortex.o(.text.__NVIC_SetPriority) for __NVIC_SetPriority
    stm32h7xx_hal_cortex.o(.ARM.exidx.text.SysTick_Config) refers to stm32h7xx_hal_cortex.o(.text.SysTick_Config) for [Anonymous Symbol]
    stm32h7xx_hal_cortex.o(.ARM.exidx.text.HAL_MPU_Disable) refers to stm32h7xx_hal_cortex.o(.text.HAL_MPU_Disable) for [Anonymous Symbol]
    stm32h7xx_hal_cortex.o(.ARM.exidx.text.HAL_MPU_Enable) refers to stm32h7xx_hal_cortex.o(.text.HAL_MPU_Enable) for [Anonymous Symbol]
    stm32h7xx_hal_cortex.o(.ARM.exidx.text.HAL_MPU_ConfigRegion) refers to stm32h7xx_hal_cortex.o(.text.HAL_MPU_ConfigRegion) for [Anonymous Symbol]
    stm32h7xx_hal_cortex.o(.text.HAL_NVIC_GetPriorityGrouping) refers to stm32h7xx_hal_cortex.o(.text.__NVIC_GetPriorityGrouping) for __NVIC_GetPriorityGrouping
    stm32h7xx_hal_cortex.o(.ARM.exidx.text.HAL_NVIC_GetPriorityGrouping) refers to stm32h7xx_hal_cortex.o(.text.HAL_NVIC_GetPriorityGrouping) for [Anonymous Symbol]
    stm32h7xx_hal_cortex.o(.text.HAL_NVIC_GetPriority) refers to stm32h7xx_hal_cortex.o(.text.__NVIC_GetPriority) for __NVIC_GetPriority
    stm32h7xx_hal_cortex.o(.text.HAL_NVIC_GetPriority) refers to stm32h7xx_hal_cortex.o(.text.NVIC_DecodePriority) for NVIC_DecodePriority
    stm32h7xx_hal_cortex.o(.ARM.exidx.text.HAL_NVIC_GetPriority) refers to stm32h7xx_hal_cortex.o(.text.HAL_NVIC_GetPriority) for [Anonymous Symbol]
    stm32h7xx_hal_cortex.o(.ARM.exidx.text.NVIC_DecodePriority) refers to stm32h7xx_hal_cortex.o(.text.NVIC_DecodePriority) for [Anonymous Symbol]
    stm32h7xx_hal_cortex.o(.ARM.exidx.text.__NVIC_GetPriority) refers to stm32h7xx_hal_cortex.o(.text.__NVIC_GetPriority) for [Anonymous Symbol]
    stm32h7xx_hal_cortex.o(.text.HAL_NVIC_SetPendingIRQ) refers to stm32h7xx_hal_cortex.o(.text.__NVIC_SetPendingIRQ) for __NVIC_SetPendingIRQ
    stm32h7xx_hal_cortex.o(.ARM.exidx.text.HAL_NVIC_SetPendingIRQ) refers to stm32h7xx_hal_cortex.o(.text.HAL_NVIC_SetPendingIRQ) for [Anonymous Symbol]
    stm32h7xx_hal_cortex.o(.ARM.exidx.text.__NVIC_SetPendingIRQ) refers to stm32h7xx_hal_cortex.o(.text.__NVIC_SetPendingIRQ) for [Anonymous Symbol]
    stm32h7xx_hal_cortex.o(.text.HAL_NVIC_GetPendingIRQ) refers to stm32h7xx_hal_cortex.o(.text.__NVIC_GetPendingIRQ) for __NVIC_GetPendingIRQ
    stm32h7xx_hal_cortex.o(.ARM.exidx.text.HAL_NVIC_GetPendingIRQ) refers to stm32h7xx_hal_cortex.o(.text.HAL_NVIC_GetPendingIRQ) for [Anonymous Symbol]
    stm32h7xx_hal_cortex.o(.ARM.exidx.text.__NVIC_GetPendingIRQ) refers to stm32h7xx_hal_cortex.o(.text.__NVIC_GetPendingIRQ) for [Anonymous Symbol]
    stm32h7xx_hal_cortex.o(.text.HAL_NVIC_ClearPendingIRQ) refers to stm32h7xx_hal_cortex.o(.text.__NVIC_ClearPendingIRQ) for __NVIC_ClearPendingIRQ
    stm32h7xx_hal_cortex.o(.ARM.exidx.text.HAL_NVIC_ClearPendingIRQ) refers to stm32h7xx_hal_cortex.o(.text.HAL_NVIC_ClearPendingIRQ) for [Anonymous Symbol]
    stm32h7xx_hal_cortex.o(.ARM.exidx.text.__NVIC_ClearPendingIRQ) refers to stm32h7xx_hal_cortex.o(.text.__NVIC_ClearPendingIRQ) for [Anonymous Symbol]
    stm32h7xx_hal_cortex.o(.text.HAL_NVIC_GetActive) refers to stm32h7xx_hal_cortex.o(.text.__NVIC_GetActive) for __NVIC_GetActive
    stm32h7xx_hal_cortex.o(.ARM.exidx.text.HAL_NVIC_GetActive) refers to stm32h7xx_hal_cortex.o(.text.HAL_NVIC_GetActive) for [Anonymous Symbol]
    stm32h7xx_hal_cortex.o(.ARM.exidx.text.__NVIC_GetActive) refers to stm32h7xx_hal_cortex.o(.text.__NVIC_GetActive) for [Anonymous Symbol]
    stm32h7xx_hal_cortex.o(.ARM.exidx.text.HAL_SYSTICK_CLKSourceConfig) refers to stm32h7xx_hal_cortex.o(.text.HAL_SYSTICK_CLKSourceConfig) for [Anonymous Symbol]
    stm32h7xx_hal_cortex.o(.text.HAL_SYSTICK_IRQHandler) refers to stm32h7xx_hal_cortex.o(.text.HAL_SYSTICK_Callback) for HAL_SYSTICK_Callback
    stm32h7xx_hal_cortex.o(.ARM.exidx.text.HAL_SYSTICK_IRQHandler) refers to stm32h7xx_hal_cortex.o(.text.HAL_SYSTICK_IRQHandler) for [Anonymous Symbol]
    stm32h7xx_hal_cortex.o(.ARM.exidx.text.HAL_SYSTICK_Callback) refers to stm32h7xx_hal_cortex.o(.text.HAL_SYSTICK_Callback) for [Anonymous Symbol]
    stm32h7xx_hal_cortex.o(.ARM.exidx.text.HAL_GetCurrentCPUID) refers to stm32h7xx_hal_cortex.o(.text.HAL_GetCurrentCPUID) for [Anonymous Symbol]
    stm32h7xx_hal_tim.o(.text.HAL_TIM_Base_Init) refers to stm32h7xx_hal_tim.o(.text.HAL_TIM_Base_MspInit) for HAL_TIM_Base_MspInit
    stm32h7xx_hal_tim.o(.text.HAL_TIM_Base_Init) refers to stm32h7xx_hal_tim.o(.text.TIM_Base_SetConfig) for TIM_Base_SetConfig
    stm32h7xx_hal_tim.o(.ARM.exidx.text.HAL_TIM_Base_Init) refers to stm32h7xx_hal_tim.o(.text.HAL_TIM_Base_Init) for [Anonymous Symbol]
    stm32h7xx_hal_tim.o(.ARM.exidx.text.HAL_TIM_Base_MspInit) refers to stm32h7xx_hal_tim.o(.text.HAL_TIM_Base_MspInit) for [Anonymous Symbol]
    stm32h7xx_hal_tim.o(.ARM.exidx.text.TIM_Base_SetConfig) refers to stm32h7xx_hal_tim.o(.text.TIM_Base_SetConfig) for [Anonymous Symbol]
    stm32h7xx_hal_tim.o(.text.HAL_TIM_Base_DeInit) refers to stm32h7xx_hal_tim.o(.text.HAL_TIM_Base_MspDeInit) for HAL_TIM_Base_MspDeInit
    stm32h7xx_hal_tim.o(.ARM.exidx.text.HAL_TIM_Base_DeInit) refers to stm32h7xx_hal_tim.o(.text.HAL_TIM_Base_DeInit) for [Anonymous Symbol]
    stm32h7xx_hal_tim.o(.ARM.exidx.text.HAL_TIM_Base_MspDeInit) refers to stm32h7xx_hal_tim.o(.text.HAL_TIM_Base_MspDeInit) for [Anonymous Symbol]
    stm32h7xx_hal_tim.o(.ARM.exidx.text.HAL_TIM_Base_Start) refers to stm32h7xx_hal_tim.o(.text.HAL_TIM_Base_Start) for [Anonymous Symbol]
    stm32h7xx_hal_tim.o(.ARM.exidx.text.HAL_TIM_Base_Stop) refers to stm32h7xx_hal_tim.o(.text.HAL_TIM_Base_Stop) for [Anonymous Symbol]
    stm32h7xx_hal_tim.o(.ARM.exidx.text.HAL_TIM_Base_Start_IT) refers to stm32h7xx_hal_tim.o(.text.HAL_TIM_Base_Start_IT) for [Anonymous Symbol]
    stm32h7xx_hal_tim.o(.ARM.exidx.text.HAL_TIM_Base_Stop_IT) refers to stm32h7xx_hal_tim.o(.text.HAL_TIM_Base_Stop_IT) for [Anonymous Symbol]
    stm32h7xx_hal_tim.o(.text.HAL_TIM_Base_Start_DMA) refers to stm32h7xx_hal_tim.o(.text.TIM_DMAPeriodElapsedCplt) for TIM_DMAPeriodElapsedCplt
    stm32h7xx_hal_tim.o(.text.HAL_TIM_Base_Start_DMA) refers to stm32h7xx_hal_tim.o(.text.TIM_DMAPeriodElapsedHalfCplt) for TIM_DMAPeriodElapsedHalfCplt
    stm32h7xx_hal_tim.o(.text.HAL_TIM_Base_Start_DMA) refers to stm32h7xx_hal_tim.o(.text.TIM_DMAError) for TIM_DMAError
    stm32h7xx_hal_tim.o(.text.HAL_TIM_Base_Start_DMA) refers to stm32h7xx_hal_dma.o(.text.HAL_DMA_Start_IT) for HAL_DMA_Start_IT
    stm32h7xx_hal_tim.o(.ARM.exidx.text.HAL_TIM_Base_Start_DMA) refers to stm32h7xx_hal_tim.o(.text.HAL_TIM_Base_Start_DMA) for [Anonymous Symbol]
    stm32h7xx_hal_tim.o(.text.TIM_DMAPeriodElapsedCplt) refers to stm32h7xx_hal_tim.o(.text.HAL_TIM_PeriodElapsedCallback) for HAL_TIM_PeriodElapsedCallback
    stm32h7xx_hal_tim.o(.ARM.exidx.text.TIM_DMAPeriodElapsedCplt) refers to stm32h7xx_hal_tim.o(.text.TIM_DMAPeriodElapsedCplt) for [Anonymous Symbol]
    stm32h7xx_hal_tim.o(.text.TIM_DMAPeriodElapsedHalfCplt) refers to stm32h7xx_hal_tim.o(.text.HAL_TIM_PeriodElapsedHalfCpltCallback) for HAL_TIM_PeriodElapsedHalfCpltCallback
    stm32h7xx_hal_tim.o(.ARM.exidx.text.TIM_DMAPeriodElapsedHalfCplt) refers to stm32h7xx_hal_tim.o(.text.TIM_DMAPeriodElapsedHalfCplt) for [Anonymous Symbol]
    stm32h7xx_hal_tim.o(.text.TIM_DMAError) refers to stm32h7xx_hal_tim.o(.text.HAL_TIM_ErrorCallback) for HAL_TIM_ErrorCallback
    stm32h7xx_hal_tim.o(.ARM.exidx.text.TIM_DMAError) refers to stm32h7xx_hal_tim.o(.text.TIM_DMAError) for [Anonymous Symbol]
    stm32h7xx_hal_tim.o(.text.HAL_TIM_Base_Stop_DMA) refers to stm32h7xx_hal_dma.o(.text.HAL_DMA_Abort_IT) for HAL_DMA_Abort_IT
    stm32h7xx_hal_tim.o(.ARM.exidx.text.HAL_TIM_Base_Stop_DMA) refers to stm32h7xx_hal_tim.o(.text.HAL_TIM_Base_Stop_DMA) for [Anonymous Symbol]
    stm32h7xx_hal_tim.o(.text.HAL_TIM_OC_Init) refers to stm32h7xx_hal_tim.o(.text.HAL_TIM_OC_MspInit) for HAL_TIM_OC_MspInit
    stm32h7xx_hal_tim.o(.text.HAL_TIM_OC_Init) refers to stm32h7xx_hal_tim.o(.text.TIM_Base_SetConfig) for TIM_Base_SetConfig
    stm32h7xx_hal_tim.o(.ARM.exidx.text.HAL_TIM_OC_Init) refers to stm32h7xx_hal_tim.o(.text.HAL_TIM_OC_Init) for [Anonymous Symbol]
    stm32h7xx_hal_tim.o(.ARM.exidx.text.HAL_TIM_OC_MspInit) refers to stm32h7xx_hal_tim.o(.text.HAL_TIM_OC_MspInit) for [Anonymous Symbol]
    stm32h7xx_hal_tim.o(.text.HAL_TIM_OC_DeInit) refers to stm32h7xx_hal_tim.o(.text.HAL_TIM_OC_MspDeInit) for HAL_TIM_OC_MspDeInit
    stm32h7xx_hal_tim.o(.ARM.exidx.text.HAL_TIM_OC_DeInit) refers to stm32h7xx_hal_tim.o(.text.HAL_TIM_OC_DeInit) for [Anonymous Symbol]
    stm32h7xx_hal_tim.o(.ARM.exidx.text.HAL_TIM_OC_MspDeInit) refers to stm32h7xx_hal_tim.o(.text.HAL_TIM_OC_MspDeInit) for [Anonymous Symbol]
    stm32h7xx_hal_tim.o(.text.HAL_TIM_OC_Start) refers to stm32h7xx_hal_tim.o(.text.TIM_CCxChannelCmd) for TIM_CCxChannelCmd
    stm32h7xx_hal_tim.o(.ARM.exidx.text.HAL_TIM_OC_Start) refers to stm32h7xx_hal_tim.o(.text.HAL_TIM_OC_Start) for [Anonymous Symbol]
    stm32h7xx_hal_tim.o(.ARM.exidx.text.TIM_CCxChannelCmd) refers to stm32h7xx_hal_tim.o(.text.TIM_CCxChannelCmd) for [Anonymous Symbol]
    stm32h7xx_hal_tim.o(.text.HAL_TIM_OC_Stop) refers to stm32h7xx_hal_tim.o(.text.TIM_CCxChannelCmd) for TIM_CCxChannelCmd
    stm32h7xx_hal_tim.o(.ARM.exidx.text.HAL_TIM_OC_Stop) refers to stm32h7xx_hal_tim.o(.text.HAL_TIM_OC_Stop) for [Anonymous Symbol]
    stm32h7xx_hal_tim.o(.text.HAL_TIM_OC_Start_IT) refers to stm32h7xx_hal_tim.o(.text.TIM_CCxChannelCmd) for TIM_CCxChannelCmd
    stm32h7xx_hal_tim.o(.ARM.exidx.text.HAL_TIM_OC_Start_IT) refers to stm32h7xx_hal_tim.o(.text.HAL_TIM_OC_Start_IT) for [Anonymous Symbol]
    stm32h7xx_hal_tim.o(.text.HAL_TIM_OC_Stop_IT) refers to stm32h7xx_hal_tim.o(.text.TIM_CCxChannelCmd) for TIM_CCxChannelCmd
    stm32h7xx_hal_tim.o(.ARM.exidx.text.HAL_TIM_OC_Stop_IT) refers to stm32h7xx_hal_tim.o(.text.HAL_TIM_OC_Stop_IT) for [Anonymous Symbol]
    stm32h7xx_hal_tim.o(.text.HAL_TIM_OC_Start_DMA) refers to stm32h7xx_hal_tim.o(.text.TIM_DMADelayPulseCplt) for TIM_DMADelayPulseCplt
    stm32h7xx_hal_tim.o(.text.HAL_TIM_OC_Start_DMA) refers to stm32h7xx_hal_tim.o(.text.TIM_DMADelayPulseHalfCplt) for TIM_DMADelayPulseHalfCplt
    stm32h7xx_hal_tim.o(.text.HAL_TIM_OC_Start_DMA) refers to stm32h7xx_hal_tim.o(.text.TIM_DMAError) for TIM_DMAError
    stm32h7xx_hal_tim.o(.text.HAL_TIM_OC_Start_DMA) refers to stm32h7xx_hal_dma.o(.text.HAL_DMA_Start_IT) for HAL_DMA_Start_IT
    stm32h7xx_hal_tim.o(.text.HAL_TIM_OC_Start_DMA) refers to stm32h7xx_hal_tim.o(.text.TIM_CCxChannelCmd) for TIM_CCxChannelCmd
    stm32h7xx_hal_tim.o(.ARM.exidx.text.HAL_TIM_OC_Start_DMA) refers to stm32h7xx_hal_tim.o(.text.HAL_TIM_OC_Start_DMA) for [Anonymous Symbol]
    stm32h7xx_hal_tim.o(.text.TIM_DMADelayPulseCplt) refers to stm32h7xx_hal_tim.o(.text.HAL_TIM_PWM_PulseFinishedCallback) for HAL_TIM_PWM_PulseFinishedCallback
    stm32h7xx_hal_tim.o(.ARM.exidx.text.TIM_DMADelayPulseCplt) refers to stm32h7xx_hal_tim.o(.text.TIM_DMADelayPulseCplt) for [Anonymous Symbol]
    stm32h7xx_hal_tim.o(.text.TIM_DMADelayPulseHalfCplt) refers to stm32h7xx_hal_tim.o(.text.HAL_TIM_PWM_PulseFinishedHalfCpltCallback) for HAL_TIM_PWM_PulseFinishedHalfCpltCallback
    stm32h7xx_hal_tim.o(.ARM.exidx.text.TIM_DMADelayPulseHalfCplt) refers to stm32h7xx_hal_tim.o(.text.TIM_DMADelayPulseHalfCplt) for [Anonymous Symbol]
    stm32h7xx_hal_tim.o(.text.HAL_TIM_OC_Stop_DMA) refers to stm32h7xx_hal_dma.o(.text.HAL_DMA_Abort_IT) for HAL_DMA_Abort_IT
    stm32h7xx_hal_tim.o(.text.HAL_TIM_OC_Stop_DMA) refers to stm32h7xx_hal_tim.o(.text.TIM_CCxChannelCmd) for TIM_CCxChannelCmd
    stm32h7xx_hal_tim.o(.ARM.exidx.text.HAL_TIM_OC_Stop_DMA) refers to stm32h7xx_hal_tim.o(.text.HAL_TIM_OC_Stop_DMA) for [Anonymous Symbol]
    stm32h7xx_hal_tim.o(.text.HAL_TIM_PWM_Init) refers to stm32h7xx_hal_tim.o(.text.HAL_TIM_PWM_MspInit) for HAL_TIM_PWM_MspInit
    stm32h7xx_hal_tim.o(.text.HAL_TIM_PWM_Init) refers to stm32h7xx_hal_tim.o(.text.TIM_Base_SetConfig) for TIM_Base_SetConfig
    stm32h7xx_hal_tim.o(.ARM.exidx.text.HAL_TIM_PWM_Init) refers to stm32h7xx_hal_tim.o(.text.HAL_TIM_PWM_Init) for [Anonymous Symbol]
    stm32h7xx_hal_tim.o(.ARM.exidx.text.HAL_TIM_PWM_MspInit) refers to stm32h7xx_hal_tim.o(.text.HAL_TIM_PWM_MspInit) for [Anonymous Symbol]
    stm32h7xx_hal_tim.o(.text.HAL_TIM_PWM_DeInit) refers to stm32h7xx_hal_tim.o(.text.HAL_TIM_PWM_MspDeInit) for HAL_TIM_PWM_MspDeInit
    stm32h7xx_hal_tim.o(.ARM.exidx.text.HAL_TIM_PWM_DeInit) refers to stm32h7xx_hal_tim.o(.text.HAL_TIM_PWM_DeInit) for [Anonymous Symbol]
    stm32h7xx_hal_tim.o(.ARM.exidx.text.HAL_TIM_PWM_MspDeInit) refers to stm32h7xx_hal_tim.o(.text.HAL_TIM_PWM_MspDeInit) for [Anonymous Symbol]
    stm32h7xx_hal_tim.o(.text.HAL_TIM_PWM_Start) refers to stm32h7xx_hal_tim.o(.text.TIM_CCxChannelCmd) for TIM_CCxChannelCmd
    stm32h7xx_hal_tim.o(.ARM.exidx.text.HAL_TIM_PWM_Start) refers to stm32h7xx_hal_tim.o(.text.HAL_TIM_PWM_Start) for [Anonymous Symbol]
    stm32h7xx_hal_tim.o(.text.HAL_TIM_PWM_Stop) refers to stm32h7xx_hal_tim.o(.text.TIM_CCxChannelCmd) for TIM_CCxChannelCmd
    stm32h7xx_hal_tim.o(.ARM.exidx.text.HAL_TIM_PWM_Stop) refers to stm32h7xx_hal_tim.o(.text.HAL_TIM_PWM_Stop) for [Anonymous Symbol]
    stm32h7xx_hal_tim.o(.text.HAL_TIM_PWM_Start_IT) refers to stm32h7xx_hal_tim.o(.text.TIM_CCxChannelCmd) for TIM_CCxChannelCmd
    stm32h7xx_hal_tim.o(.ARM.exidx.text.HAL_TIM_PWM_Start_IT) refers to stm32h7xx_hal_tim.o(.text.HAL_TIM_PWM_Start_IT) for [Anonymous Symbol]
    stm32h7xx_hal_tim.o(.text.HAL_TIM_PWM_Stop_IT) refers to stm32h7xx_hal_tim.o(.text.TIM_CCxChannelCmd) for TIM_CCxChannelCmd
    stm32h7xx_hal_tim.o(.ARM.exidx.text.HAL_TIM_PWM_Stop_IT) refers to stm32h7xx_hal_tim.o(.text.HAL_TIM_PWM_Stop_IT) for [Anonymous Symbol]
    stm32h7xx_hal_tim.o(.text.HAL_TIM_PWM_Start_DMA) refers to stm32h7xx_hal_tim.o(.text.TIM_DMADelayPulseCplt) for TIM_DMADelayPulseCplt
    stm32h7xx_hal_tim.o(.text.HAL_TIM_PWM_Start_DMA) refers to stm32h7xx_hal_tim.o(.text.TIM_DMADelayPulseHalfCplt) for TIM_DMADelayPulseHalfCplt
    stm32h7xx_hal_tim.o(.text.HAL_TIM_PWM_Start_DMA) refers to stm32h7xx_hal_tim.o(.text.TIM_DMAError) for TIM_DMAError
    stm32h7xx_hal_tim.o(.text.HAL_TIM_PWM_Start_DMA) refers to stm32h7xx_hal_dma.o(.text.HAL_DMA_Start_IT) for HAL_DMA_Start_IT
    stm32h7xx_hal_tim.o(.text.HAL_TIM_PWM_Start_DMA) refers to stm32h7xx_hal_tim.o(.text.TIM_CCxChannelCmd) for TIM_CCxChannelCmd
    stm32h7xx_hal_tim.o(.ARM.exidx.text.HAL_TIM_PWM_Start_DMA) refers to stm32h7xx_hal_tim.o(.text.HAL_TIM_PWM_Start_DMA) for [Anonymous Symbol]
    stm32h7xx_hal_tim.o(.text.HAL_TIM_PWM_Stop_DMA) refers to stm32h7xx_hal_dma.o(.text.HAL_DMA_Abort_IT) for HAL_DMA_Abort_IT
    stm32h7xx_hal_tim.o(.text.HAL_TIM_PWM_Stop_DMA) refers to stm32h7xx_hal_tim.o(.text.TIM_CCxChannelCmd) for TIM_CCxChannelCmd
    stm32h7xx_hal_tim.o(.ARM.exidx.text.HAL_TIM_PWM_Stop_DMA) refers to stm32h7xx_hal_tim.o(.text.HAL_TIM_PWM_Stop_DMA) for [Anonymous Symbol]
    stm32h7xx_hal_tim.o(.text.HAL_TIM_IC_Init) refers to stm32h7xx_hal_tim.o(.text.HAL_TIM_IC_MspInit) for HAL_TIM_IC_MspInit
    stm32h7xx_hal_tim.o(.text.HAL_TIM_IC_Init) refers to stm32h7xx_hal_tim.o(.text.TIM_Base_SetConfig) for TIM_Base_SetConfig
    stm32h7xx_hal_tim.o(.ARM.exidx.text.HAL_TIM_IC_Init) refers to stm32h7xx_hal_tim.o(.text.HAL_TIM_IC_Init) for [Anonymous Symbol]
    stm32h7xx_hal_tim.o(.ARM.exidx.text.HAL_TIM_IC_MspInit) refers to stm32h7xx_hal_tim.o(.text.HAL_TIM_IC_MspInit) for [Anonymous Symbol]
    stm32h7xx_hal_tim.o(.text.HAL_TIM_IC_DeInit) refers to stm32h7xx_hal_tim.o(.text.HAL_TIM_IC_MspDeInit) for HAL_TIM_IC_MspDeInit
    stm32h7xx_hal_tim.o(.ARM.exidx.text.HAL_TIM_IC_DeInit) refers to stm32h7xx_hal_tim.o(.text.HAL_TIM_IC_DeInit) for [Anonymous Symbol]
    stm32h7xx_hal_tim.o(.ARM.exidx.text.HAL_TIM_IC_MspDeInit) refers to stm32h7xx_hal_tim.o(.text.HAL_TIM_IC_MspDeInit) for [Anonymous Symbol]
    stm32h7xx_hal_tim.o(.text.HAL_TIM_IC_Start) refers to stm32h7xx_hal_tim.o(.text.TIM_CCxChannelCmd) for TIM_CCxChannelCmd
    stm32h7xx_hal_tim.o(.ARM.exidx.text.HAL_TIM_IC_Start) refers to stm32h7xx_hal_tim.o(.text.HAL_TIM_IC_Start) for [Anonymous Symbol]
    stm32h7xx_hal_tim.o(.text.HAL_TIM_IC_Stop) refers to stm32h7xx_hal_tim.o(.text.TIM_CCxChannelCmd) for TIM_CCxChannelCmd
    stm32h7xx_hal_tim.o(.ARM.exidx.text.HAL_TIM_IC_Stop) refers to stm32h7xx_hal_tim.o(.text.HAL_TIM_IC_Stop) for [Anonymous Symbol]
    stm32h7xx_hal_tim.o(.text.HAL_TIM_IC_Start_IT) refers to stm32h7xx_hal_tim.o(.text.TIM_CCxChannelCmd) for TIM_CCxChannelCmd
    stm32h7xx_hal_tim.o(.ARM.exidx.text.HAL_TIM_IC_Start_IT) refers to stm32h7xx_hal_tim.o(.text.HAL_TIM_IC_Start_IT) for [Anonymous Symbol]
    stm32h7xx_hal_tim.o(.text.HAL_TIM_IC_Stop_IT) refers to stm32h7xx_hal_tim.o(.text.TIM_CCxChannelCmd) for TIM_CCxChannelCmd
    stm32h7xx_hal_tim.o(.ARM.exidx.text.HAL_TIM_IC_Stop_IT) refers to stm32h7xx_hal_tim.o(.text.HAL_TIM_IC_Stop_IT) for [Anonymous Symbol]
    stm32h7xx_hal_tim.o(.text.HAL_TIM_IC_Start_DMA) refers to stm32h7xx_hal_tim.o(.text.TIM_DMACaptureCplt) for TIM_DMACaptureCplt
    stm32h7xx_hal_tim.o(.text.HAL_TIM_IC_Start_DMA) refers to stm32h7xx_hal_tim.o(.text.TIM_DMACaptureHalfCplt) for TIM_DMACaptureHalfCplt
    stm32h7xx_hal_tim.o(.text.HAL_TIM_IC_Start_DMA) refers to stm32h7xx_hal_tim.o(.text.TIM_DMAError) for TIM_DMAError
    stm32h7xx_hal_tim.o(.text.HAL_TIM_IC_Start_DMA) refers to stm32h7xx_hal_dma.o(.text.HAL_DMA_Start_IT) for HAL_DMA_Start_IT
    stm32h7xx_hal_tim.o(.text.HAL_TIM_IC_Start_DMA) refers to stm32h7xx_hal_tim.o(.text.TIM_CCxChannelCmd) for TIM_CCxChannelCmd
    stm32h7xx_hal_tim.o(.ARM.exidx.text.HAL_TIM_IC_Start_DMA) refers to stm32h7xx_hal_tim.o(.text.HAL_TIM_IC_Start_DMA) for [Anonymous Symbol]
    stm32h7xx_hal_tim.o(.text.TIM_DMACaptureCplt) refers to stm32h7xx_hal_tim.o(.text.HAL_TIM_IC_CaptureCallback) for HAL_TIM_IC_CaptureCallback
    stm32h7xx_hal_tim.o(.ARM.exidx.text.TIM_DMACaptureCplt) refers to stm32h7xx_hal_tim.o(.text.TIM_DMACaptureCplt) for [Anonymous Symbol]
    stm32h7xx_hal_tim.o(.text.TIM_DMACaptureHalfCplt) refers to stm32h7xx_hal_tim.o(.text.HAL_TIM_IC_CaptureHalfCpltCallback) for HAL_TIM_IC_CaptureHalfCpltCallback
    stm32h7xx_hal_tim.o(.ARM.exidx.text.TIM_DMACaptureHalfCplt) refers to stm32h7xx_hal_tim.o(.text.TIM_DMACaptureHalfCplt) for [Anonymous Symbol]
    stm32h7xx_hal_tim.o(.text.HAL_TIM_IC_Stop_DMA) refers to stm32h7xx_hal_dma.o(.text.HAL_DMA_Abort_IT) for HAL_DMA_Abort_IT
    stm32h7xx_hal_tim.o(.text.HAL_TIM_IC_Stop_DMA) refers to stm32h7xx_hal_tim.o(.text.TIM_CCxChannelCmd) for TIM_CCxChannelCmd
    stm32h7xx_hal_tim.o(.ARM.exidx.text.HAL_TIM_IC_Stop_DMA) refers to stm32h7xx_hal_tim.o(.text.HAL_TIM_IC_Stop_DMA) for [Anonymous Symbol]
    stm32h7xx_hal_tim.o(.text.HAL_TIM_OnePulse_Init) refers to stm32h7xx_hal_tim.o(.text.HAL_TIM_OnePulse_MspInit) for HAL_TIM_OnePulse_MspInit
    stm32h7xx_hal_tim.o(.text.HAL_TIM_OnePulse_Init) refers to stm32h7xx_hal_tim.o(.text.TIM_Base_SetConfig) for TIM_Base_SetConfig
    stm32h7xx_hal_tim.o(.ARM.exidx.text.HAL_TIM_OnePulse_Init) refers to stm32h7xx_hal_tim.o(.text.HAL_TIM_OnePulse_Init) for [Anonymous Symbol]
    stm32h7xx_hal_tim.o(.ARM.exidx.text.HAL_TIM_OnePulse_MspInit) refers to stm32h7xx_hal_tim.o(.text.HAL_TIM_OnePulse_MspInit) for [Anonymous Symbol]
    stm32h7xx_hal_tim.o(.text.HAL_TIM_OnePulse_DeInit) refers to stm32h7xx_hal_tim.o(.text.HAL_TIM_OnePulse_MspDeInit) for HAL_TIM_OnePulse_MspDeInit
    stm32h7xx_hal_tim.o(.ARM.exidx.text.HAL_TIM_OnePulse_DeInit) refers to stm32h7xx_hal_tim.o(.text.HAL_TIM_OnePulse_DeInit) for [Anonymous Symbol]
    stm32h7xx_hal_tim.o(.ARM.exidx.text.HAL_TIM_OnePulse_MspDeInit) refers to stm32h7xx_hal_tim.o(.text.HAL_TIM_OnePulse_MspDeInit) for [Anonymous Symbol]
    stm32h7xx_hal_tim.o(.text.HAL_TIM_OnePulse_Start) refers to stm32h7xx_hal_tim.o(.text.TIM_CCxChannelCmd) for TIM_CCxChannelCmd
    stm32h7xx_hal_tim.o(.ARM.exidx.text.HAL_TIM_OnePulse_Start) refers to stm32h7xx_hal_tim.o(.text.HAL_TIM_OnePulse_Start) for [Anonymous Symbol]
    stm32h7xx_hal_tim.o(.text.HAL_TIM_OnePulse_Stop) refers to stm32h7xx_hal_tim.o(.text.TIM_CCxChannelCmd) for TIM_CCxChannelCmd
    stm32h7xx_hal_tim.o(.ARM.exidx.text.HAL_TIM_OnePulse_Stop) refers to stm32h7xx_hal_tim.o(.text.HAL_TIM_OnePulse_Stop) for [Anonymous Symbol]
    stm32h7xx_hal_tim.o(.text.HAL_TIM_OnePulse_Start_IT) refers to stm32h7xx_hal_tim.o(.text.TIM_CCxChannelCmd) for TIM_CCxChannelCmd
    stm32h7xx_hal_tim.o(.ARM.exidx.text.HAL_TIM_OnePulse_Start_IT) refers to stm32h7xx_hal_tim.o(.text.HAL_TIM_OnePulse_Start_IT) for [Anonymous Symbol]
    stm32h7xx_hal_tim.o(.text.HAL_TIM_OnePulse_Stop_IT) refers to stm32h7xx_hal_tim.o(.text.TIM_CCxChannelCmd) for TIM_CCxChannelCmd
    stm32h7xx_hal_tim.o(.ARM.exidx.text.HAL_TIM_OnePulse_Stop_IT) refers to stm32h7xx_hal_tim.o(.text.HAL_TIM_OnePulse_Stop_IT) for [Anonymous Symbol]
    stm32h7xx_hal_tim.o(.text.HAL_TIM_Encoder_Init) refers to stm32h7xx_hal_tim.o(.text.HAL_TIM_Encoder_MspInit) for HAL_TIM_Encoder_MspInit
    stm32h7xx_hal_tim.o(.text.HAL_TIM_Encoder_Init) refers to stm32h7xx_hal_tim.o(.text.TIM_Base_SetConfig) for TIM_Base_SetConfig
    stm32h7xx_hal_tim.o(.ARM.exidx.text.HAL_TIM_Encoder_Init) refers to stm32h7xx_hal_tim.o(.text.HAL_TIM_Encoder_Init) for [Anonymous Symbol]
    stm32h7xx_hal_tim.o(.ARM.exidx.text.HAL_TIM_Encoder_MspInit) refers to stm32h7xx_hal_tim.o(.text.HAL_TIM_Encoder_MspInit) for [Anonymous Symbol]
    stm32h7xx_hal_tim.o(.text.HAL_TIM_Encoder_DeInit) refers to stm32h7xx_hal_tim.o(.text.HAL_TIM_Encoder_MspDeInit) for HAL_TIM_Encoder_MspDeInit
    stm32h7xx_hal_tim.o(.ARM.exidx.text.HAL_TIM_Encoder_DeInit) refers to stm32h7xx_hal_tim.o(.text.HAL_TIM_Encoder_DeInit) for [Anonymous Symbol]
    stm32h7xx_hal_tim.o(.ARM.exidx.text.HAL_TIM_Encoder_MspDeInit) refers to stm32h7xx_hal_tim.o(.text.HAL_TIM_Encoder_MspDeInit) for [Anonymous Symbol]
    stm32h7xx_hal_tim.o(.text.HAL_TIM_Encoder_Start) refers to stm32h7xx_hal_tim.o(.text.TIM_CCxChannelCmd) for TIM_CCxChannelCmd
    stm32h7xx_hal_tim.o(.ARM.exidx.text.HAL_TIM_Encoder_Start) refers to stm32h7xx_hal_tim.o(.text.HAL_TIM_Encoder_Start) for [Anonymous Symbol]
    stm32h7xx_hal_tim.o(.text.HAL_TIM_Encoder_Stop) refers to stm32h7xx_hal_tim.o(.text.TIM_CCxChannelCmd) for TIM_CCxChannelCmd
    stm32h7xx_hal_tim.o(.ARM.exidx.text.HAL_TIM_Encoder_Stop) refers to stm32h7xx_hal_tim.o(.text.HAL_TIM_Encoder_Stop) for [Anonymous Symbol]
    stm32h7xx_hal_tim.o(.text.HAL_TIM_Encoder_Start_IT) refers to stm32h7xx_hal_tim.o(.text.TIM_CCxChannelCmd) for TIM_CCxChannelCmd
    stm32h7xx_hal_tim.o(.ARM.exidx.text.HAL_TIM_Encoder_Start_IT) refers to stm32h7xx_hal_tim.o(.text.HAL_TIM_Encoder_Start_IT) for [Anonymous Symbol]
    stm32h7xx_hal_tim.o(.text.HAL_TIM_Encoder_Stop_IT) refers to stm32h7xx_hal_tim.o(.text.TIM_CCxChannelCmd) for TIM_CCxChannelCmd
    stm32h7xx_hal_tim.o(.ARM.exidx.text.HAL_TIM_Encoder_Stop_IT) refers to stm32h7xx_hal_tim.o(.text.HAL_TIM_Encoder_Stop_IT) for [Anonymous Symbol]
    stm32h7xx_hal_tim.o(.text.HAL_TIM_Encoder_Start_DMA) refers to stm32h7xx_hal_tim.o(.text.TIM_DMACaptureCplt) for TIM_DMACaptureCplt
    stm32h7xx_hal_tim.o(.text.HAL_TIM_Encoder_Start_DMA) refers to stm32h7xx_hal_tim.o(.text.TIM_DMACaptureHalfCplt) for TIM_DMACaptureHalfCplt
    stm32h7xx_hal_tim.o(.text.HAL_TIM_Encoder_Start_DMA) refers to stm32h7xx_hal_tim.o(.text.TIM_DMAError) for TIM_DMAError
    stm32h7xx_hal_tim.o(.text.HAL_TIM_Encoder_Start_DMA) refers to stm32h7xx_hal_dma.o(.text.HAL_DMA_Start_IT) for HAL_DMA_Start_IT
    stm32h7xx_hal_tim.o(.text.HAL_TIM_Encoder_Start_DMA) refers to stm32h7xx_hal_tim.o(.text.TIM_CCxChannelCmd) for TIM_CCxChannelCmd
    stm32h7xx_hal_tim.o(.ARM.exidx.text.HAL_TIM_Encoder_Start_DMA) refers to stm32h7xx_hal_tim.o(.text.HAL_TIM_Encoder_Start_DMA) for [Anonymous Symbol]
    stm32h7xx_hal_tim.o(.text.HAL_TIM_Encoder_Stop_DMA) refers to stm32h7xx_hal_tim.o(.text.TIM_CCxChannelCmd) for TIM_CCxChannelCmd
    stm32h7xx_hal_tim.o(.text.HAL_TIM_Encoder_Stop_DMA) refers to stm32h7xx_hal_dma.o(.text.HAL_DMA_Abort_IT) for HAL_DMA_Abort_IT
    stm32h7xx_hal_tim.o(.ARM.exidx.text.HAL_TIM_Encoder_Stop_DMA) refers to stm32h7xx_hal_tim.o(.text.HAL_TIM_Encoder_Stop_DMA) for [Anonymous Symbol]
    stm32h7xx_hal_tim.o(.text.HAL_TIM_IRQHandler) refers to stm32h7xx_hal_tim.o(.text.HAL_TIM_IC_CaptureCallback) for HAL_TIM_IC_CaptureCallback
    stm32h7xx_hal_tim.o(.text.HAL_TIM_IRQHandler) refers to stm32h7xx_hal_tim.o(.text.HAL_TIM_OC_DelayElapsedCallback) for HAL_TIM_OC_DelayElapsedCallback
    stm32h7xx_hal_tim.o(.text.HAL_TIM_IRQHandler) refers to stm32h7xx_hal_tim.o(.text.HAL_TIM_PWM_PulseFinishedCallback) for HAL_TIM_PWM_PulseFinishedCallback
    stm32h7xx_hal_tim.o(.text.HAL_TIM_IRQHandler) refers to stm32h7xx_hal_tim.o(.text.HAL_TIM_PeriodElapsedCallback) for HAL_TIM_PeriodElapsedCallback
    stm32h7xx_hal_tim.o(.text.HAL_TIM_IRQHandler) refers to stm32h7xx_hal_tim_ex.o(.text.HAL_TIMEx_BreakCallback) for HAL_TIMEx_BreakCallback
    stm32h7xx_hal_tim.o(.text.HAL_TIM_IRQHandler) refers to stm32h7xx_hal_tim_ex.o(.text.HAL_TIMEx_Break2Callback) for HAL_TIMEx_Break2Callback
    stm32h7xx_hal_tim.o(.text.HAL_TIM_IRQHandler) refers to stm32h7xx_hal_tim.o(.text.HAL_TIM_TriggerCallback) for HAL_TIM_TriggerCallback
    stm32h7xx_hal_tim.o(.text.HAL_TIM_IRQHandler) refers to stm32h7xx_hal_tim_ex.o(.text.HAL_TIMEx_CommutCallback) for HAL_TIMEx_CommutCallback
    stm32h7xx_hal_tim.o(.ARM.exidx.text.HAL_TIM_IRQHandler) refers to stm32h7xx_hal_tim.o(.text.HAL_TIM_IRQHandler) for [Anonymous Symbol]
    stm32h7xx_hal_tim.o(.ARM.exidx.text.HAL_TIM_IC_CaptureCallback) refers to stm32h7xx_hal_tim.o(.text.HAL_TIM_IC_CaptureCallback) for [Anonymous Symbol]
    stm32h7xx_hal_tim.o(.ARM.exidx.text.HAL_TIM_OC_DelayElapsedCallback) refers to stm32h7xx_hal_tim.o(.text.HAL_TIM_OC_DelayElapsedCallback) for [Anonymous Symbol]
    stm32h7xx_hal_tim.o(.ARM.exidx.text.HAL_TIM_PWM_PulseFinishedCallback) refers to stm32h7xx_hal_tim.o(.text.HAL_TIM_PWM_PulseFinishedCallback) for [Anonymous Symbol]
    stm32h7xx_hal_tim.o(.ARM.exidx.text.HAL_TIM_PeriodElapsedCallback) refers to stm32h7xx_hal_tim.o(.text.HAL_TIM_PeriodElapsedCallback) for [Anonymous Symbol]
    stm32h7xx_hal_tim.o(.ARM.exidx.text.HAL_TIM_TriggerCallback) refers to stm32h7xx_hal_tim.o(.text.HAL_TIM_TriggerCallback) for [Anonymous Symbol]
    stm32h7xx_hal_tim.o(.text.HAL_TIM_OC_ConfigChannel) refers to stm32h7xx_hal_tim.o(.text.TIM_OC1_SetConfig) for TIM_OC1_SetConfig
    stm32h7xx_hal_tim.o(.text.HAL_TIM_OC_ConfigChannel) refers to stm32h7xx_hal_tim.o(.text.TIM_OC2_SetConfig) for TIM_OC2_SetConfig
    stm32h7xx_hal_tim.o(.text.HAL_TIM_OC_ConfigChannel) refers to stm32h7xx_hal_tim.o(.text.TIM_OC3_SetConfig) for TIM_OC3_SetConfig
    stm32h7xx_hal_tim.o(.text.HAL_TIM_OC_ConfigChannel) refers to stm32h7xx_hal_tim.o(.text.TIM_OC4_SetConfig) for TIM_OC4_SetConfig
    stm32h7xx_hal_tim.o(.text.HAL_TIM_OC_ConfigChannel) refers to stm32h7xx_hal_tim.o(.text.TIM_OC5_SetConfig) for TIM_OC5_SetConfig
    stm32h7xx_hal_tim.o(.text.HAL_TIM_OC_ConfigChannel) refers to stm32h7xx_hal_tim.o(.text.TIM_OC6_SetConfig) for TIM_OC6_SetConfig
    stm32h7xx_hal_tim.o(.ARM.exidx.text.HAL_TIM_OC_ConfigChannel) refers to stm32h7xx_hal_tim.o(.text.HAL_TIM_OC_ConfigChannel) for [Anonymous Symbol]
    stm32h7xx_hal_tim.o(.ARM.exidx.text.TIM_OC1_SetConfig) refers to stm32h7xx_hal_tim.o(.text.TIM_OC1_SetConfig) for [Anonymous Symbol]
    stm32h7xx_hal_tim.o(.ARM.exidx.text.TIM_OC2_SetConfig) refers to stm32h7xx_hal_tim.o(.text.TIM_OC2_SetConfig) for [Anonymous Symbol]
    stm32h7xx_hal_tim.o(.ARM.exidx.text.TIM_OC3_SetConfig) refers to stm32h7xx_hal_tim.o(.text.TIM_OC3_SetConfig) for [Anonymous Symbol]
    stm32h7xx_hal_tim.o(.ARM.exidx.text.TIM_OC4_SetConfig) refers to stm32h7xx_hal_tim.o(.text.TIM_OC4_SetConfig) for [Anonymous Symbol]
    stm32h7xx_hal_tim.o(.ARM.exidx.text.TIM_OC5_SetConfig) refers to stm32h7xx_hal_tim.o(.text.TIM_OC5_SetConfig) for [Anonymous Symbol]
    stm32h7xx_hal_tim.o(.ARM.exidx.text.TIM_OC6_SetConfig) refers to stm32h7xx_hal_tim.o(.text.TIM_OC6_SetConfig) for [Anonymous Symbol]
    stm32h7xx_hal_tim.o(.text.HAL_TIM_IC_ConfigChannel) refers to stm32h7xx_hal_tim.o(.text.TIM_TI1_SetConfig) for TIM_TI1_SetConfig
    stm32h7xx_hal_tim.o(.text.HAL_TIM_IC_ConfigChannel) refers to stm32h7xx_hal_tim.o(.text.TIM_TI2_SetConfig) for TIM_TI2_SetConfig
    stm32h7xx_hal_tim.o(.text.HAL_TIM_IC_ConfigChannel) refers to stm32h7xx_hal_tim.o(.text.TIM_TI3_SetConfig) for TIM_TI3_SetConfig
    stm32h7xx_hal_tim.o(.text.HAL_TIM_IC_ConfigChannel) refers to stm32h7xx_hal_tim.o(.text.TIM_TI4_SetConfig) for TIM_TI4_SetConfig
    stm32h7xx_hal_tim.o(.ARM.exidx.text.HAL_TIM_IC_ConfigChannel) refers to stm32h7xx_hal_tim.o(.text.HAL_TIM_IC_ConfigChannel) for [Anonymous Symbol]
    stm32h7xx_hal_tim.o(.ARM.exidx.text.TIM_TI1_SetConfig) refers to stm32h7xx_hal_tim.o(.text.TIM_TI1_SetConfig) for [Anonymous Symbol]
    stm32h7xx_hal_tim.o(.ARM.exidx.text.TIM_TI2_SetConfig) refers to stm32h7xx_hal_tim.o(.text.TIM_TI2_SetConfig) for [Anonymous Symbol]
    stm32h7xx_hal_tim.o(.ARM.exidx.text.TIM_TI3_SetConfig) refers to stm32h7xx_hal_tim.o(.text.TIM_TI3_SetConfig) for [Anonymous Symbol]
    stm32h7xx_hal_tim.o(.ARM.exidx.text.TIM_TI4_SetConfig) refers to stm32h7xx_hal_tim.o(.text.TIM_TI4_SetConfig) for [Anonymous Symbol]
    stm32h7xx_hal_tim.o(.text.HAL_TIM_PWM_ConfigChannel) refers to stm32h7xx_hal_tim.o(.text.TIM_OC1_SetConfig) for TIM_OC1_SetConfig
    stm32h7xx_hal_tim.o(.text.HAL_TIM_PWM_ConfigChannel) refers to stm32h7xx_hal_tim.o(.text.TIM_OC2_SetConfig) for TIM_OC2_SetConfig
    stm32h7xx_hal_tim.o(.text.HAL_TIM_PWM_ConfigChannel) refers to stm32h7xx_hal_tim.o(.text.TIM_OC3_SetConfig) for TIM_OC3_SetConfig
    stm32h7xx_hal_tim.o(.text.HAL_TIM_PWM_ConfigChannel) refers to stm32h7xx_hal_tim.o(.text.TIM_OC4_SetConfig) for TIM_OC4_SetConfig
    stm32h7xx_hal_tim.o(.text.HAL_TIM_PWM_ConfigChannel) refers to stm32h7xx_hal_tim.o(.text.TIM_OC5_SetConfig) for TIM_OC5_SetConfig
    stm32h7xx_hal_tim.o(.text.HAL_TIM_PWM_ConfigChannel) refers to stm32h7xx_hal_tim.o(.text.TIM_OC6_SetConfig) for TIM_OC6_SetConfig
    stm32h7xx_hal_tim.o(.ARM.exidx.text.HAL_TIM_PWM_ConfigChannel) refers to stm32h7xx_hal_tim.o(.text.HAL_TIM_PWM_ConfigChannel) for [Anonymous Symbol]
    stm32h7xx_hal_tim.o(.text.HAL_TIM_OnePulse_ConfigChannel) refers to stm32h7xx_hal_tim.o(.text.TIM_OC1_SetConfig) for TIM_OC1_SetConfig
    stm32h7xx_hal_tim.o(.text.HAL_TIM_OnePulse_ConfigChannel) refers to stm32h7xx_hal_tim.o(.text.TIM_OC2_SetConfig) for TIM_OC2_SetConfig
    stm32h7xx_hal_tim.o(.text.HAL_TIM_OnePulse_ConfigChannel) refers to stm32h7xx_hal_tim.o(.text.TIM_TI1_SetConfig) for TIM_TI1_SetConfig
    stm32h7xx_hal_tim.o(.text.HAL_TIM_OnePulse_ConfigChannel) refers to stm32h7xx_hal_tim.o(.text.TIM_TI2_SetConfig) for TIM_TI2_SetConfig
    stm32h7xx_hal_tim.o(.ARM.exidx.text.HAL_TIM_OnePulse_ConfigChannel) refers to stm32h7xx_hal_tim.o(.text.HAL_TIM_OnePulse_ConfigChannel) for [Anonymous Symbol]
    stm32h7xx_hal_tim.o(.text.HAL_TIM_DMABurst_WriteStart) refers to stm32h7xx_hal_tim.o(.text.HAL_TIM_DMABurst_MultiWriteStart) for HAL_TIM_DMABurst_MultiWriteStart
    stm32h7xx_hal_tim.o(.ARM.exidx.text.HAL_TIM_DMABurst_WriteStart) refers to stm32h7xx_hal_tim.o(.text.HAL_TIM_DMABurst_WriteStart) for [Anonymous Symbol]
    stm32h7xx_hal_tim.o(.text.HAL_TIM_DMABurst_MultiWriteStart) refers to stm32h7xx_hal_tim.o(.text.TIM_DMAPeriodElapsedCplt) for TIM_DMAPeriodElapsedCplt
    stm32h7xx_hal_tim.o(.text.HAL_TIM_DMABurst_MultiWriteStart) refers to stm32h7xx_hal_tim.o(.text.TIM_DMAPeriodElapsedHalfCplt) for TIM_DMAPeriodElapsedHalfCplt
    stm32h7xx_hal_tim.o(.text.HAL_TIM_DMABurst_MultiWriteStart) refers to stm32h7xx_hal_tim.o(.text.TIM_DMAError) for TIM_DMAError
    stm32h7xx_hal_tim.o(.text.HAL_TIM_DMABurst_MultiWriteStart) refers to stm32h7xx_hal_dma.o(.text.HAL_DMA_Start_IT) for HAL_DMA_Start_IT
    stm32h7xx_hal_tim.o(.text.HAL_TIM_DMABurst_MultiWriteStart) refers to stm32h7xx_hal_tim.o(.text.TIM_DMADelayPulseCplt) for TIM_DMADelayPulseCplt
    stm32h7xx_hal_tim.o(.text.HAL_TIM_DMABurst_MultiWriteStart) refers to stm32h7xx_hal_tim.o(.text.TIM_DMADelayPulseHalfCplt) for TIM_DMADelayPulseHalfCplt
    stm32h7xx_hal_tim.o(.text.HAL_TIM_DMABurst_MultiWriteStart) refers to stm32h7xx_hal_tim_ex.o(.text.TIMEx_DMACommutationCplt) for TIMEx_DMACommutationCplt
    stm32h7xx_hal_tim.o(.text.HAL_TIM_DMABurst_MultiWriteStart) refers to stm32h7xx_hal_tim_ex.o(.text.TIMEx_DMACommutationHalfCplt) for TIMEx_DMACommutationHalfCplt
    stm32h7xx_hal_tim.o(.text.HAL_TIM_DMABurst_MultiWriteStart) refers to stm32h7xx_hal_tim.o(.text.TIM_DMATriggerCplt) for TIM_DMATriggerCplt
    stm32h7xx_hal_tim.o(.text.HAL_TIM_DMABurst_MultiWriteStart) refers to stm32h7xx_hal_tim.o(.text.TIM_DMATriggerHalfCplt) for TIM_DMATriggerHalfCplt
    stm32h7xx_hal_tim.o(.ARM.exidx.text.HAL_TIM_DMABurst_MultiWriteStart) refers to stm32h7xx_hal_tim.o(.text.HAL_TIM_DMABurst_MultiWriteStart) for [Anonymous Symbol]
    stm32h7xx_hal_tim.o(.text.TIM_DMATriggerCplt) refers to stm32h7xx_hal_tim.o(.text.HAL_TIM_TriggerCallback) for HAL_TIM_TriggerCallback
    stm32h7xx_hal_tim.o(.ARM.exidx.text.TIM_DMATriggerCplt) refers to stm32h7xx_hal_tim.o(.text.TIM_DMATriggerCplt) for [Anonymous Symbol]
    stm32h7xx_hal_tim.o(.text.TIM_DMATriggerHalfCplt) refers to stm32h7xx_hal_tim.o(.text.HAL_TIM_TriggerHalfCpltCallback) for HAL_TIM_TriggerHalfCpltCallback
    stm32h7xx_hal_tim.o(.ARM.exidx.text.TIM_DMATriggerHalfCplt) refers to stm32h7xx_hal_tim.o(.text.TIM_DMATriggerHalfCplt) for [Anonymous Symbol]
    stm32h7xx_hal_tim.o(.text.HAL_TIM_DMABurst_WriteStop) refers to stm32h7xx_hal_dma.o(.text.HAL_DMA_Abort_IT) for HAL_DMA_Abort_IT
    stm32h7xx_hal_tim.o(.ARM.exidx.text.HAL_TIM_DMABurst_WriteStop) refers to stm32h7xx_hal_tim.o(.text.HAL_TIM_DMABurst_WriteStop) for [Anonymous Symbol]
    stm32h7xx_hal_tim.o(.text.HAL_TIM_DMABurst_ReadStart) refers to stm32h7xx_hal_tim.o(.text.HAL_TIM_DMABurst_MultiReadStart) for HAL_TIM_DMABurst_MultiReadStart
    stm32h7xx_hal_tim.o(.ARM.exidx.text.HAL_TIM_DMABurst_ReadStart) refers to stm32h7xx_hal_tim.o(.text.HAL_TIM_DMABurst_ReadStart) for [Anonymous Symbol]
    stm32h7xx_hal_tim.o(.text.HAL_TIM_DMABurst_MultiReadStart) refers to stm32h7xx_hal_tim.o(.text.TIM_DMAPeriodElapsedCplt) for TIM_DMAPeriodElapsedCplt
    stm32h7xx_hal_tim.o(.text.HAL_TIM_DMABurst_MultiReadStart) refers to stm32h7xx_hal_tim.o(.text.TIM_DMAPeriodElapsedHalfCplt) for TIM_DMAPeriodElapsedHalfCplt
    stm32h7xx_hal_tim.o(.text.HAL_TIM_DMABurst_MultiReadStart) refers to stm32h7xx_hal_tim.o(.text.TIM_DMAError) for TIM_DMAError
    stm32h7xx_hal_tim.o(.text.HAL_TIM_DMABurst_MultiReadStart) refers to stm32h7xx_hal_dma.o(.text.HAL_DMA_Start_IT) for HAL_DMA_Start_IT
    stm32h7xx_hal_tim.o(.text.HAL_TIM_DMABurst_MultiReadStart) refers to stm32h7xx_hal_tim.o(.text.TIM_DMACaptureCplt) for TIM_DMACaptureCplt
    stm32h7xx_hal_tim.o(.text.HAL_TIM_DMABurst_MultiReadStart) refers to stm32h7xx_hal_tim.o(.text.TIM_DMACaptureHalfCplt) for TIM_DMACaptureHalfCplt
    stm32h7xx_hal_tim.o(.text.HAL_TIM_DMABurst_MultiReadStart) refers to stm32h7xx_hal_tim_ex.o(.text.TIMEx_DMACommutationCplt) for TIMEx_DMACommutationCplt
    stm32h7xx_hal_tim.o(.text.HAL_TIM_DMABurst_MultiReadStart) refers to stm32h7xx_hal_tim_ex.o(.text.TIMEx_DMACommutationHalfCplt) for TIMEx_DMACommutationHalfCplt
    stm32h7xx_hal_tim.o(.text.HAL_TIM_DMABurst_MultiReadStart) refers to stm32h7xx_hal_tim.o(.text.TIM_DMATriggerCplt) for TIM_DMATriggerCplt
    stm32h7xx_hal_tim.o(.text.HAL_TIM_DMABurst_MultiReadStart) refers to stm32h7xx_hal_tim.o(.text.TIM_DMATriggerHalfCplt) for TIM_DMATriggerHalfCplt
    stm32h7xx_hal_tim.o(.ARM.exidx.text.HAL_TIM_DMABurst_MultiReadStart) refers to stm32h7xx_hal_tim.o(.text.HAL_TIM_DMABurst_MultiReadStart) for [Anonymous Symbol]
    stm32h7xx_hal_tim.o(.text.HAL_TIM_DMABurst_ReadStop) refers to stm32h7xx_hal_dma.o(.text.HAL_DMA_Abort_IT) for HAL_DMA_Abort_IT
    stm32h7xx_hal_tim.o(.ARM.exidx.text.HAL_TIM_DMABurst_ReadStop) refers to stm32h7xx_hal_tim.o(.text.HAL_TIM_DMABurst_ReadStop) for [Anonymous Symbol]
    stm32h7xx_hal_tim.o(.ARM.exidx.text.HAL_TIM_GenerateEvent) refers to stm32h7xx_hal_tim.o(.text.HAL_TIM_GenerateEvent) for [Anonymous Symbol]
    stm32h7xx_hal_tim.o(.text.HAL_TIM_ConfigOCrefClear) refers to stm32h7xx_hal_tim.o(.text.TIM_ETR_SetConfig) for TIM_ETR_SetConfig
    stm32h7xx_hal_tim.o(.ARM.exidx.text.HAL_TIM_ConfigOCrefClear) refers to stm32h7xx_hal_tim.o(.text.HAL_TIM_ConfigOCrefClear) for [Anonymous Symbol]
    stm32h7xx_hal_tim.o(.ARM.exidx.text.TIM_ETR_SetConfig) refers to stm32h7xx_hal_tim.o(.text.TIM_ETR_SetConfig) for [Anonymous Symbol]
    stm32h7xx_hal_tim.o(.text.HAL_TIM_ConfigClockSource) refers to stm32h7xx_hal_tim.o(.text.TIM_ETR_SetConfig) for TIM_ETR_SetConfig
    stm32h7xx_hal_tim.o(.text.HAL_TIM_ConfigClockSource) refers to stm32h7xx_hal_tim.o(.text.TIM_TI1_ConfigInputStage) for TIM_TI1_ConfigInputStage
    stm32h7xx_hal_tim.o(.text.HAL_TIM_ConfigClockSource) refers to stm32h7xx_hal_tim.o(.text.TIM_ITRx_SetConfig) for TIM_ITRx_SetConfig
    stm32h7xx_hal_tim.o(.text.HAL_TIM_ConfigClockSource) refers to stm32h7xx_hal_tim.o(.text.TIM_TI2_ConfigInputStage) for TIM_TI2_ConfigInputStage
    stm32h7xx_hal_tim.o(.ARM.exidx.text.HAL_TIM_ConfigClockSource) refers to stm32h7xx_hal_tim.o(.text.HAL_TIM_ConfigClockSource) for [Anonymous Symbol]
    stm32h7xx_hal_tim.o(.ARM.exidx.text.TIM_TI1_ConfigInputStage) refers to stm32h7xx_hal_tim.o(.text.TIM_TI1_ConfigInputStage) for [Anonymous Symbol]
    stm32h7xx_hal_tim.o(.ARM.exidx.text.TIM_ITRx_SetConfig) refers to stm32h7xx_hal_tim.o(.text.TIM_ITRx_SetConfig) for [Anonymous Symbol]
    stm32h7xx_hal_tim.o(.ARM.exidx.text.TIM_TI2_ConfigInputStage) refers to stm32h7xx_hal_tim.o(.text.TIM_TI2_ConfigInputStage) for [Anonymous Symbol]
    stm32h7xx_hal_tim.o(.ARM.exidx.text.HAL_TIM_ConfigTI1Input) refers to stm32h7xx_hal_tim.o(.text.HAL_TIM_ConfigTI1Input) for [Anonymous Symbol]
    stm32h7xx_hal_tim.o(.text.HAL_TIM_SlaveConfigSynchro) refers to stm32h7xx_hal_tim.o(.text.TIM_SlaveTimer_SetConfig) for TIM_SlaveTimer_SetConfig
    stm32h7xx_hal_tim.o(.ARM.exidx.text.HAL_TIM_SlaveConfigSynchro) refers to stm32h7xx_hal_tim.o(.text.HAL_TIM_SlaveConfigSynchro) for [Anonymous Symbol]
    stm32h7xx_hal_tim.o(.text.TIM_SlaveTimer_SetConfig) refers to stm32h7xx_hal_tim.o(.text.TIM_ETR_SetConfig) for TIM_ETR_SetConfig
    stm32h7xx_hal_tim.o(.text.TIM_SlaveTimer_SetConfig) refers to stm32h7xx_hal_tim.o(.text.TIM_TI1_ConfigInputStage) for TIM_TI1_ConfigInputStage
    stm32h7xx_hal_tim.o(.text.TIM_SlaveTimer_SetConfig) refers to stm32h7xx_hal_tim.o(.text.TIM_TI2_ConfigInputStage) for TIM_TI2_ConfigInputStage
    stm32h7xx_hal_tim.o(.ARM.exidx.text.TIM_SlaveTimer_SetConfig) refers to stm32h7xx_hal_tim.o(.text.TIM_SlaveTimer_SetConfig) for [Anonymous Symbol]
    stm32h7xx_hal_tim.o(.text.HAL_TIM_SlaveConfigSynchro_IT) refers to stm32h7xx_hal_tim.o(.text.TIM_SlaveTimer_SetConfig) for TIM_SlaveTimer_SetConfig
    stm32h7xx_hal_tim.o(.ARM.exidx.text.HAL_TIM_SlaveConfigSynchro_IT) refers to stm32h7xx_hal_tim.o(.text.HAL_TIM_SlaveConfigSynchro_IT) for [Anonymous Symbol]
    stm32h7xx_hal_tim.o(.ARM.exidx.text.HAL_TIM_ReadCapturedValue) refers to stm32h7xx_hal_tim.o(.text.HAL_TIM_ReadCapturedValue) for [Anonymous Symbol]
    stm32h7xx_hal_tim.o(.ARM.exidx.text.HAL_TIM_PeriodElapsedHalfCpltCallback) refers to stm32h7xx_hal_tim.o(.text.HAL_TIM_PeriodElapsedHalfCpltCallback) for [Anonymous Symbol]
    stm32h7xx_hal_tim.o(.ARM.exidx.text.HAL_TIM_IC_CaptureHalfCpltCallback) refers to stm32h7xx_hal_tim.o(.text.HAL_TIM_IC_CaptureHalfCpltCallback) for [Anonymous Symbol]
    stm32h7xx_hal_tim.o(.ARM.exidx.text.HAL_TIM_PWM_PulseFinishedHalfCpltCallback) refers to stm32h7xx_hal_tim.o(.text.HAL_TIM_PWM_PulseFinishedHalfCpltCallback) for [Anonymous Symbol]
    stm32h7xx_hal_tim.o(.ARM.exidx.text.HAL_TIM_TriggerHalfCpltCallback) refers to stm32h7xx_hal_tim.o(.text.HAL_TIM_TriggerHalfCpltCallback) for [Anonymous Symbol]
    stm32h7xx_hal_tim.o(.ARM.exidx.text.HAL_TIM_ErrorCallback) refers to stm32h7xx_hal_tim.o(.text.HAL_TIM_ErrorCallback) for [Anonymous Symbol]
    stm32h7xx_hal_tim.o(.ARM.exidx.text.HAL_TIM_Base_GetState) refers to stm32h7xx_hal_tim.o(.text.HAL_TIM_Base_GetState) for [Anonymous Symbol]
    stm32h7xx_hal_tim.o(.ARM.exidx.text.HAL_TIM_OC_GetState) refers to stm32h7xx_hal_tim.o(.text.HAL_TIM_OC_GetState) for [Anonymous Symbol]
    stm32h7xx_hal_tim.o(.ARM.exidx.text.HAL_TIM_PWM_GetState) refers to stm32h7xx_hal_tim.o(.text.HAL_TIM_PWM_GetState) for [Anonymous Symbol]
    stm32h7xx_hal_tim.o(.ARM.exidx.text.HAL_TIM_IC_GetState) refers to stm32h7xx_hal_tim.o(.text.HAL_TIM_IC_GetState) for [Anonymous Symbol]
    stm32h7xx_hal_tim.o(.ARM.exidx.text.HAL_TIM_OnePulse_GetState) refers to stm32h7xx_hal_tim.o(.text.HAL_TIM_OnePulse_GetState) for [Anonymous Symbol]
    stm32h7xx_hal_tim.o(.ARM.exidx.text.HAL_TIM_Encoder_GetState) refers to stm32h7xx_hal_tim.o(.text.HAL_TIM_Encoder_GetState) for [Anonymous Symbol]
    stm32h7xx_hal_tim_ex.o(.text.HAL_TIMEx_HallSensor_Init) refers to stm32h7xx_hal_tim_ex.o(.text.HAL_TIMEx_HallSensor_MspInit) for HAL_TIMEx_HallSensor_MspInit
    stm32h7xx_hal_tim_ex.o(.text.HAL_TIMEx_HallSensor_Init) refers to stm32h7xx_hal_tim.o(.text.TIM_Base_SetConfig) for TIM_Base_SetConfig
    stm32h7xx_hal_tim_ex.o(.text.HAL_TIMEx_HallSensor_Init) refers to stm32h7xx_hal_tim.o(.text.TIM_TI1_SetConfig) for TIM_TI1_SetConfig
    stm32h7xx_hal_tim_ex.o(.text.HAL_TIMEx_HallSensor_Init) refers to stm32h7xx_hal_tim.o(.text.TIM_OC2_SetConfig) for TIM_OC2_SetConfig
    stm32h7xx_hal_tim_ex.o(.ARM.exidx.text.HAL_TIMEx_HallSensor_Init) refers to stm32h7xx_hal_tim_ex.o(.text.HAL_TIMEx_HallSensor_Init) for [Anonymous Symbol]
    stm32h7xx_hal_tim_ex.o(.ARM.exidx.text.HAL_TIMEx_HallSensor_MspInit) refers to stm32h7xx_hal_tim_ex.o(.text.HAL_TIMEx_HallSensor_MspInit) for [Anonymous Symbol]
    stm32h7xx_hal_tim_ex.o(.text.HAL_TIMEx_HallSensor_DeInit) refers to stm32h7xx_hal_tim_ex.o(.text.HAL_TIMEx_HallSensor_MspDeInit) for HAL_TIMEx_HallSensor_MspDeInit
    stm32h7xx_hal_tim_ex.o(.ARM.exidx.text.HAL_TIMEx_HallSensor_DeInit) refers to stm32h7xx_hal_tim_ex.o(.text.HAL_TIMEx_HallSensor_DeInit) for [Anonymous Symbol]
    stm32h7xx_hal_tim_ex.o(.ARM.exidx.text.HAL_TIMEx_HallSensor_MspDeInit) refers to stm32h7xx_hal_tim_ex.o(.text.HAL_TIMEx_HallSensor_MspDeInit) for [Anonymous Symbol]
    stm32h7xx_hal_tim_ex.o(.text.HAL_TIMEx_HallSensor_Start) refers to stm32h7xx_hal_tim.o(.text.TIM_CCxChannelCmd) for TIM_CCxChannelCmd
    stm32h7xx_hal_tim_ex.o(.ARM.exidx.text.HAL_TIMEx_HallSensor_Start) refers to stm32h7xx_hal_tim_ex.o(.text.HAL_TIMEx_HallSensor_Start) for [Anonymous Symbol]
    stm32h7xx_hal_tim_ex.o(.text.HAL_TIMEx_HallSensor_Stop) refers to stm32h7xx_hal_tim.o(.text.TIM_CCxChannelCmd) for TIM_CCxChannelCmd
    stm32h7xx_hal_tim_ex.o(.ARM.exidx.text.HAL_TIMEx_HallSensor_Stop) refers to stm32h7xx_hal_tim_ex.o(.text.HAL_TIMEx_HallSensor_Stop) for [Anonymous Symbol]
    stm32h7xx_hal_tim_ex.o(.text.HAL_TIMEx_HallSensor_Start_IT) refers to stm32h7xx_hal_tim.o(.text.TIM_CCxChannelCmd) for TIM_CCxChannelCmd
    stm32h7xx_hal_tim_ex.o(.ARM.exidx.text.HAL_TIMEx_HallSensor_Start_IT) refers to stm32h7xx_hal_tim_ex.o(.text.HAL_TIMEx_HallSensor_Start_IT) for [Anonymous Symbol]
    stm32h7xx_hal_tim_ex.o(.text.HAL_TIMEx_HallSensor_Stop_IT) refers to stm32h7xx_hal_tim.o(.text.TIM_CCxChannelCmd) for TIM_CCxChannelCmd
    stm32h7xx_hal_tim_ex.o(.ARM.exidx.text.HAL_TIMEx_HallSensor_Stop_IT) refers to stm32h7xx_hal_tim_ex.o(.text.HAL_TIMEx_HallSensor_Stop_IT) for [Anonymous Symbol]
    stm32h7xx_hal_tim_ex.o(.text.HAL_TIMEx_HallSensor_Start_DMA) refers to stm32h7xx_hal_tim.o(.text.TIM_CCxChannelCmd) for TIM_CCxChannelCmd
    stm32h7xx_hal_tim_ex.o(.text.HAL_TIMEx_HallSensor_Start_DMA) refers to stm32h7xx_hal_tim.o(.text.TIM_DMACaptureCplt) for TIM_DMACaptureCplt
    stm32h7xx_hal_tim_ex.o(.text.HAL_TIMEx_HallSensor_Start_DMA) refers to stm32h7xx_hal_tim.o(.text.TIM_DMACaptureHalfCplt) for TIM_DMACaptureHalfCplt
    stm32h7xx_hal_tim_ex.o(.text.HAL_TIMEx_HallSensor_Start_DMA) refers to stm32h7xx_hal_tim.o(.text.TIM_DMAError) for TIM_DMAError
    stm32h7xx_hal_tim_ex.o(.text.HAL_TIMEx_HallSensor_Start_DMA) refers to stm32h7xx_hal_dma.o(.text.HAL_DMA_Start_IT) for HAL_DMA_Start_IT
    stm32h7xx_hal_tim_ex.o(.ARM.exidx.text.HAL_TIMEx_HallSensor_Start_DMA) refers to stm32h7xx_hal_tim_ex.o(.text.HAL_TIMEx_HallSensor_Start_DMA) for [Anonymous Symbol]
    stm32h7xx_hal_tim_ex.o(.text.HAL_TIMEx_HallSensor_Stop_DMA) refers to stm32h7xx_hal_tim.o(.text.TIM_CCxChannelCmd) for TIM_CCxChannelCmd
    stm32h7xx_hal_tim_ex.o(.text.HAL_TIMEx_HallSensor_Stop_DMA) refers to stm32h7xx_hal_dma.o(.text.HAL_DMA_Abort_IT) for HAL_DMA_Abort_IT
    stm32h7xx_hal_tim_ex.o(.ARM.exidx.text.HAL_TIMEx_HallSensor_Stop_DMA) refers to stm32h7xx_hal_tim_ex.o(.text.HAL_TIMEx_HallSensor_Stop_DMA) for [Anonymous Symbol]
    stm32h7xx_hal_tim_ex.o(.text.HAL_TIMEx_OCN_Start) refers to stm32h7xx_hal_tim_ex.o(.text.TIM_CCxNChannelCmd) for TIM_CCxNChannelCmd
    stm32h7xx_hal_tim_ex.o(.ARM.exidx.text.HAL_TIMEx_OCN_Start) refers to stm32h7xx_hal_tim_ex.o(.text.HAL_TIMEx_OCN_Start) for [Anonymous Symbol]
    stm32h7xx_hal_tim_ex.o(.ARM.exidx.text.TIM_CCxNChannelCmd) refers to stm32h7xx_hal_tim_ex.o(.text.TIM_CCxNChannelCmd) for [Anonymous Symbol]
    stm32h7xx_hal_tim_ex.o(.text.HAL_TIMEx_OCN_Stop) refers to stm32h7xx_hal_tim_ex.o(.text.TIM_CCxNChannelCmd) for TIM_CCxNChannelCmd
    stm32h7xx_hal_tim_ex.o(.ARM.exidx.text.HAL_TIMEx_OCN_Stop) refers to stm32h7xx_hal_tim_ex.o(.text.HAL_TIMEx_OCN_Stop) for [Anonymous Symbol]
    stm32h7xx_hal_tim_ex.o(.text.HAL_TIMEx_OCN_Start_IT) refers to stm32h7xx_hal_tim_ex.o(.text.TIM_CCxNChannelCmd) for TIM_CCxNChannelCmd
    stm32h7xx_hal_tim_ex.o(.ARM.exidx.text.HAL_TIMEx_OCN_Start_IT) refers to stm32h7xx_hal_tim_ex.o(.text.HAL_TIMEx_OCN_Start_IT) for [Anonymous Symbol]
    stm32h7xx_hal_tim_ex.o(.text.HAL_TIMEx_OCN_Stop_IT) refers to stm32h7xx_hal_tim_ex.o(.text.TIM_CCxNChannelCmd) for TIM_CCxNChannelCmd
    stm32h7xx_hal_tim_ex.o(.ARM.exidx.text.HAL_TIMEx_OCN_Stop_IT) refers to stm32h7xx_hal_tim_ex.o(.text.HAL_TIMEx_OCN_Stop_IT) for [Anonymous Symbol]
    stm32h7xx_hal_tim_ex.o(.text.HAL_TIMEx_OCN_Start_DMA) refers to stm32h7xx_hal_tim.o(.text.TIM_DMADelayPulseCplt) for TIM_DMADelayPulseCplt
    stm32h7xx_hal_tim_ex.o(.text.HAL_TIMEx_OCN_Start_DMA) refers to stm32h7xx_hal_tim.o(.text.TIM_DMADelayPulseHalfCplt) for TIM_DMADelayPulseHalfCplt
    stm32h7xx_hal_tim_ex.o(.text.HAL_TIMEx_OCN_Start_DMA) refers to stm32h7xx_hal_tim.o(.text.TIM_DMAError) for TIM_DMAError
    stm32h7xx_hal_tim_ex.o(.text.HAL_TIMEx_OCN_Start_DMA) refers to stm32h7xx_hal_dma.o(.text.HAL_DMA_Start_IT) for HAL_DMA_Start_IT
    stm32h7xx_hal_tim_ex.o(.text.HAL_TIMEx_OCN_Start_DMA) refers to stm32h7xx_hal_tim_ex.o(.text.TIM_CCxNChannelCmd) for TIM_CCxNChannelCmd
    stm32h7xx_hal_tim_ex.o(.ARM.exidx.text.HAL_TIMEx_OCN_Start_DMA) refers to stm32h7xx_hal_tim_ex.o(.text.HAL_TIMEx_OCN_Start_DMA) for [Anonymous Symbol]
    stm32h7xx_hal_tim_ex.o(.text.HAL_TIMEx_OCN_Stop_DMA) refers to stm32h7xx_hal_dma.o(.text.HAL_DMA_Abort_IT) for HAL_DMA_Abort_IT
    stm32h7xx_hal_tim_ex.o(.text.HAL_TIMEx_OCN_Stop_DMA) refers to stm32h7xx_hal_tim_ex.o(.text.TIM_CCxNChannelCmd) for TIM_CCxNChannelCmd
    stm32h7xx_hal_tim_ex.o(.ARM.exidx.text.HAL_TIMEx_OCN_Stop_DMA) refers to stm32h7xx_hal_tim_ex.o(.text.HAL_TIMEx_OCN_Stop_DMA) for [Anonymous Symbol]
    stm32h7xx_hal_tim_ex.o(.text.HAL_TIMEx_PWMN_Start) refers to stm32h7xx_hal_tim_ex.o(.text.TIM_CCxNChannelCmd) for TIM_CCxNChannelCmd
    stm32h7xx_hal_tim_ex.o(.ARM.exidx.text.HAL_TIMEx_PWMN_Start) refers to stm32h7xx_hal_tim_ex.o(.text.HAL_TIMEx_PWMN_Start) for [Anonymous Symbol]
    stm32h7xx_hal_tim_ex.o(.text.HAL_TIMEx_PWMN_Stop) refers to stm32h7xx_hal_tim_ex.o(.text.TIM_CCxNChannelCmd) for TIM_CCxNChannelCmd
    stm32h7xx_hal_tim_ex.o(.ARM.exidx.text.HAL_TIMEx_PWMN_Stop) refers to stm32h7xx_hal_tim_ex.o(.text.HAL_TIMEx_PWMN_Stop) for [Anonymous Symbol]
    stm32h7xx_hal_tim_ex.o(.text.HAL_TIMEx_PWMN_Start_IT) refers to stm32h7xx_hal_tim_ex.o(.text.TIM_CCxNChannelCmd) for TIM_CCxNChannelCmd
    stm32h7xx_hal_tim_ex.o(.ARM.exidx.text.HAL_TIMEx_PWMN_Start_IT) refers to stm32h7xx_hal_tim_ex.o(.text.HAL_TIMEx_PWMN_Start_IT) for [Anonymous Symbol]
    stm32h7xx_hal_tim_ex.o(.text.HAL_TIMEx_PWMN_Stop_IT) refers to stm32h7xx_hal_tim_ex.o(.text.TIM_CCxNChannelCmd) for TIM_CCxNChannelCmd
    stm32h7xx_hal_tim_ex.o(.ARM.exidx.text.HAL_TIMEx_PWMN_Stop_IT) refers to stm32h7xx_hal_tim_ex.o(.text.HAL_TIMEx_PWMN_Stop_IT) for [Anonymous Symbol]
    stm32h7xx_hal_tim_ex.o(.text.HAL_TIMEx_PWMN_Start_DMA) refers to stm32h7xx_hal_tim.o(.text.TIM_DMADelayPulseCplt) for TIM_DMADelayPulseCplt
    stm32h7xx_hal_tim_ex.o(.text.HAL_TIMEx_PWMN_Start_DMA) refers to stm32h7xx_hal_tim.o(.text.TIM_DMADelayPulseHalfCplt) for TIM_DMADelayPulseHalfCplt
    stm32h7xx_hal_tim_ex.o(.text.HAL_TIMEx_PWMN_Start_DMA) refers to stm32h7xx_hal_tim.o(.text.TIM_DMAError) for TIM_DMAError
    stm32h7xx_hal_tim_ex.o(.text.HAL_TIMEx_PWMN_Start_DMA) refers to stm32h7xx_hal_dma.o(.text.HAL_DMA_Start_IT) for HAL_DMA_Start_IT
    stm32h7xx_hal_tim_ex.o(.text.HAL_TIMEx_PWMN_Start_DMA) refers to stm32h7xx_hal_tim_ex.o(.text.TIM_CCxNChannelCmd) for TIM_CCxNChannelCmd
    stm32h7xx_hal_tim_ex.o(.ARM.exidx.text.HAL_TIMEx_PWMN_Start_DMA) refers to stm32h7xx_hal_tim_ex.o(.text.HAL_TIMEx_PWMN_Start_DMA) for [Anonymous Symbol]
    stm32h7xx_hal_tim_ex.o(.text.HAL_TIMEx_PWMN_Stop_DMA) refers to stm32h7xx_hal_dma.o(.text.HAL_DMA_Abort_IT) for HAL_DMA_Abort_IT
    stm32h7xx_hal_tim_ex.o(.text.HAL_TIMEx_PWMN_Stop_DMA) refers to stm32h7xx_hal_tim_ex.o(.text.TIM_CCxNChannelCmd) for TIM_CCxNChannelCmd
    stm32h7xx_hal_tim_ex.o(.ARM.exidx.text.HAL_TIMEx_PWMN_Stop_DMA) refers to stm32h7xx_hal_tim_ex.o(.text.HAL_TIMEx_PWMN_Stop_DMA) for [Anonymous Symbol]
    stm32h7xx_hal_tim_ex.o(.text.HAL_TIMEx_OnePulseN_Start) refers to stm32h7xx_hal_tim_ex.o(.text.TIM_CCxNChannelCmd) for TIM_CCxNChannelCmd
    stm32h7xx_hal_tim_ex.o(.ARM.exidx.text.HAL_TIMEx_OnePulseN_Start) refers to stm32h7xx_hal_tim_ex.o(.text.HAL_TIMEx_OnePulseN_Start) for [Anonymous Symbol]
    stm32h7xx_hal_tim_ex.o(.text.HAL_TIMEx_OnePulseN_Stop) refers to stm32h7xx_hal_tim_ex.o(.text.TIM_CCxNChannelCmd) for TIM_CCxNChannelCmd
    stm32h7xx_hal_tim_ex.o(.ARM.exidx.text.HAL_TIMEx_OnePulseN_Stop) refers to stm32h7xx_hal_tim_ex.o(.text.HAL_TIMEx_OnePulseN_Stop) for [Anonymous Symbol]
    stm32h7xx_hal_tim_ex.o(.text.HAL_TIMEx_OnePulseN_Start_IT) refers to stm32h7xx_hal_tim_ex.o(.text.TIM_CCxNChannelCmd) for TIM_CCxNChannelCmd
    stm32h7xx_hal_tim_ex.o(.ARM.exidx.text.HAL_TIMEx_OnePulseN_Start_IT) refers to stm32h7xx_hal_tim_ex.o(.text.HAL_TIMEx_OnePulseN_Start_IT) for [Anonymous Symbol]
    stm32h7xx_hal_tim_ex.o(.text.HAL_TIMEx_OnePulseN_Stop_IT) refers to stm32h7xx_hal_tim_ex.o(.text.TIM_CCxNChannelCmd) for TIM_CCxNChannelCmd
    stm32h7xx_hal_tim_ex.o(.ARM.exidx.text.HAL_TIMEx_OnePulseN_Stop_IT) refers to stm32h7xx_hal_tim_ex.o(.text.HAL_TIMEx_OnePulseN_Stop_IT) for [Anonymous Symbol]
    stm32h7xx_hal_tim_ex.o(.ARM.exidx.text.HAL_TIMEx_ConfigCommutEvent) refers to stm32h7xx_hal_tim_ex.o(.text.HAL_TIMEx_ConfigCommutEvent) for [Anonymous Symbol]
    stm32h7xx_hal_tim_ex.o(.ARM.exidx.text.HAL_TIMEx_ConfigCommutEvent_IT) refers to stm32h7xx_hal_tim_ex.o(.text.HAL_TIMEx_ConfigCommutEvent_IT) for [Anonymous Symbol]
    stm32h7xx_hal_tim_ex.o(.text.HAL_TIMEx_ConfigCommutEvent_DMA) refers to stm32h7xx_hal_tim_ex.o(.text.TIMEx_DMACommutationCplt) for TIMEx_DMACommutationCplt
    stm32h7xx_hal_tim_ex.o(.text.HAL_TIMEx_ConfigCommutEvent_DMA) refers to stm32h7xx_hal_tim_ex.o(.text.TIMEx_DMACommutationHalfCplt) for TIMEx_DMACommutationHalfCplt
    stm32h7xx_hal_tim_ex.o(.text.HAL_TIMEx_ConfigCommutEvent_DMA) refers to stm32h7xx_hal_tim.o(.text.TIM_DMAError) for TIM_DMAError
    stm32h7xx_hal_tim_ex.o(.ARM.exidx.text.HAL_TIMEx_ConfigCommutEvent_DMA) refers to stm32h7xx_hal_tim_ex.o(.text.HAL_TIMEx_ConfigCommutEvent_DMA) for [Anonymous Symbol]
    stm32h7xx_hal_tim_ex.o(.text.TIMEx_DMACommutationCplt) refers to stm32h7xx_hal_tim_ex.o(.text.HAL_TIMEx_CommutCallback) for HAL_TIMEx_CommutCallback
    stm32h7xx_hal_tim_ex.o(.ARM.exidx.text.TIMEx_DMACommutationCplt) refers to stm32h7xx_hal_tim_ex.o(.text.TIMEx_DMACommutationCplt) for [Anonymous Symbol]
    stm32h7xx_hal_tim_ex.o(.text.TIMEx_DMACommutationHalfCplt) refers to stm32h7xx_hal_tim_ex.o(.text.HAL_TIMEx_CommutHalfCpltCallback) for HAL_TIMEx_CommutHalfCpltCallback
    stm32h7xx_hal_tim_ex.o(.ARM.exidx.text.TIMEx_DMACommutationHalfCplt) refers to stm32h7xx_hal_tim_ex.o(.text.TIMEx_DMACommutationHalfCplt) for [Anonymous Symbol]
    stm32h7xx_hal_tim_ex.o(.ARM.exidx.text.HAL_TIMEx_MasterConfigSynchronization) refers to stm32h7xx_hal_tim_ex.o(.text.HAL_TIMEx_MasterConfigSynchronization) for [Anonymous Symbol]
    stm32h7xx_hal_tim_ex.o(.ARM.exidx.text.HAL_TIMEx_ConfigBreakDeadTime) refers to stm32h7xx_hal_tim_ex.o(.text.HAL_TIMEx_ConfigBreakDeadTime) for [Anonymous Symbol]
    stm32h7xx_hal_tim_ex.o(.ARM.exidx.text.HAL_TIMEx_ConfigBreakInput) refers to stm32h7xx_hal_tim_ex.o(.text.HAL_TIMEx_ConfigBreakInput) for [Anonymous Symbol]
    stm32h7xx_hal_tim_ex.o(.ARM.exidx.text.HAL_TIMEx_RemapConfig) refers to stm32h7xx_hal_tim_ex.o(.text.HAL_TIMEx_RemapConfig) for [Anonymous Symbol]
    stm32h7xx_hal_tim_ex.o(.ARM.exidx.text.HAL_TIMEx_TISelection) refers to stm32h7xx_hal_tim_ex.o(.text.HAL_TIMEx_TISelection) for [Anonymous Symbol]
    stm32h7xx_hal_tim_ex.o(.ARM.exidx.text.HAL_TIMEx_GroupChannel5) refers to stm32h7xx_hal_tim_ex.o(.text.HAL_TIMEx_GroupChannel5) for [Anonymous Symbol]
    stm32h7xx_hal_tim_ex.o(.ARM.exidx.text.HAL_TIMEx_CommutCallback) refers to stm32h7xx_hal_tim_ex.o(.text.HAL_TIMEx_CommutCallback) for [Anonymous Symbol]
    stm32h7xx_hal_tim_ex.o(.ARM.exidx.text.HAL_TIMEx_CommutHalfCpltCallback) refers to stm32h7xx_hal_tim_ex.o(.text.HAL_TIMEx_CommutHalfCpltCallback) for [Anonymous Symbol]
    stm32h7xx_hal_tim_ex.o(.ARM.exidx.text.HAL_TIMEx_BreakCallback) refers to stm32h7xx_hal_tim_ex.o(.text.HAL_TIMEx_BreakCallback) for [Anonymous Symbol]
    stm32h7xx_hal_tim_ex.o(.ARM.exidx.text.HAL_TIMEx_Break2Callback) refers to stm32h7xx_hal_tim_ex.o(.text.HAL_TIMEx_Break2Callback) for [Anonymous Symbol]
    stm32h7xx_hal_tim_ex.o(.ARM.exidx.text.HAL_TIMEx_HallSensor_GetState) refers to stm32h7xx_hal_tim_ex.o(.text.HAL_TIMEx_HallSensor_GetState) for [Anonymous Symbol]
    stm32h7xx_hal_rcc.o(.text.HAL_RCC_DeInit) refers to timebase.o(.text.HAL_GetTick) for HAL_GetTick
    stm32h7xx_hal_rcc.o(.text.HAL_RCC_DeInit) refers to system_stm32h7xx.o(.data.SystemCoreClock) for SystemCoreClock
    stm32h7xx_hal_rcc.o(.text.HAL_RCC_DeInit) refers to stm32h7xx_hal.o(.data.uwTickPrio) for uwTickPrio
    stm32h7xx_hal_rcc.o(.text.HAL_RCC_DeInit) refers to timebase.o(.text.HAL_InitTick) for HAL_InitTick
    stm32h7xx_hal_rcc.o(.ARM.exidx.text.HAL_RCC_DeInit) refers to stm32h7xx_hal_rcc.o(.text.HAL_RCC_DeInit) for [Anonymous Symbol]
    stm32h7xx_hal_rcc.o(.text.HAL_RCC_OscConfig) refers to timebase.o(.text.HAL_GetTick) for HAL_GetTick
    stm32h7xx_hal_rcc.o(.text.HAL_RCC_OscConfig) refers to stm32h7xx_hal.o(.text.HAL_GetREVID) for HAL_GetREVID
    stm32h7xx_hal_rcc.o(.ARM.exidx.text.HAL_RCC_OscConfig) refers to stm32h7xx_hal_rcc.o(.text.HAL_RCC_OscConfig) for [Anonymous Symbol]
    stm32h7xx_hal_rcc.o(.text.HAL_RCC_ClockConfig) refers to timebase.o(.text.HAL_GetTick) for HAL_GetTick
    stm32h7xx_hal_rcc.o(.text.HAL_RCC_ClockConfig) refers to stm32h7xx_hal_rcc.o(.text.HAL_RCC_GetSysClockFreq) for HAL_RCC_GetSysClockFreq
    stm32h7xx_hal_rcc.o(.text.HAL_RCC_ClockConfig) refers to system_stm32h7xx.o(.rodata.D1CorePrescTable) for D1CorePrescTable
    stm32h7xx_hal_rcc.o(.text.HAL_RCC_ClockConfig) refers to system_stm32h7xx.o(.data.SystemCoreClock) for SystemCoreClock
    stm32h7xx_hal_rcc.o(.text.HAL_RCC_ClockConfig) refers to stm32h7xx_hal.o(.data.uwTickPrio) for uwTickPrio
    stm32h7xx_hal_rcc.o(.text.HAL_RCC_ClockConfig) refers to timebase.o(.text.HAL_InitTick) for HAL_InitTick
    stm32h7xx_hal_rcc.o(.ARM.exidx.text.HAL_RCC_ClockConfig) refers to stm32h7xx_hal_rcc.o(.text.HAL_RCC_ClockConfig) for [Anonymous Symbol]
    stm32h7xx_hal_rcc.o(.ARM.exidx.text.HAL_RCC_GetSysClockFreq) refers to stm32h7xx_hal_rcc.o(.text.HAL_RCC_GetSysClockFreq) for [Anonymous Symbol]
    stm32h7xx_hal_rcc.o(.text.HAL_RCC_MCOConfig) refers to stm32h7xx_hal_gpio.o(.text.HAL_GPIO_Init) for HAL_GPIO_Init
    stm32h7xx_hal_rcc.o(.ARM.exidx.text.HAL_RCC_MCOConfig) refers to stm32h7xx_hal_rcc.o(.text.HAL_RCC_MCOConfig) for [Anonymous Symbol]
    stm32h7xx_hal_rcc.o(.ARM.exidx.text.HAL_RCC_EnableCSS) refers to stm32h7xx_hal_rcc.o(.text.HAL_RCC_EnableCSS) for [Anonymous Symbol]
    stm32h7xx_hal_rcc.o(.ARM.exidx.text.HAL_RCC_DisableCSS) refers to stm32h7xx_hal_rcc.o(.text.HAL_RCC_DisableCSS) for [Anonymous Symbol]
    stm32h7xx_hal_rcc.o(.text.HAL_RCC_GetHCLKFreq) refers to stm32h7xx_hal_rcc_ex.o(.text.HAL_RCCEx_GetD1SysClockFreq) for HAL_RCCEx_GetD1SysClockFreq
    stm32h7xx_hal_rcc.o(.text.HAL_RCC_GetHCLKFreq) refers to system_stm32h7xx.o(.rodata.D1CorePrescTable) for D1CorePrescTable
    stm32h7xx_hal_rcc.o(.text.HAL_RCC_GetHCLKFreq) refers to system_stm32h7xx.o(.data.SystemD2Clock) for SystemD2Clock
    stm32h7xx_hal_rcc.o(.ARM.exidx.text.HAL_RCC_GetHCLKFreq) refers to stm32h7xx_hal_rcc.o(.text.HAL_RCC_GetHCLKFreq) for [Anonymous Symbol]
    stm32h7xx_hal_rcc.o(.text.HAL_RCC_GetPCLK1Freq) refers to stm32h7xx_hal_rcc.o(.text.HAL_RCC_GetHCLKFreq) for HAL_RCC_GetHCLKFreq
    stm32h7xx_hal_rcc.o(.text.HAL_RCC_GetPCLK1Freq) refers to system_stm32h7xx.o(.rodata.D1CorePrescTable) for D1CorePrescTable
    stm32h7xx_hal_rcc.o(.ARM.exidx.text.HAL_RCC_GetPCLK1Freq) refers to stm32h7xx_hal_rcc.o(.text.HAL_RCC_GetPCLK1Freq) for [Anonymous Symbol]
    stm32h7xx_hal_rcc.o(.text.HAL_RCC_GetPCLK2Freq) refers to stm32h7xx_hal_rcc.o(.text.HAL_RCC_GetHCLKFreq) for HAL_RCC_GetHCLKFreq
    stm32h7xx_hal_rcc.o(.text.HAL_RCC_GetPCLK2Freq) refers to system_stm32h7xx.o(.rodata.D1CorePrescTable) for D1CorePrescTable
    stm32h7xx_hal_rcc.o(.ARM.exidx.text.HAL_RCC_GetPCLK2Freq) refers to stm32h7xx_hal_rcc.o(.text.HAL_RCC_GetPCLK2Freq) for [Anonymous Symbol]
    stm32h7xx_hal_rcc.o(.text.HAL_RCC_GetOscConfig) refers to stm32h7xx_hal.o(.text.HAL_GetREVID) for HAL_GetREVID
    stm32h7xx_hal_rcc.o(.ARM.exidx.text.HAL_RCC_GetOscConfig) refers to stm32h7xx_hal_rcc.o(.text.HAL_RCC_GetOscConfig) for [Anonymous Symbol]
    stm32h7xx_hal_rcc.o(.ARM.exidx.text.HAL_RCC_GetClockConfig) refers to stm32h7xx_hal_rcc.o(.text.HAL_RCC_GetClockConfig) for [Anonymous Symbol]
    stm32h7xx_hal_rcc.o(.text.HAL_RCC_NMI_IRQHandler) refers to stm32h7xx_hal_rcc.o(.text.HAL_RCC_CSSCallback) for HAL_RCC_CSSCallback
    stm32h7xx_hal_rcc.o(.ARM.exidx.text.HAL_RCC_NMI_IRQHandler) refers to stm32h7xx_hal_rcc.o(.text.HAL_RCC_NMI_IRQHandler) for [Anonymous Symbol]
    stm32h7xx_hal_rcc.o(.ARM.exidx.text.HAL_RCC_CSSCallback) refers to stm32h7xx_hal_rcc.o(.text.HAL_RCC_CSSCallback) for [Anonymous Symbol]
    stm32h7xx_hal_rcc_ex.o(.text.HAL_RCCEx_PeriphCLKConfig) refers to stm32h7xx_hal_rcc_ex.o(.text.RCCEx_PLL2_Config) for RCCEx_PLL2_Config
    stm32h7xx_hal_rcc_ex.o(.text.HAL_RCCEx_PeriphCLKConfig) refers to stm32h7xx_hal_rcc_ex.o(.text.RCCEx_PLL3_Config) for RCCEx_PLL3_Config
    stm32h7xx_hal_rcc_ex.o(.text.HAL_RCCEx_PeriphCLKConfig) refers to timebase.o(.text.HAL_GetTick) for HAL_GetTick
    stm32h7xx_hal_rcc_ex.o(.ARM.exidx.text.HAL_RCCEx_PeriphCLKConfig) refers to stm32h7xx_hal_rcc_ex.o(.text.HAL_RCCEx_PeriphCLKConfig) for [Anonymous Symbol]
    stm32h7xx_hal_rcc_ex.o(.text.RCCEx_PLL2_Config) refers to timebase.o(.text.HAL_GetTick) for HAL_GetTick
    stm32h7xx_hal_rcc_ex.o(.ARM.exidx.text.RCCEx_PLL2_Config) refers to stm32h7xx_hal_rcc_ex.o(.text.RCCEx_PLL2_Config) for [Anonymous Symbol]
    stm32h7xx_hal_rcc_ex.o(.text.RCCEx_PLL3_Config) refers to timebase.o(.text.HAL_GetTick) for HAL_GetTick
    stm32h7xx_hal_rcc_ex.o(.ARM.exidx.text.RCCEx_PLL3_Config) refers to stm32h7xx_hal_rcc_ex.o(.text.RCCEx_PLL3_Config) for [Anonymous Symbol]
    stm32h7xx_hal_rcc_ex.o(.ARM.exidx.text.HAL_RCCEx_GetPeriphCLKConfig) refers to stm32h7xx_hal_rcc_ex.o(.text.HAL_RCCEx_GetPeriphCLKConfig) for [Anonymous Symbol]
    stm32h7xx_hal_rcc_ex.o(.text.HAL_RCCEx_GetPeriphCLKFreq) refers to stm32h7xx_hal_rcc_ex.o(.text.HAL_RCCEx_GetPLL1ClockFreq) for HAL_RCCEx_GetPLL1ClockFreq
    stm32h7xx_hal_rcc_ex.o(.text.HAL_RCCEx_GetPeriphCLKFreq) refers to stm32h7xx_hal_rcc_ex.o(.text.HAL_RCCEx_GetPLL2ClockFreq) for HAL_RCCEx_GetPLL2ClockFreq
    stm32h7xx_hal_rcc_ex.o(.text.HAL_RCCEx_GetPeriphCLKFreq) refers to stm32h7xx_hal_rcc_ex.o(.text.HAL_RCCEx_GetPLL3ClockFreq) for HAL_RCCEx_GetPLL3ClockFreq
    stm32h7xx_hal_rcc_ex.o(.ARM.exidx.text.HAL_RCCEx_GetPeriphCLKFreq) refers to stm32h7xx_hal_rcc_ex.o(.text.HAL_RCCEx_GetPeriphCLKFreq) for [Anonymous Symbol]
    stm32h7xx_hal_rcc_ex.o(.ARM.exidx.text.HAL_RCCEx_GetPLL1ClockFreq) refers to stm32h7xx_hal_rcc_ex.o(.text.HAL_RCCEx_GetPLL1ClockFreq) for [Anonymous Symbol]
    stm32h7xx_hal_rcc_ex.o(.ARM.exidx.text.HAL_RCCEx_GetPLL2ClockFreq) refers to stm32h7xx_hal_rcc_ex.o(.text.HAL_RCCEx_GetPLL2ClockFreq) for [Anonymous Symbol]
    stm32h7xx_hal_rcc_ex.o(.ARM.exidx.text.HAL_RCCEx_GetPLL3ClockFreq) refers to stm32h7xx_hal_rcc_ex.o(.text.HAL_RCCEx_GetPLL3ClockFreq) for [Anonymous Symbol]
    stm32h7xx_hal_rcc_ex.o(.text.HAL_RCCEx_GetD1PCLK1Freq) refers to stm32h7xx_hal_rcc.o(.text.HAL_RCC_GetHCLKFreq) for HAL_RCC_GetHCLKFreq
    stm32h7xx_hal_rcc_ex.o(.text.HAL_RCCEx_GetD1PCLK1Freq) refers to system_stm32h7xx.o(.rodata.D1CorePrescTable) for D1CorePrescTable
    stm32h7xx_hal_rcc_ex.o(.ARM.exidx.text.HAL_RCCEx_GetD1PCLK1Freq) refers to stm32h7xx_hal_rcc_ex.o(.text.HAL_RCCEx_GetD1PCLK1Freq) for [Anonymous Symbol]
    stm32h7xx_hal_rcc_ex.o(.text.HAL_RCCEx_GetD3PCLK1Freq) refers to stm32h7xx_hal_rcc.o(.text.HAL_RCC_GetHCLKFreq) for HAL_RCC_GetHCLKFreq
    stm32h7xx_hal_rcc_ex.o(.text.HAL_RCCEx_GetD3PCLK1Freq) refers to system_stm32h7xx.o(.rodata.D1CorePrescTable) for D1CorePrescTable
    stm32h7xx_hal_rcc_ex.o(.ARM.exidx.text.HAL_RCCEx_GetD3PCLK1Freq) refers to stm32h7xx_hal_rcc_ex.o(.text.HAL_RCCEx_GetD3PCLK1Freq) for [Anonymous Symbol]
    stm32h7xx_hal_rcc_ex.o(.text.HAL_RCCEx_GetD1SysClockFreq) refers to stm32h7xx_hal_rcc.o(.text.HAL_RCC_GetSysClockFreq) for HAL_RCC_GetSysClockFreq
    stm32h7xx_hal_rcc_ex.o(.text.HAL_RCCEx_GetD1SysClockFreq) refers to system_stm32h7xx.o(.rodata.D1CorePrescTable) for D1CorePrescTable
    stm32h7xx_hal_rcc_ex.o(.text.HAL_RCCEx_GetD1SysClockFreq) refers to system_stm32h7xx.o(.data.SystemCoreClock) for SystemCoreClock
    stm32h7xx_hal_rcc_ex.o(.ARM.exidx.text.HAL_RCCEx_GetD1SysClockFreq) refers to stm32h7xx_hal_rcc_ex.o(.text.HAL_RCCEx_GetD1SysClockFreq) for [Anonymous Symbol]
    stm32h7xx_hal_rcc_ex.o(.ARM.exidx.text.HAL_RCCEx_EnableLSECSS) refers to stm32h7xx_hal_rcc_ex.o(.text.HAL_RCCEx_EnableLSECSS) for [Anonymous Symbol]
    stm32h7xx_hal_rcc_ex.o(.ARM.exidx.text.HAL_RCCEx_DisableLSECSS) refers to stm32h7xx_hal_rcc_ex.o(.text.HAL_RCCEx_DisableLSECSS) for [Anonymous Symbol]
    stm32h7xx_hal_rcc_ex.o(.ARM.exidx.text.HAL_RCCEx_WakeUpStopCLKConfig) refers to stm32h7xx_hal_rcc_ex.o(.text.HAL_RCCEx_WakeUpStopCLKConfig) for [Anonymous Symbol]
    stm32h7xx_hal_rcc_ex.o(.ARM.exidx.text.HAL_RCCEx_KerWakeUpStopCLKConfig) refers to stm32h7xx_hal_rcc_ex.o(.text.HAL_RCCEx_KerWakeUpStopCLKConfig) for [Anonymous Symbol]
    stm32h7xx_hal_rcc_ex.o(.ARM.exidx.text.HAL_RCCEx_WWDGxSysResetConfig) refers to stm32h7xx_hal_rcc_ex.o(.text.HAL_RCCEx_WWDGxSysResetConfig) for [Anonymous Symbol]
    stm32h7xx_hal_rcc_ex.o(.text.HAL_RCCEx_CRSConfig) refers to stm32h7xx_hal.o(.text.HAL_GetREVID) for HAL_GetREVID
    stm32h7xx_hal_rcc_ex.o(.ARM.exidx.text.HAL_RCCEx_CRSConfig) refers to stm32h7xx_hal_rcc_ex.o(.text.HAL_RCCEx_CRSConfig) for [Anonymous Symbol]
    stm32h7xx_hal_rcc_ex.o(.ARM.exidx.text.HAL_RCCEx_CRSSoftwareSynchronizationGenerate) refers to stm32h7xx_hal_rcc_ex.o(.text.HAL_RCCEx_CRSSoftwareSynchronizationGenerate) for [Anonymous Symbol]
    stm32h7xx_hal_rcc_ex.o(.ARM.exidx.text.HAL_RCCEx_CRSGetSynchronizationInfo) refers to stm32h7xx_hal_rcc_ex.o(.text.HAL_RCCEx_CRSGetSynchronizationInfo) for [Anonymous Symbol]
    stm32h7xx_hal_rcc_ex.o(.text.HAL_RCCEx_CRSWaitSynchronization) refers to timebase.o(.text.HAL_GetTick) for HAL_GetTick
    stm32h7xx_hal_rcc_ex.o(.ARM.exidx.text.HAL_RCCEx_CRSWaitSynchronization) refers to stm32h7xx_hal_rcc_ex.o(.text.HAL_RCCEx_CRSWaitSynchronization) for [Anonymous Symbol]
    stm32h7xx_hal_rcc_ex.o(.text.HAL_RCCEx_CRS_IRQHandler) refers to stm32h7xx_hal_rcc_ex.o(.text.HAL_RCCEx_CRS_SyncOkCallback) for HAL_RCCEx_CRS_SyncOkCallback
    stm32h7xx_hal_rcc_ex.o(.text.HAL_RCCEx_CRS_IRQHandler) refers to stm32h7xx_hal_rcc_ex.o(.text.HAL_RCCEx_CRS_SyncWarnCallback) for HAL_RCCEx_CRS_SyncWarnCallback
    stm32h7xx_hal_rcc_ex.o(.text.HAL_RCCEx_CRS_IRQHandler) refers to stm32h7xx_hal_rcc_ex.o(.text.HAL_RCCEx_CRS_ExpectedSyncCallback) for HAL_RCCEx_CRS_ExpectedSyncCallback
    stm32h7xx_hal_rcc_ex.o(.text.HAL_RCCEx_CRS_IRQHandler) refers to stm32h7xx_hal_rcc_ex.o(.text.HAL_RCCEx_CRS_ErrorCallback) for HAL_RCCEx_CRS_ErrorCallback
    stm32h7xx_hal_rcc_ex.o(.ARM.exidx.text.HAL_RCCEx_CRS_IRQHandler) refers to stm32h7xx_hal_rcc_ex.o(.text.HAL_RCCEx_CRS_IRQHandler) for [Anonymous Symbol]
    stm32h7xx_hal_rcc_ex.o(.ARM.exidx.text.HAL_RCCEx_CRS_SyncOkCallback) refers to stm32h7xx_hal_rcc_ex.o(.text.HAL_RCCEx_CRS_SyncOkCallback) for [Anonymous Symbol]
    stm32h7xx_hal_rcc_ex.o(.ARM.exidx.text.HAL_RCCEx_CRS_SyncWarnCallback) refers to stm32h7xx_hal_rcc_ex.o(.text.HAL_RCCEx_CRS_SyncWarnCallback) for [Anonymous Symbol]
    stm32h7xx_hal_rcc_ex.o(.ARM.exidx.text.HAL_RCCEx_CRS_ExpectedSyncCallback) refers to stm32h7xx_hal_rcc_ex.o(.text.HAL_RCCEx_CRS_ExpectedSyncCallback) for [Anonymous Symbol]
    stm32h7xx_hal_rcc_ex.o(.ARM.exidx.text.HAL_RCCEx_CRS_ErrorCallback) refers to stm32h7xx_hal_rcc_ex.o(.text.HAL_RCCEx_CRS_ErrorCallback) for [Anonymous Symbol]
    stm32h7xx_hal_flash.o(.text.HAL_FLASH_Program) refers to stm32h7xx_hal_flash.o(.bss.pFlash) for pFlash
    stm32h7xx_hal_flash.o(.text.HAL_FLASH_Program) refers to stm32h7xx_hal_flash.o(.text.FLASH_WaitForLastOperation) for FLASH_WaitForLastOperation
    stm32h7xx_hal_flash.o(.ARM.exidx.text.HAL_FLASH_Program) refers to stm32h7xx_hal_flash.o(.text.HAL_FLASH_Program) for [Anonymous Symbol]
    stm32h7xx_hal_flash.o(.text.FLASH_WaitForLastOperation) refers to timebase.o(.text.HAL_GetTick) for HAL_GetTick
    stm32h7xx_hal_flash.o(.text.FLASH_WaitForLastOperation) refers to stm32h7xx_hal_flash.o(.bss.pFlash) for pFlash
    stm32h7xx_hal_flash.o(.ARM.exidx.text.FLASH_WaitForLastOperation) refers to stm32h7xx_hal_flash.o(.text.FLASH_WaitForLastOperation) for [Anonymous Symbol]
    stm32h7xx_hal_flash.o(.text.HAL_FLASH_Program_IT) refers to stm32h7xx_hal_flash.o(.bss.pFlash) for pFlash
    stm32h7xx_hal_flash.o(.text.HAL_FLASH_Program_IT) refers to stm32h7xx_hal_flash.o(.text.FLASH_WaitForLastOperation) for FLASH_WaitForLastOperation
    stm32h7xx_hal_flash.o(.ARM.exidx.text.HAL_FLASH_Program_IT) refers to stm32h7xx_hal_flash.o(.text.HAL_FLASH_Program_IT) for [Anonymous Symbol]
    stm32h7xx_hal_flash.o(.text.HAL_FLASH_IRQHandler) refers to stm32h7xx_hal_flash.o(.bss.pFlash) for pFlash
    stm32h7xx_hal_flash.o(.text.HAL_FLASH_IRQHandler) refers to stm32h7xx_hal_flash.o(.text.HAL_FLASH_EndOfOperationCallback) for HAL_FLASH_EndOfOperationCallback
    stm32h7xx_hal_flash.o(.text.HAL_FLASH_IRQHandler) refers to stm32h7xx_hal_flash_ex.o(.text.FLASH_Erase_Sector) for FLASH_Erase_Sector
    stm32h7xx_hal_flash.o(.text.HAL_FLASH_IRQHandler) refers to stm32h7xx_hal_flash.o(.text.HAL_FLASH_OperationErrorCallback) for HAL_FLASH_OperationErrorCallback
    stm32h7xx_hal_flash.o(.ARM.exidx.text.HAL_FLASH_IRQHandler) refers to stm32h7xx_hal_flash.o(.text.HAL_FLASH_IRQHandler) for [Anonymous Symbol]
    stm32h7xx_hal_flash.o(.ARM.exidx.text.HAL_FLASH_EndOfOperationCallback) refers to stm32h7xx_hal_flash.o(.text.HAL_FLASH_EndOfOperationCallback) for [Anonymous Symbol]
    stm32h7xx_hal_flash.o(.ARM.exidx.text.HAL_FLASH_OperationErrorCallback) refers to stm32h7xx_hal_flash.o(.text.HAL_FLASH_OperationErrorCallback) for [Anonymous Symbol]
    stm32h7xx_hal_flash.o(.ARM.exidx.text.HAL_FLASH_Unlock) refers to stm32h7xx_hal_flash.o(.text.HAL_FLASH_Unlock) for [Anonymous Symbol]
    stm32h7xx_hal_flash.o(.ARM.exidx.text.HAL_FLASH_Lock) refers to stm32h7xx_hal_flash.o(.text.HAL_FLASH_Lock) for [Anonymous Symbol]
    stm32h7xx_hal_flash.o(.ARM.exidx.text.HAL_FLASH_OB_Unlock) refers to stm32h7xx_hal_flash.o(.text.HAL_FLASH_OB_Unlock) for [Anonymous Symbol]
    stm32h7xx_hal_flash.o(.ARM.exidx.text.HAL_FLASH_OB_Lock) refers to stm32h7xx_hal_flash.o(.text.HAL_FLASH_OB_Lock) for [Anonymous Symbol]
    stm32h7xx_hal_flash.o(.text.HAL_FLASH_OB_Launch) refers to stm32h7xx_hal_flash.o(.text.FLASH_CRC_WaitForLastOperation) for FLASH_CRC_WaitForLastOperation
    stm32h7xx_hal_flash.o(.text.HAL_FLASH_OB_Launch) refers to stm32h7xx_hal_flash.o(.text.FLASH_OB_WaitForLastOperation) for FLASH_OB_WaitForLastOperation
    stm32h7xx_hal_flash.o(.ARM.exidx.text.HAL_FLASH_OB_Launch) refers to stm32h7xx_hal_flash.o(.text.HAL_FLASH_OB_Launch) for [Anonymous Symbol]
    stm32h7xx_hal_flash.o(.text.FLASH_CRC_WaitForLastOperation) refers to timebase.o(.text.HAL_GetTick) for HAL_GetTick
    stm32h7xx_hal_flash.o(.text.FLASH_CRC_WaitForLastOperation) refers to stm32h7xx_hal_flash.o(.bss.pFlash) for pFlash
    stm32h7xx_hal_flash.o(.ARM.exidx.text.FLASH_CRC_WaitForLastOperation) refers to stm32h7xx_hal_flash.o(.text.FLASH_CRC_WaitForLastOperation) for [Anonymous Symbol]
    stm32h7xx_hal_flash.o(.text.FLASH_OB_WaitForLastOperation) refers to timebase.o(.text.HAL_GetTick) for HAL_GetTick
    stm32h7xx_hal_flash.o(.text.FLASH_OB_WaitForLastOperation) refers to stm32h7xx_hal_flash.o(.bss.pFlash) for pFlash
    stm32h7xx_hal_flash.o(.ARM.exidx.text.FLASH_OB_WaitForLastOperation) refers to stm32h7xx_hal_flash.o(.text.FLASH_OB_WaitForLastOperation) for [Anonymous Symbol]
    stm32h7xx_hal_flash.o(.text.HAL_FLASH_GetError) refers to stm32h7xx_hal_flash.o(.bss.pFlash) for pFlash
    stm32h7xx_hal_flash.o(.ARM.exidx.text.HAL_FLASH_GetError) refers to stm32h7xx_hal_flash.o(.text.HAL_FLASH_GetError) for [Anonymous Symbol]
    stm32h7xx_hal_flash_ex.o(.text.HAL_FLASHEx_Erase) refers to stm32h7xx_hal_flash.o(.bss.pFlash) for pFlash
    stm32h7xx_hal_flash_ex.o(.text.HAL_FLASHEx_Erase) refers to stm32h7xx_hal_flash.o(.text.FLASH_WaitForLastOperation) for FLASH_WaitForLastOperation
    stm32h7xx_hal_flash_ex.o(.text.HAL_FLASHEx_Erase) refers to stm32h7xx_hal_flash_ex.o(.text.FLASH_MassErase) for FLASH_MassErase
    stm32h7xx_hal_flash_ex.o(.text.HAL_FLASHEx_Erase) refers to stm32h7xx_hal_flash_ex.o(.text.FLASH_Erase_Sector) for FLASH_Erase_Sector
    stm32h7xx_hal_flash_ex.o(.ARM.exidx.text.HAL_FLASHEx_Erase) refers to stm32h7xx_hal_flash_ex.o(.text.HAL_FLASHEx_Erase) for [Anonymous Symbol]
    stm32h7xx_hal_flash_ex.o(.ARM.exidx.text.FLASH_MassErase) refers to stm32h7xx_hal_flash_ex.o(.text.FLASH_MassErase) for [Anonymous Symbol]
    stm32h7xx_hal_flash_ex.o(.ARM.exidx.text.FLASH_Erase_Sector) refers to stm32h7xx_hal_flash_ex.o(.text.FLASH_Erase_Sector) for [Anonymous Symbol]
    stm32h7xx_hal_flash_ex.o(.text.HAL_FLASHEx_Erase_IT) refers to stm32h7xx_hal_flash.o(.bss.pFlash) for pFlash
    stm32h7xx_hal_flash_ex.o(.text.HAL_FLASHEx_Erase_IT) refers to stm32h7xx_hal_flash.o(.text.FLASH_WaitForLastOperation) for FLASH_WaitForLastOperation
    stm32h7xx_hal_flash_ex.o(.text.HAL_FLASHEx_Erase_IT) refers to stm32h7xx_hal_flash_ex.o(.text.FLASH_MassErase) for FLASH_MassErase
    stm32h7xx_hal_flash_ex.o(.text.HAL_FLASHEx_Erase_IT) refers to stm32h7xx_hal_flash_ex.o(.text.FLASH_Erase_Sector) for FLASH_Erase_Sector
    stm32h7xx_hal_flash_ex.o(.ARM.exidx.text.HAL_FLASHEx_Erase_IT) refers to stm32h7xx_hal_flash_ex.o(.text.HAL_FLASHEx_Erase_IT) for [Anonymous Symbol]
    stm32h7xx_hal_flash_ex.o(.text.HAL_FLASHEx_OBProgram) refers to stm32h7xx_hal_flash.o(.bss.pFlash) for pFlash
    stm32h7xx_hal_flash_ex.o(.text.HAL_FLASHEx_OBProgram) refers to stm32h7xx_hal_flash.o(.text.FLASH_WaitForLastOperation) for FLASH_WaitForLastOperation
    stm32h7xx_hal_flash_ex.o(.text.HAL_FLASHEx_OBProgram) refers to stm32h7xx_hal_flash_ex.o(.text.FLASH_OB_EnableWRP) for FLASH_OB_EnableWRP
    stm32h7xx_hal_flash_ex.o(.text.HAL_FLASHEx_OBProgram) refers to stm32h7xx_hal_flash_ex.o(.text.FLASH_OB_DisableWRP) for FLASH_OB_DisableWRP
    stm32h7xx_hal_flash_ex.o(.text.HAL_FLASHEx_OBProgram) refers to stm32h7xx_hal_flash_ex.o(.text.FLASH_OB_RDPConfig) for FLASH_OB_RDPConfig
    stm32h7xx_hal_flash_ex.o(.text.HAL_FLASHEx_OBProgram) refers to stm32h7xx_hal_flash_ex.o(.text.FLASH_OB_UserConfig) for FLASH_OB_UserConfig
    stm32h7xx_hal_flash_ex.o(.text.HAL_FLASHEx_OBProgram) refers to stm32h7xx_hal_flash_ex.o(.text.FLASH_OB_PCROPConfig) for FLASH_OB_PCROPConfig
    stm32h7xx_hal_flash_ex.o(.text.HAL_FLASHEx_OBProgram) refers to stm32h7xx_hal_flash_ex.o(.text.FLASH_OB_BOR_LevelConfig) for FLASH_OB_BOR_LevelConfig
    stm32h7xx_hal_flash_ex.o(.text.HAL_FLASHEx_OBProgram) refers to stm32h7xx_hal_flash_ex.o(.text.FLASH_OB_BootAddConfig) for FLASH_OB_BootAddConfig
    stm32h7xx_hal_flash_ex.o(.text.HAL_FLASHEx_OBProgram) refers to stm32h7xx_hal_flash_ex.o(.text.FLASH_OB_SecureAreaConfig) for FLASH_OB_SecureAreaConfig
    stm32h7xx_hal_flash_ex.o(.ARM.exidx.text.HAL_FLASHEx_OBProgram) refers to stm32h7xx_hal_flash_ex.o(.text.HAL_FLASHEx_OBProgram) for [Anonymous Symbol]
    stm32h7xx_hal_flash_ex.o(.ARM.exidx.text.FLASH_OB_EnableWRP) refers to stm32h7xx_hal_flash_ex.o(.text.FLASH_OB_EnableWRP) for [Anonymous Symbol]
    stm32h7xx_hal_flash_ex.o(.ARM.exidx.text.FLASH_OB_DisableWRP) refers to stm32h7xx_hal_flash_ex.o(.text.FLASH_OB_DisableWRP) for [Anonymous Symbol]
    stm32h7xx_hal_flash_ex.o(.ARM.exidx.text.FLASH_OB_RDPConfig) refers to stm32h7xx_hal_flash_ex.o(.text.FLASH_OB_RDPConfig) for [Anonymous Symbol]
    stm32h7xx_hal_flash_ex.o(.ARM.exidx.text.FLASH_OB_UserConfig) refers to stm32h7xx_hal_flash_ex.o(.text.FLASH_OB_UserConfig) for [Anonymous Symbol]
    stm32h7xx_hal_flash_ex.o(.ARM.exidx.text.FLASH_OB_PCROPConfig) refers to stm32h7xx_hal_flash_ex.o(.text.FLASH_OB_PCROPConfig) for [Anonymous Symbol]
    stm32h7xx_hal_flash_ex.o(.ARM.exidx.text.FLASH_OB_BOR_LevelConfig) refers to stm32h7xx_hal_flash_ex.o(.text.FLASH_OB_BOR_LevelConfig) for [Anonymous Symbol]
    stm32h7xx_hal_flash_ex.o(.ARM.exidx.text.FLASH_OB_BootAddConfig) refers to stm32h7xx_hal_flash_ex.o(.text.FLASH_OB_BootAddConfig) for [Anonymous Symbol]
    stm32h7xx_hal_flash_ex.o(.ARM.exidx.text.FLASH_OB_SecureAreaConfig) refers to stm32h7xx_hal_flash_ex.o(.text.FLASH_OB_SecureAreaConfig) for [Anonymous Symbol]
    stm32h7xx_hal_flash_ex.o(.text.HAL_FLASHEx_OBGetConfig) refers to stm32h7xx_hal_flash_ex.o(.text.FLASH_OB_GetRDP) for FLASH_OB_GetRDP
    stm32h7xx_hal_flash_ex.o(.text.HAL_FLASHEx_OBGetConfig) refers to stm32h7xx_hal_flash_ex.o(.text.FLASH_OB_GetUser) for FLASH_OB_GetUser
    stm32h7xx_hal_flash_ex.o(.text.HAL_FLASHEx_OBGetConfig) refers to stm32h7xx_hal_flash_ex.o(.text.FLASH_OB_GetBOR) for FLASH_OB_GetBOR
    stm32h7xx_hal_flash_ex.o(.text.HAL_FLASHEx_OBGetConfig) refers to stm32h7xx_hal_flash_ex.o(.text.FLASH_OB_GetWRP) for FLASH_OB_GetWRP
    stm32h7xx_hal_flash_ex.o(.text.HAL_FLASHEx_OBGetConfig) refers to stm32h7xx_hal_flash_ex.o(.text.FLASH_OB_GetPCROP) for FLASH_OB_GetPCROP
    stm32h7xx_hal_flash_ex.o(.text.HAL_FLASHEx_OBGetConfig) refers to stm32h7xx_hal_flash_ex.o(.text.FLASH_OB_GetSecureArea) for FLASH_OB_GetSecureArea
    stm32h7xx_hal_flash_ex.o(.text.HAL_FLASHEx_OBGetConfig) refers to stm32h7xx_hal_flash_ex.o(.text.FLASH_OB_GetBootAdd) for FLASH_OB_GetBootAdd
    stm32h7xx_hal_flash_ex.o(.ARM.exidx.text.HAL_FLASHEx_OBGetConfig) refers to stm32h7xx_hal_flash_ex.o(.text.HAL_FLASHEx_OBGetConfig) for [Anonymous Symbol]
    stm32h7xx_hal_flash_ex.o(.ARM.exidx.text.FLASH_OB_GetRDP) refers to stm32h7xx_hal_flash_ex.o(.text.FLASH_OB_GetRDP) for [Anonymous Symbol]
    stm32h7xx_hal_flash_ex.o(.ARM.exidx.text.FLASH_OB_GetUser) refers to stm32h7xx_hal_flash_ex.o(.text.FLASH_OB_GetUser) for [Anonymous Symbol]
    stm32h7xx_hal_flash_ex.o(.ARM.exidx.text.FLASH_OB_GetBOR) refers to stm32h7xx_hal_flash_ex.o(.text.FLASH_OB_GetBOR) for [Anonymous Symbol]
    stm32h7xx_hal_flash_ex.o(.ARM.exidx.text.FLASH_OB_GetWRP) refers to stm32h7xx_hal_flash_ex.o(.text.FLASH_OB_GetWRP) for [Anonymous Symbol]
    stm32h7xx_hal_flash_ex.o(.ARM.exidx.text.FLASH_OB_GetPCROP) refers to stm32h7xx_hal_flash_ex.o(.text.FLASH_OB_GetPCROP) for [Anonymous Symbol]
    stm32h7xx_hal_flash_ex.o(.ARM.exidx.text.FLASH_OB_GetSecureArea) refers to stm32h7xx_hal_flash_ex.o(.text.FLASH_OB_GetSecureArea) for [Anonymous Symbol]
    stm32h7xx_hal_flash_ex.o(.ARM.exidx.text.FLASH_OB_GetBootAdd) refers to stm32h7xx_hal_flash_ex.o(.text.FLASH_OB_GetBootAdd) for [Anonymous Symbol]
    stm32h7xx_hal_flash_ex.o(.ARM.exidx.text.HAL_FLASHEx_Unlock_Bank1) refers to stm32h7xx_hal_flash_ex.o(.text.HAL_FLASHEx_Unlock_Bank1) for [Anonymous Symbol]
    stm32h7xx_hal_flash_ex.o(.ARM.exidx.text.HAL_FLASHEx_Lock_Bank1) refers to stm32h7xx_hal_flash_ex.o(.text.HAL_FLASHEx_Lock_Bank1) for [Anonymous Symbol]
    stm32h7xx_hal_flash_ex.o(.ARM.exidx.text.HAL_FLASHEx_Unlock_Bank2) refers to stm32h7xx_hal_flash_ex.o(.text.HAL_FLASHEx_Unlock_Bank2) for [Anonymous Symbol]
    stm32h7xx_hal_flash_ex.o(.ARM.exidx.text.HAL_FLASHEx_Lock_Bank2) refers to stm32h7xx_hal_flash_ex.o(.text.HAL_FLASHEx_Lock_Bank2) for [Anonymous Symbol]
    stm32h7xx_hal_flash_ex.o(.text.HAL_FLASHEx_ComputeCRC) refers to stm32h7xx_hal_flash.o(.text.FLASH_OB_WaitForLastOperation) for FLASH_OB_WaitForLastOperation
    stm32h7xx_hal_flash_ex.o(.text.HAL_FLASHEx_ComputeCRC) refers to stm32h7xx_hal_flash_ex.o(.text.FLASH_CRC_AddSector) for FLASH_CRC_AddSector
    stm32h7xx_hal_flash_ex.o(.text.HAL_FLASHEx_ComputeCRC) refers to stm32h7xx_hal_flash_ex.o(.text.FLASH_CRC_SelectAddress) for FLASH_CRC_SelectAddress
    stm32h7xx_hal_flash_ex.o(.text.HAL_FLASHEx_ComputeCRC) refers to stm32h7xx_hal_flash.o(.text.FLASH_CRC_WaitForLastOperation) for FLASH_CRC_WaitForLastOperation
    stm32h7xx_hal_flash_ex.o(.ARM.exidx.text.HAL_FLASHEx_ComputeCRC) refers to stm32h7xx_hal_flash_ex.o(.text.HAL_FLASHEx_ComputeCRC) for [Anonymous Symbol]
    stm32h7xx_hal_flash_ex.o(.ARM.exidx.text.FLASH_CRC_AddSector) refers to stm32h7xx_hal_flash_ex.o(.text.FLASH_CRC_AddSector) for [Anonymous Symbol]
    stm32h7xx_hal_flash_ex.o(.ARM.exidx.text.FLASH_CRC_SelectAddress) refers to stm32h7xx_hal_flash_ex.o(.text.FLASH_CRC_SelectAddress) for [Anonymous Symbol]
    stm32h7xx_hal_gpio.o(.ARM.exidx.text.HAL_GPIO_Init) refers to stm32h7xx_hal_gpio.o(.text.HAL_GPIO_Init) for [Anonymous Symbol]
    stm32h7xx_hal_gpio.o(.ARM.exidx.text.HAL_GPIO_DeInit) refers to stm32h7xx_hal_gpio.o(.text.HAL_GPIO_DeInit) for [Anonymous Symbol]
    stm32h7xx_hal_gpio.o(.ARM.exidx.text.HAL_GPIO_ReadPin) refers to stm32h7xx_hal_gpio.o(.text.HAL_GPIO_ReadPin) for [Anonymous Symbol]
    stm32h7xx_hal_gpio.o(.ARM.exidx.text.HAL_GPIO_WritePin) refers to stm32h7xx_hal_gpio.o(.text.HAL_GPIO_WritePin) for [Anonymous Symbol]
    stm32h7xx_hal_gpio.o(.ARM.exidx.text.HAL_GPIO_TogglePin) refers to stm32h7xx_hal_gpio.o(.text.HAL_GPIO_TogglePin) for [Anonymous Symbol]
    stm32h7xx_hal_gpio.o(.ARM.exidx.text.HAL_GPIO_LockPin) refers to stm32h7xx_hal_gpio.o(.text.HAL_GPIO_LockPin) for [Anonymous Symbol]
    stm32h7xx_hal_gpio.o(.text.HAL_GPIO_EXTI_IRQHandler) refers to stm32h7xx_hal_gpio.o(.text.HAL_GPIO_EXTI_Callback) for HAL_GPIO_EXTI_Callback
    stm32h7xx_hal_gpio.o(.ARM.exidx.text.HAL_GPIO_EXTI_IRQHandler) refers to stm32h7xx_hal_gpio.o(.text.HAL_GPIO_EXTI_IRQHandler) for [Anonymous Symbol]
    stm32h7xx_hal_gpio.o(.ARM.exidx.text.HAL_GPIO_EXTI_Callback) refers to stm32h7xx_hal_gpio.o(.text.HAL_GPIO_EXTI_Callback) for [Anonymous Symbol]
    stm32h7xx_hal_hsem.o(.ARM.exidx.text.HAL_HSEM_Take) refers to stm32h7xx_hal_hsem.o(.text.HAL_HSEM_Take) for [Anonymous Symbol]
    stm32h7xx_hal_hsem.o(.ARM.exidx.text.HAL_HSEM_FastTake) refers to stm32h7xx_hal_hsem.o(.text.HAL_HSEM_FastTake) for [Anonymous Symbol]
    stm32h7xx_hal_hsem.o(.ARM.exidx.text.HAL_HSEM_IsSemTaken) refers to stm32h7xx_hal_hsem.o(.text.HAL_HSEM_IsSemTaken) for [Anonymous Symbol]
    stm32h7xx_hal_hsem.o(.ARM.exidx.text.HAL_HSEM_Release) refers to stm32h7xx_hal_hsem.o(.text.HAL_HSEM_Release) for [Anonymous Symbol]
    stm32h7xx_hal_hsem.o(.ARM.exidx.text.HAL_HSEM_ReleaseAll) refers to stm32h7xx_hal_hsem.o(.text.HAL_HSEM_ReleaseAll) for [Anonymous Symbol]
    stm32h7xx_hal_hsem.o(.ARM.exidx.text.HAL_HSEM_SetClearKey) refers to stm32h7xx_hal_hsem.o(.text.HAL_HSEM_SetClearKey) for [Anonymous Symbol]
    stm32h7xx_hal_hsem.o(.ARM.exidx.text.HAL_HSEM_GetClearKey) refers to stm32h7xx_hal_hsem.o(.text.HAL_HSEM_GetClearKey) for [Anonymous Symbol]
    stm32h7xx_hal_hsem.o(.ARM.exidx.text.HAL_HSEM_ActivateNotification) refers to stm32h7xx_hal_hsem.o(.text.HAL_HSEM_ActivateNotification) for [Anonymous Symbol]
    stm32h7xx_hal_hsem.o(.ARM.exidx.text.HAL_HSEM_DeactivateNotification) refers to stm32h7xx_hal_hsem.o(.text.HAL_HSEM_DeactivateNotification) for [Anonymous Symbol]
    stm32h7xx_hal_hsem.o(.text.HAL_HSEM_IRQHandler) refers to stm32h7xx_hal_hsem.o(.text.HAL_HSEM_FreeCallback) for HAL_HSEM_FreeCallback
    stm32h7xx_hal_hsem.o(.ARM.exidx.text.HAL_HSEM_IRQHandler) refers to stm32h7xx_hal_hsem.o(.text.HAL_HSEM_IRQHandler) for [Anonymous Symbol]
    stm32h7xx_hal_hsem.o(.ARM.exidx.text.HAL_HSEM_FreeCallback) refers to stm32h7xx_hal_hsem.o(.text.HAL_HSEM_FreeCallback) for [Anonymous Symbol]
    stm32h7xx_hal_dma.o(.text.HAL_DMA_Init) refers to timebase.o(.text.HAL_GetTick) for HAL_GetTick
    stm32h7xx_hal_dma.o(.text.HAL_DMA_Init) refers to stm32h7xx_hal_dma.o(.text.DMA_CheckFifoParam) for DMA_CheckFifoParam
    stm32h7xx_hal_dma.o(.text.HAL_DMA_Init) refers to stm32h7xx_hal_dma.o(.text.DMA_CalcBaseAndBitshift) for DMA_CalcBaseAndBitshift
    stm32h7xx_hal_dma.o(.text.HAL_DMA_Init) refers to stm32h7xx_hal_dma.o(.text.DMA_CalcDMAMUXChannelBaseAndMask) for DMA_CalcDMAMUXChannelBaseAndMask
    stm32h7xx_hal_dma.o(.text.HAL_DMA_Init) refers to stm32h7xx_hal_dma.o(.text.DMA_CalcDMAMUXRequestGenBaseAndMask) for DMA_CalcDMAMUXRequestGenBaseAndMask
    stm32h7xx_hal_dma.o(.ARM.exidx.text.HAL_DMA_Init) refers to stm32h7xx_hal_dma.o(.text.HAL_DMA_Init) for [Anonymous Symbol]
    stm32h7xx_hal_dma.o(.ARM.exidx.text.DMA_CheckFifoParam) refers to stm32h7xx_hal_dma.o(.text.DMA_CheckFifoParam) for [Anonymous Symbol]
    stm32h7xx_hal_dma.o(.text.DMA_CalcBaseAndBitshift) refers to stm32h7xx_hal_dma.o(.rodata.DMA_CalcBaseAndBitshift.flagBitshiftOffset) for DMA_CalcBaseAndBitshift.flagBitshiftOffset
    stm32h7xx_hal_dma.o(.ARM.exidx.text.DMA_CalcBaseAndBitshift) refers to stm32h7xx_hal_dma.o(.text.DMA_CalcBaseAndBitshift) for [Anonymous Symbol]
    stm32h7xx_hal_dma.o(.ARM.exidx.text.DMA_CalcDMAMUXChannelBaseAndMask) refers to stm32h7xx_hal_dma.o(.text.DMA_CalcDMAMUXChannelBaseAndMask) for [Anonymous Symbol]
    stm32h7xx_hal_dma.o(.ARM.exidx.text.DMA_CalcDMAMUXRequestGenBaseAndMask) refers to stm32h7xx_hal_dma.o(.text.DMA_CalcDMAMUXRequestGenBaseAndMask) for [Anonymous Symbol]
    stm32h7xx_hal_dma.o(.text.HAL_DMA_DeInit) refers to stm32h7xx_hal_dma.o(.text.DMA_CalcBaseAndBitshift) for DMA_CalcBaseAndBitshift
    stm32h7xx_hal_dma.o(.text.HAL_DMA_DeInit) refers to stm32h7xx_hal_dma.o(.text.DMA_CalcDMAMUXChannelBaseAndMask) for DMA_CalcDMAMUXChannelBaseAndMask
    stm32h7xx_hal_dma.o(.text.HAL_DMA_DeInit) refers to stm32h7xx_hal_dma.o(.text.DMA_CalcDMAMUXRequestGenBaseAndMask) for DMA_CalcDMAMUXRequestGenBaseAndMask
    stm32h7xx_hal_dma.o(.ARM.exidx.text.HAL_DMA_DeInit) refers to stm32h7xx_hal_dma.o(.text.HAL_DMA_DeInit) for [Anonymous Symbol]
    stm32h7xx_hal_dma.o(.text.HAL_DMA_Start) refers to stm32h7xx_hal_dma.o(.text.DMA_SetConfig) for DMA_SetConfig
    stm32h7xx_hal_dma.o(.ARM.exidx.text.HAL_DMA_Start) refers to stm32h7xx_hal_dma.o(.text.HAL_DMA_Start) for [Anonymous Symbol]
    stm32h7xx_hal_dma.o(.ARM.exidx.text.DMA_SetConfig) refers to stm32h7xx_hal_dma.o(.text.DMA_SetConfig) for [Anonymous Symbol]
    stm32h7xx_hal_dma.o(.text.HAL_DMA_Start_IT) refers to stm32h7xx_hal_dma.o(.text.DMA_SetConfig) for DMA_SetConfig
    stm32h7xx_hal_dma.o(.ARM.exidx.text.HAL_DMA_Start_IT) refers to stm32h7xx_hal_dma.o(.text.HAL_DMA_Start_IT) for [Anonymous Symbol]
    stm32h7xx_hal_dma.o(.text.HAL_DMA_Abort) refers to timebase.o(.text.HAL_GetTick) for HAL_GetTick
    stm32h7xx_hal_dma.o(.ARM.exidx.text.HAL_DMA_Abort) refers to stm32h7xx_hal_dma.o(.text.HAL_DMA_Abort) for [Anonymous Symbol]
    stm32h7xx_hal_dma.o(.ARM.exidx.text.HAL_DMA_Abort_IT) refers to stm32h7xx_hal_dma.o(.text.HAL_DMA_Abort_IT) for [Anonymous Symbol]
    stm32h7xx_hal_dma.o(.text.HAL_DMA_PollForTransfer) refers to timebase.o(.text.HAL_GetTick) for HAL_GetTick
    stm32h7xx_hal_dma.o(.text.HAL_DMA_PollForTransfer) refers to stm32h7xx_hal_dma.o(.text.HAL_DMA_Abort) for HAL_DMA_Abort
    stm32h7xx_hal_dma.o(.ARM.exidx.text.HAL_DMA_PollForTransfer) refers to stm32h7xx_hal_dma.o(.text.HAL_DMA_PollForTransfer) for [Anonymous Symbol]
    stm32h7xx_hal_dma.o(.text.HAL_DMA_IRQHandler) refers to system_stm32h7xx.o(.data.SystemCoreClock) for SystemCoreClock
    stm32h7xx_hal_dma.o(.ARM.exidx.text.HAL_DMA_IRQHandler) refers to stm32h7xx_hal_dma.o(.text.HAL_DMA_IRQHandler) for [Anonymous Symbol]
    stm32h7xx_hal_dma.o(.ARM.exidx.text.HAL_DMA_RegisterCallback) refers to stm32h7xx_hal_dma.o(.text.HAL_DMA_RegisterCallback) for [Anonymous Symbol]
    stm32h7xx_hal_dma.o(.ARM.exidx.text.HAL_DMA_UnRegisterCallback) refers to stm32h7xx_hal_dma.o(.text.HAL_DMA_UnRegisterCallback) for [Anonymous Symbol]
    stm32h7xx_hal_dma.o(.ARM.exidx.text.HAL_DMA_GetState) refers to stm32h7xx_hal_dma.o(.text.HAL_DMA_GetState) for [Anonymous Symbol]
    stm32h7xx_hal_dma.o(.ARM.exidx.text.HAL_DMA_GetError) refers to stm32h7xx_hal_dma.o(.text.HAL_DMA_GetError) for [Anonymous Symbol]
    stm32h7xx_hal_dma_ex.o(.text.HAL_DMAEx_MultiBufferStart) refers to stm32h7xx_hal_dma_ex.o(.text.DMA_MultiBufferSetConfig) for DMA_MultiBufferSetConfig
    stm32h7xx_hal_dma_ex.o(.ARM.exidx.text.HAL_DMAEx_MultiBufferStart) refers to stm32h7xx_hal_dma_ex.o(.text.HAL_DMAEx_MultiBufferStart) for [Anonymous Symbol]
    stm32h7xx_hal_dma_ex.o(.ARM.exidx.text.DMA_MultiBufferSetConfig) refers to stm32h7xx_hal_dma_ex.o(.text.DMA_MultiBufferSetConfig) for [Anonymous Symbol]
    stm32h7xx_hal_dma_ex.o(.text.HAL_DMAEx_MultiBufferStart_IT) refers to stm32h7xx_hal_dma_ex.o(.text.DMA_MultiBufferSetConfig) for DMA_MultiBufferSetConfig
    stm32h7xx_hal_dma_ex.o(.ARM.exidx.text.HAL_DMAEx_MultiBufferStart_IT) refers to stm32h7xx_hal_dma_ex.o(.text.HAL_DMAEx_MultiBufferStart_IT) for [Anonymous Symbol]
    stm32h7xx_hal_dma_ex.o(.ARM.exidx.text.HAL_DMAEx_ChangeMemory) refers to stm32h7xx_hal_dma_ex.o(.text.HAL_DMAEx_ChangeMemory) for [Anonymous Symbol]
    stm32h7xx_hal_dma_ex.o(.ARM.exidx.text.HAL_DMAEx_ConfigMuxSync) refers to stm32h7xx_hal_dma_ex.o(.text.HAL_DMAEx_ConfigMuxSync) for [Anonymous Symbol]
    stm32h7xx_hal_dma_ex.o(.ARM.exidx.text.HAL_DMAEx_ConfigMuxRequestGenerator) refers to stm32h7xx_hal_dma_ex.o(.text.HAL_DMAEx_ConfigMuxRequestGenerator) for [Anonymous Symbol]
    stm32h7xx_hal_dma_ex.o(.ARM.exidx.text.HAL_DMAEx_EnableMuxRequestGenerator) refers to stm32h7xx_hal_dma_ex.o(.text.HAL_DMAEx_EnableMuxRequestGenerator) for [Anonymous Symbol]
    stm32h7xx_hal_dma_ex.o(.ARM.exidx.text.HAL_DMAEx_DisableMuxRequestGenerator) refers to stm32h7xx_hal_dma_ex.o(.text.HAL_DMAEx_DisableMuxRequestGenerator) for [Anonymous Symbol]
    stm32h7xx_hal_dma_ex.o(.ARM.exidx.text.HAL_DMAEx_MUX_IRQHandler) refers to stm32h7xx_hal_dma_ex.o(.text.HAL_DMAEx_MUX_IRQHandler) for [Anonymous Symbol]
    stm32h7xx_hal_mdma.o(.text.HAL_MDMA_Init) refers to timebase.o(.text.HAL_GetTick) for HAL_GetTick
    stm32h7xx_hal_mdma.o(.text.HAL_MDMA_Init) refers to stm32h7xx_hal_mdma.o(.text.MDMA_Init) for MDMA_Init
    stm32h7xx_hal_mdma.o(.ARM.exidx.text.HAL_MDMA_Init) refers to stm32h7xx_hal_mdma.o(.text.HAL_MDMA_Init) for [Anonymous Symbol]
    stm32h7xx_hal_mdma.o(.ARM.exidx.text.MDMA_Init) refers to stm32h7xx_hal_mdma.o(.text.MDMA_Init) for [Anonymous Symbol]
    stm32h7xx_hal_mdma.o(.ARM.exidx.text.HAL_MDMA_DeInit) refers to stm32h7xx_hal_mdma.o(.text.HAL_MDMA_DeInit) for [Anonymous Symbol]
    stm32h7xx_hal_mdma.o(.ARM.exidx.text.HAL_MDMA_ConfigPostRequestMask) refers to stm32h7xx_hal_mdma.o(.text.HAL_MDMA_ConfigPostRequestMask) for [Anonymous Symbol]
    stm32h7xx_hal_mdma.o(.ARM.exidx.text.HAL_MDMA_RegisterCallback) refers to stm32h7xx_hal_mdma.o(.text.HAL_MDMA_RegisterCallback) for [Anonymous Symbol]
    stm32h7xx_hal_mdma.o(.ARM.exidx.text.HAL_MDMA_UnRegisterCallback) refers to stm32h7xx_hal_mdma.o(.text.HAL_MDMA_UnRegisterCallback) for [Anonymous Symbol]
    stm32h7xx_hal_mdma.o(.ARM.exidx.text.HAL_MDMA_LinkedList_CreateNode) refers to stm32h7xx_hal_mdma.o(.text.HAL_MDMA_LinkedList_CreateNode) for [Anonymous Symbol]
    stm32h7xx_hal_mdma.o(.ARM.exidx.text.HAL_MDMA_LinkedList_AddNode) refers to stm32h7xx_hal_mdma.o(.text.HAL_MDMA_LinkedList_AddNode) for [Anonymous Symbol]
    stm32h7xx_hal_mdma.o(.ARM.exidx.text.HAL_MDMA_LinkedList_RemoveNode) refers to stm32h7xx_hal_mdma.o(.text.HAL_MDMA_LinkedList_RemoveNode) for [Anonymous Symbol]
    stm32h7xx_hal_mdma.o(.ARM.exidx.text.HAL_MDMA_LinkedList_EnableCircularMode) refers to stm32h7xx_hal_mdma.o(.text.HAL_MDMA_LinkedList_EnableCircularMode) for [Anonymous Symbol]
    stm32h7xx_hal_mdma.o(.ARM.exidx.text.HAL_MDMA_LinkedList_DisableCircularMode) refers to stm32h7xx_hal_mdma.o(.text.HAL_MDMA_LinkedList_DisableCircularMode) for [Anonymous Symbol]
    stm32h7xx_hal_mdma.o(.text.HAL_MDMA_Start) refers to stm32h7xx_hal_mdma.o(.text.MDMA_SetConfig) for MDMA_SetConfig
    stm32h7xx_hal_mdma.o(.ARM.exidx.text.HAL_MDMA_Start) refers to stm32h7xx_hal_mdma.o(.text.HAL_MDMA_Start) for [Anonymous Symbol]
    stm32h7xx_hal_mdma.o(.ARM.exidx.text.MDMA_SetConfig) refers to stm32h7xx_hal_mdma.o(.text.MDMA_SetConfig) for [Anonymous Symbol]
    stm32h7xx_hal_mdma.o(.text.HAL_MDMA_Start_IT) refers to stm32h7xx_hal_mdma.o(.text.MDMA_SetConfig) for MDMA_SetConfig
    stm32h7xx_hal_mdma.o(.ARM.exidx.text.HAL_MDMA_Start_IT) refers to stm32h7xx_hal_mdma.o(.text.HAL_MDMA_Start_IT) for [Anonymous Symbol]
    stm32h7xx_hal_mdma.o(.text.HAL_MDMA_Abort) refers to timebase.o(.text.HAL_GetTick) for HAL_GetTick
    stm32h7xx_hal_mdma.o(.ARM.exidx.text.HAL_MDMA_Abort) refers to stm32h7xx_hal_mdma.o(.text.HAL_MDMA_Abort) for [Anonymous Symbol]
    stm32h7xx_hal_mdma.o(.ARM.exidx.text.HAL_MDMA_Abort_IT) refers to stm32h7xx_hal_mdma.o(.text.HAL_MDMA_Abort_IT) for [Anonymous Symbol]
    stm32h7xx_hal_mdma.o(.text.HAL_MDMA_PollForTransfer) refers to timebase.o(.text.HAL_GetTick) for HAL_GetTick
    stm32h7xx_hal_mdma.o(.text.HAL_MDMA_PollForTransfer) refers to stm32h7xx_hal_mdma.o(.text.HAL_MDMA_Abort) for HAL_MDMA_Abort
    stm32h7xx_hal_mdma.o(.ARM.exidx.text.HAL_MDMA_PollForTransfer) refers to stm32h7xx_hal_mdma.o(.text.HAL_MDMA_PollForTransfer) for [Anonymous Symbol]
    stm32h7xx_hal_mdma.o(.ARM.exidx.text.HAL_MDMA_GenerateSWRequest) refers to stm32h7xx_hal_mdma.o(.text.HAL_MDMA_GenerateSWRequest) for [Anonymous Symbol]
    stm32h7xx_hal_mdma.o(.text.HAL_MDMA_IRQHandler) refers to system_stm32h7xx.o(.data.SystemCoreClock) for SystemCoreClock
    stm32h7xx_hal_mdma.o(.ARM.exidx.text.HAL_MDMA_IRQHandler) refers to stm32h7xx_hal_mdma.o(.text.HAL_MDMA_IRQHandler) for [Anonymous Symbol]
    stm32h7xx_hal_mdma.o(.ARM.exidx.text.HAL_MDMA_GetState) refers to stm32h7xx_hal_mdma.o(.text.HAL_MDMA_GetState) for [Anonymous Symbol]
    stm32h7xx_hal_mdma.o(.ARM.exidx.text.HAL_MDMA_GetError) refers to stm32h7xx_hal_mdma.o(.text.HAL_MDMA_GetError) for [Anonymous Symbol]
    stm32h7xx_hal_pwr.o(.ARM.exidx.text.HAL_PWR_DeInit) refers to stm32h7xx_hal_pwr.o(.text.HAL_PWR_DeInit) for [Anonymous Symbol]
    stm32h7xx_hal_pwr.o(.ARM.exidx.text.HAL_PWR_EnableBkUpAccess) refers to stm32h7xx_hal_pwr.o(.text.HAL_PWR_EnableBkUpAccess) for [Anonymous Symbol]
    stm32h7xx_hal_pwr.o(.ARM.exidx.text.HAL_PWR_DisableBkUpAccess) refers to stm32h7xx_hal_pwr.o(.text.HAL_PWR_DisableBkUpAccess) for [Anonymous Symbol]
    stm32h7xx_hal_pwr.o(.ARM.exidx.text.HAL_PWR_ConfigPVD) refers to stm32h7xx_hal_pwr.o(.text.HAL_PWR_ConfigPVD) for [Anonymous Symbol]
    stm32h7xx_hal_pwr.o(.ARM.exidx.text.HAL_PWR_EnablePVD) refers to stm32h7xx_hal_pwr.o(.text.HAL_PWR_EnablePVD) for [Anonymous Symbol]
    stm32h7xx_hal_pwr.o(.ARM.exidx.text.HAL_PWR_DisablePVD) refers to stm32h7xx_hal_pwr.o(.text.HAL_PWR_DisablePVD) for [Anonymous Symbol]
    stm32h7xx_hal_pwr.o(.ARM.exidx.text.HAL_PWR_EnableWakeUpPin) refers to stm32h7xx_hal_pwr.o(.text.HAL_PWR_EnableWakeUpPin) for [Anonymous Symbol]
    stm32h7xx_hal_pwr.o(.ARM.exidx.text.HAL_PWR_DisableWakeUpPin) refers to stm32h7xx_hal_pwr.o(.text.HAL_PWR_DisableWakeUpPin) for [Anonymous Symbol]
    stm32h7xx_hal_pwr.o(.ARM.exidx.text.HAL_PWR_EnterSLEEPMode) refers to stm32h7xx_hal_pwr.o(.text.HAL_PWR_EnterSLEEPMode) for [Anonymous Symbol]
    stm32h7xx_hal_pwr.o(.ARM.exidx.text.HAL_PWR_EnterSTOPMode) refers to stm32h7xx_hal_pwr.o(.text.HAL_PWR_EnterSTOPMode) for [Anonymous Symbol]
    stm32h7xx_hal_pwr.o(.ARM.exidx.text.HAL_PWR_EnterSTANDBYMode) refers to stm32h7xx_hal_pwr.o(.text.HAL_PWR_EnterSTANDBYMode) for [Anonymous Symbol]
    stm32h7xx_hal_pwr.o(.ARM.exidx.text.HAL_PWR_EnableSleepOnExit) refers to stm32h7xx_hal_pwr.o(.text.HAL_PWR_EnableSleepOnExit) for [Anonymous Symbol]
    stm32h7xx_hal_pwr.o(.ARM.exidx.text.HAL_PWR_DisableSleepOnExit) refers to stm32h7xx_hal_pwr.o(.text.HAL_PWR_DisableSleepOnExit) for [Anonymous Symbol]
    stm32h7xx_hal_pwr.o(.ARM.exidx.text.HAL_PWR_EnableSEVOnPend) refers to stm32h7xx_hal_pwr.o(.text.HAL_PWR_EnableSEVOnPend) for [Anonymous Symbol]
    stm32h7xx_hal_pwr.o(.ARM.exidx.text.HAL_PWR_DisableSEVOnPend) refers to stm32h7xx_hal_pwr.o(.text.HAL_PWR_DisableSEVOnPend) for [Anonymous Symbol]
    stm32h7xx_hal_pwr.o(.text.HAL_PWR_PVD_IRQHandler) refers to stm32h7xx_hal_pwr.o(.text.HAL_PWR_PVDCallback) for HAL_PWR_PVDCallback
    stm32h7xx_hal_pwr.o(.ARM.exidx.text.HAL_PWR_PVD_IRQHandler) refers to stm32h7xx_hal_pwr.o(.text.HAL_PWR_PVD_IRQHandler) for [Anonymous Symbol]
    stm32h7xx_hal_pwr.o(.ARM.exidx.text.HAL_PWR_PVDCallback) refers to stm32h7xx_hal_pwr.o(.text.HAL_PWR_PVDCallback) for [Anonymous Symbol]
    stm32h7xx_hal_pwr_ex.o(.text.HAL_PWREx_ConfigSupply) refers to timebase.o(.text.HAL_GetTick) for HAL_GetTick
    stm32h7xx_hal_pwr_ex.o(.ARM.exidx.text.HAL_PWREx_ConfigSupply) refers to stm32h7xx_hal_pwr_ex.o(.text.HAL_PWREx_ConfigSupply) for [Anonymous Symbol]
    stm32h7xx_hal_pwr_ex.o(.ARM.exidx.text.HAL_PWREx_GetSupplyConfig) refers to stm32h7xx_hal_pwr_ex.o(.text.HAL_PWREx_GetSupplyConfig) for [Anonymous Symbol]
    stm32h7xx_hal_pwr_ex.o(.text.HAL_PWREx_ControlVoltageScaling) refers to timebase.o(.text.HAL_GetTick) for HAL_GetTick
    stm32h7xx_hal_pwr_ex.o(.ARM.exidx.text.HAL_PWREx_ControlVoltageScaling) refers to stm32h7xx_hal_pwr_ex.o(.text.HAL_PWREx_ControlVoltageScaling) for [Anonymous Symbol]
    stm32h7xx_hal_pwr_ex.o(.ARM.exidx.text.HAL_PWREx_GetVoltageRange) refers to stm32h7xx_hal_pwr_ex.o(.text.HAL_PWREx_GetVoltageRange) for [Anonymous Symbol]
    stm32h7xx_hal_pwr_ex.o(.ARM.exidx.text.HAL_PWREx_ControlStopModeVoltageScaling) refers to stm32h7xx_hal_pwr_ex.o(.text.HAL_PWREx_ControlStopModeVoltageScaling) for [Anonymous Symbol]
    stm32h7xx_hal_pwr_ex.o(.ARM.exidx.text.HAL_PWREx_GetStopModeVoltageRange) refers to stm32h7xx_hal_pwr_ex.o(.text.HAL_PWREx_GetStopModeVoltageRange) for [Anonymous Symbol]
    stm32h7xx_hal_pwr_ex.o(.ARM.exidx.text.HAL_PWREx_EnterSTOPMode) refers to stm32h7xx_hal_pwr_ex.o(.text.HAL_PWREx_EnterSTOPMode) for [Anonymous Symbol]
    stm32h7xx_hal_pwr_ex.o(.ARM.exidx.text.HAL_PWREx_ClearPendingEvent) refers to stm32h7xx_hal_pwr_ex.o(.text.HAL_PWREx_ClearPendingEvent) for [Anonymous Symbol]
    stm32h7xx_hal_pwr_ex.o(.ARM.exidx.text.HAL_PWREx_EnterSTANDBYMode) refers to stm32h7xx_hal_pwr_ex.o(.text.HAL_PWREx_EnterSTANDBYMode) for [Anonymous Symbol]
    stm32h7xx_hal_pwr_ex.o(.ARM.exidx.text.HAL_PWREx_ConfigD3Domain) refers to stm32h7xx_hal_pwr_ex.o(.text.HAL_PWREx_ConfigD3Domain) for [Anonymous Symbol]
    stm32h7xx_hal_pwr_ex.o(.ARM.exidx.text.HAL_PWREx_EnableFlashPowerDown) refers to stm32h7xx_hal_pwr_ex.o(.text.HAL_PWREx_EnableFlashPowerDown) for [Anonymous Symbol]
    stm32h7xx_hal_pwr_ex.o(.ARM.exidx.text.HAL_PWREx_DisableFlashPowerDown) refers to stm32h7xx_hal_pwr_ex.o(.text.HAL_PWREx_DisableFlashPowerDown) for [Anonymous Symbol]
    stm32h7xx_hal_pwr_ex.o(.ARM.exidx.text.HAL_PWREx_EnableWakeUpPin) refers to stm32h7xx_hal_pwr_ex.o(.text.HAL_PWREx_EnableWakeUpPin) for [Anonymous Symbol]
    stm32h7xx_hal_pwr_ex.o(.ARM.exidx.text.HAL_PWREx_DisableWakeUpPin) refers to stm32h7xx_hal_pwr_ex.o(.text.HAL_PWREx_DisableWakeUpPin) for [Anonymous Symbol]
    stm32h7xx_hal_pwr_ex.o(.ARM.exidx.text.HAL_PWREx_GetWakeupFlag) refers to stm32h7xx_hal_pwr_ex.o(.text.HAL_PWREx_GetWakeupFlag) for [Anonymous Symbol]
    stm32h7xx_hal_pwr_ex.o(.ARM.exidx.text.HAL_PWREx_ClearWakeupFlag) refers to stm32h7xx_hal_pwr_ex.o(.text.HAL_PWREx_ClearWakeupFlag) for [Anonymous Symbol]
    stm32h7xx_hal_pwr_ex.o(.text.HAL_PWREx_WAKEUP_PIN_IRQHandler) refers to stm32h7xx_hal_pwr_ex.o(.text.HAL_PWREx_WKUP1_Callback) for HAL_PWREx_WKUP1_Callback
    stm32h7xx_hal_pwr_ex.o(.text.HAL_PWREx_WAKEUP_PIN_IRQHandler) refers to stm32h7xx_hal_pwr_ex.o(.text.HAL_PWREx_WKUP2_Callback) for HAL_PWREx_WKUP2_Callback
    stm32h7xx_hal_pwr_ex.o(.text.HAL_PWREx_WAKEUP_PIN_IRQHandler) refers to stm32h7xx_hal_pwr_ex.o(.text.HAL_PWREx_WKUP3_Callback) for HAL_PWREx_WKUP3_Callback
    stm32h7xx_hal_pwr_ex.o(.text.HAL_PWREx_WAKEUP_PIN_IRQHandler) refers to stm32h7xx_hal_pwr_ex.o(.text.HAL_PWREx_WKUP4_Callback) for HAL_PWREx_WKUP4_Callback
    stm32h7xx_hal_pwr_ex.o(.text.HAL_PWREx_WAKEUP_PIN_IRQHandler) refers to stm32h7xx_hal_pwr_ex.o(.text.HAL_PWREx_WKUP5_Callback) for HAL_PWREx_WKUP5_Callback
    stm32h7xx_hal_pwr_ex.o(.text.HAL_PWREx_WAKEUP_PIN_IRQHandler) refers to stm32h7xx_hal_pwr_ex.o(.text.HAL_PWREx_WKUP6_Callback) for HAL_PWREx_WKUP6_Callback
    stm32h7xx_hal_pwr_ex.o(.ARM.exidx.text.HAL_PWREx_WAKEUP_PIN_IRQHandler) refers to stm32h7xx_hal_pwr_ex.o(.text.HAL_PWREx_WAKEUP_PIN_IRQHandler) for [Anonymous Symbol]
    stm32h7xx_hal_pwr_ex.o(.ARM.exidx.text.HAL_PWREx_WKUP1_Callback) refers to stm32h7xx_hal_pwr_ex.o(.text.HAL_PWREx_WKUP1_Callback) for [Anonymous Symbol]
    stm32h7xx_hal_pwr_ex.o(.ARM.exidx.text.HAL_PWREx_WKUP2_Callback) refers to stm32h7xx_hal_pwr_ex.o(.text.HAL_PWREx_WKUP2_Callback) for [Anonymous Symbol]
    stm32h7xx_hal_pwr_ex.o(.ARM.exidx.text.HAL_PWREx_WKUP3_Callback) refers to stm32h7xx_hal_pwr_ex.o(.text.HAL_PWREx_WKUP3_Callback) for [Anonymous Symbol]
    stm32h7xx_hal_pwr_ex.o(.ARM.exidx.text.HAL_PWREx_WKUP4_Callback) refers to stm32h7xx_hal_pwr_ex.o(.text.HAL_PWREx_WKUP4_Callback) for [Anonymous Symbol]
    stm32h7xx_hal_pwr_ex.o(.ARM.exidx.text.HAL_PWREx_WKUP5_Callback) refers to stm32h7xx_hal_pwr_ex.o(.text.HAL_PWREx_WKUP5_Callback) for [Anonymous Symbol]
    stm32h7xx_hal_pwr_ex.o(.ARM.exidx.text.HAL_PWREx_WKUP6_Callback) refers to stm32h7xx_hal_pwr_ex.o(.text.HAL_PWREx_WKUP6_Callback) for [Anonymous Symbol]
    stm32h7xx_hal_pwr_ex.o(.text.HAL_PWREx_EnableBkUpReg) refers to timebase.o(.text.HAL_GetTick) for HAL_GetTick
    stm32h7xx_hal_pwr_ex.o(.ARM.exidx.text.HAL_PWREx_EnableBkUpReg) refers to stm32h7xx_hal_pwr_ex.o(.text.HAL_PWREx_EnableBkUpReg) for [Anonymous Symbol]
    stm32h7xx_hal_pwr_ex.o(.text.HAL_PWREx_DisableBkUpReg) refers to timebase.o(.text.HAL_GetTick) for HAL_GetTick
    stm32h7xx_hal_pwr_ex.o(.ARM.exidx.text.HAL_PWREx_DisableBkUpReg) refers to stm32h7xx_hal_pwr_ex.o(.text.HAL_PWREx_DisableBkUpReg) for [Anonymous Symbol]
    stm32h7xx_hal_pwr_ex.o(.text.HAL_PWREx_EnableUSBReg) refers to timebase.o(.text.HAL_GetTick) for HAL_GetTick
    stm32h7xx_hal_pwr_ex.o(.ARM.exidx.text.HAL_PWREx_EnableUSBReg) refers to stm32h7xx_hal_pwr_ex.o(.text.HAL_PWREx_EnableUSBReg) for [Anonymous Symbol]
    stm32h7xx_hal_pwr_ex.o(.text.HAL_PWREx_DisableUSBReg) refers to timebase.o(.text.HAL_GetTick) for HAL_GetTick
    stm32h7xx_hal_pwr_ex.o(.ARM.exidx.text.HAL_PWREx_DisableUSBReg) refers to stm32h7xx_hal_pwr_ex.o(.text.HAL_PWREx_DisableUSBReg) for [Anonymous Symbol]
    stm32h7xx_hal_pwr_ex.o(.ARM.exidx.text.HAL_PWREx_EnableUSBVoltageDetector) refers to stm32h7xx_hal_pwr_ex.o(.text.HAL_PWREx_EnableUSBVoltageDetector) for [Anonymous Symbol]
    stm32h7xx_hal_pwr_ex.o(.ARM.exidx.text.HAL_PWREx_DisableUSBVoltageDetector) refers to stm32h7xx_hal_pwr_ex.o(.text.HAL_PWREx_DisableUSBVoltageDetector) for [Anonymous Symbol]
    stm32h7xx_hal_pwr_ex.o(.ARM.exidx.text.HAL_PWREx_EnableBatteryCharging) refers to stm32h7xx_hal_pwr_ex.o(.text.HAL_PWREx_EnableBatteryCharging) for [Anonymous Symbol]
    stm32h7xx_hal_pwr_ex.o(.ARM.exidx.text.HAL_PWREx_DisableBatteryCharging) refers to stm32h7xx_hal_pwr_ex.o(.text.HAL_PWREx_DisableBatteryCharging) for [Anonymous Symbol]
    stm32h7xx_hal_pwr_ex.o(.ARM.exidx.text.HAL_PWREx_EnableMonitoring) refers to stm32h7xx_hal_pwr_ex.o(.text.HAL_PWREx_EnableMonitoring) for [Anonymous Symbol]
    stm32h7xx_hal_pwr_ex.o(.ARM.exidx.text.HAL_PWREx_DisableMonitoring) refers to stm32h7xx_hal_pwr_ex.o(.text.HAL_PWREx_DisableMonitoring) for [Anonymous Symbol]
    stm32h7xx_hal_pwr_ex.o(.ARM.exidx.text.HAL_PWREx_GetTemperatureLevel) refers to stm32h7xx_hal_pwr_ex.o(.text.HAL_PWREx_GetTemperatureLevel) for [Anonymous Symbol]
    stm32h7xx_hal_pwr_ex.o(.ARM.exidx.text.HAL_PWREx_GetVBATLevel) refers to stm32h7xx_hal_pwr_ex.o(.text.HAL_PWREx_GetVBATLevel) for [Anonymous Symbol]
    stm32h7xx_hal_pwr_ex.o(.ARM.exidx.text.HAL_PWREx_ConfigAVD) refers to stm32h7xx_hal_pwr_ex.o(.text.HAL_PWREx_ConfigAVD) for [Anonymous Symbol]
    stm32h7xx_hal_pwr_ex.o(.ARM.exidx.text.HAL_PWREx_EnableAVD) refers to stm32h7xx_hal_pwr_ex.o(.text.HAL_PWREx_EnableAVD) for [Anonymous Symbol]
    stm32h7xx_hal_pwr_ex.o(.ARM.exidx.text.HAL_PWREx_DisableAVD) refers to stm32h7xx_hal_pwr_ex.o(.text.HAL_PWREx_DisableAVD) for [Anonymous Symbol]
    stm32h7xx_hal_pwr_ex.o(.text.HAL_PWREx_PVD_AVD_IRQHandler) refers to stm32h7xx_hal_pwr.o(.text.HAL_PWR_PVDCallback) for HAL_PWR_PVDCallback
    stm32h7xx_hal_pwr_ex.o(.text.HAL_PWREx_PVD_AVD_IRQHandler) refers to stm32h7xx_hal_pwr_ex.o(.text.HAL_PWREx_AVDCallback) for HAL_PWREx_AVDCallback
    stm32h7xx_hal_pwr_ex.o(.ARM.exidx.text.HAL_PWREx_PVD_AVD_IRQHandler) refers to stm32h7xx_hal_pwr_ex.o(.text.HAL_PWREx_PVD_AVD_IRQHandler) for [Anonymous Symbol]
    stm32h7xx_hal_pwr_ex.o(.ARM.exidx.text.HAL_PWREx_AVDCallback) refers to stm32h7xx_hal_pwr_ex.o(.text.HAL_PWREx_AVDCallback) for [Anonymous Symbol]
    stm32h7xx_hal_i2c.o(.text.HAL_I2C_Init) refers to stm32h7xx_hal_i2c.o(.text.HAL_I2C_MspInit) for HAL_I2C_MspInit
    stm32h7xx_hal_i2c.o(.ARM.exidx.text.HAL_I2C_Init) refers to stm32h7xx_hal_i2c.o(.text.HAL_I2C_Init) for [Anonymous Symbol]
    stm32h7xx_hal_i2c.o(.ARM.exidx.text.HAL_I2C_MspInit) refers to stm32h7xx_hal_i2c.o(.text.HAL_I2C_MspInit) for [Anonymous Symbol]
    stm32h7xx_hal_i2c.o(.text.HAL_I2C_DeInit) refers to stm32h7xx_hal_i2c.o(.text.HAL_I2C_MspDeInit) for HAL_I2C_MspDeInit
    stm32h7xx_hal_i2c.o(.ARM.exidx.text.HAL_I2C_DeInit) refers to stm32h7xx_hal_i2c.o(.text.HAL_I2C_DeInit) for [Anonymous Symbol]
    stm32h7xx_hal_i2c.o(.ARM.exidx.text.HAL_I2C_MspDeInit) refers to stm32h7xx_hal_i2c.o(.text.HAL_I2C_MspDeInit) for [Anonymous Symbol]
    stm32h7xx_hal_i2c.o(.text.HAL_I2C_Master_Transmit) refers to timebase.o(.text.HAL_GetTick) for HAL_GetTick
    stm32h7xx_hal_i2c.o(.text.HAL_I2C_Master_Transmit) refers to stm32h7xx_hal_i2c.o(.text.I2C_WaitOnFlagUntilTimeout) for I2C_WaitOnFlagUntilTimeout
    stm32h7xx_hal_i2c.o(.text.HAL_I2C_Master_Transmit) refers to stm32h7xx_hal_i2c.o(.text.I2C_TransferConfig) for I2C_TransferConfig
    stm32h7xx_hal_i2c.o(.text.HAL_I2C_Master_Transmit) refers to stm32h7xx_hal_i2c.o(.text.I2C_WaitOnTXISFlagUntilTimeout) for I2C_WaitOnTXISFlagUntilTimeout
    stm32h7xx_hal_i2c.o(.text.HAL_I2C_Master_Transmit) refers to stm32h7xx_hal_i2c.o(.text.I2C_WaitOnSTOPFlagUntilTimeout) for I2C_WaitOnSTOPFlagUntilTimeout
    stm32h7xx_hal_i2c.o(.ARM.exidx.text.HAL_I2C_Master_Transmit) refers to stm32h7xx_hal_i2c.o(.text.HAL_I2C_Master_Transmit) for [Anonymous Symbol]
    stm32h7xx_hal_i2c.o(.text.I2C_WaitOnFlagUntilTimeout) refers to timebase.o(.text.HAL_GetTick) for HAL_GetTick
    stm32h7xx_hal_i2c.o(.ARM.exidx.text.I2C_WaitOnFlagUntilTimeout) refers to stm32h7xx_hal_i2c.o(.text.I2C_WaitOnFlagUntilTimeout) for [Anonymous Symbol]
    stm32h7xx_hal_i2c.o(.ARM.exidx.text.I2C_TransferConfig) refers to stm32h7xx_hal_i2c.o(.text.I2C_TransferConfig) for [Anonymous Symbol]
    stm32h7xx_hal_i2c.o(.text.I2C_WaitOnTXISFlagUntilTimeout) refers to stm32h7xx_hal_i2c.o(.text.I2C_IsAcknowledgeFailed) for I2C_IsAcknowledgeFailed
    stm32h7xx_hal_i2c.o(.text.I2C_WaitOnTXISFlagUntilTimeout) refers to timebase.o(.text.HAL_GetTick) for HAL_GetTick
    stm32h7xx_hal_i2c.o(.ARM.exidx.text.I2C_WaitOnTXISFlagUntilTimeout) refers to stm32h7xx_hal_i2c.o(.text.I2C_WaitOnTXISFlagUntilTimeout) for [Anonymous Symbol]
    stm32h7xx_hal_i2c.o(.text.I2C_WaitOnSTOPFlagUntilTimeout) refers to stm32h7xx_hal_i2c.o(.text.I2C_IsAcknowledgeFailed) for I2C_IsAcknowledgeFailed
    stm32h7xx_hal_i2c.o(.text.I2C_WaitOnSTOPFlagUntilTimeout) refers to timebase.o(.text.HAL_GetTick) for HAL_GetTick
    stm32h7xx_hal_i2c.o(.ARM.exidx.text.I2C_WaitOnSTOPFlagUntilTimeout) refers to stm32h7xx_hal_i2c.o(.text.I2C_WaitOnSTOPFlagUntilTimeout) for [Anonymous Symbol]
    stm32h7xx_hal_i2c.o(.text.HAL_I2C_Master_Receive) refers to timebase.o(.text.HAL_GetTick) for HAL_GetTick
    stm32h7xx_hal_i2c.o(.text.HAL_I2C_Master_Receive) refers to stm32h7xx_hal_i2c.o(.text.I2C_WaitOnFlagUntilTimeout) for I2C_WaitOnFlagUntilTimeout
    stm32h7xx_hal_i2c.o(.text.HAL_I2C_Master_Receive) refers to stm32h7xx_hal_i2c.o(.text.I2C_TransferConfig) for I2C_TransferConfig
    stm32h7xx_hal_i2c.o(.text.HAL_I2C_Master_Receive) refers to stm32h7xx_hal_i2c.o(.text.I2C_WaitOnRXNEFlagUntilTimeout) for I2C_WaitOnRXNEFlagUntilTimeout
    stm32h7xx_hal_i2c.o(.text.HAL_I2C_Master_Receive) refers to stm32h7xx_hal_i2c.o(.text.I2C_WaitOnSTOPFlagUntilTimeout) for I2C_WaitOnSTOPFlagUntilTimeout
    stm32h7xx_hal_i2c.o(.ARM.exidx.text.HAL_I2C_Master_Receive) refers to stm32h7xx_hal_i2c.o(.text.HAL_I2C_Master_Receive) for [Anonymous Symbol]
    stm32h7xx_hal_i2c.o(.text.I2C_WaitOnRXNEFlagUntilTimeout) refers to stm32h7xx_hal_i2c.o(.text.I2C_IsAcknowledgeFailed) for I2C_IsAcknowledgeFailed
    stm32h7xx_hal_i2c.o(.text.I2C_WaitOnRXNEFlagUntilTimeout) refers to timebase.o(.text.HAL_GetTick) for HAL_GetTick
    stm32h7xx_hal_i2c.o(.ARM.exidx.text.I2C_WaitOnRXNEFlagUntilTimeout) refers to stm32h7xx_hal_i2c.o(.text.I2C_WaitOnRXNEFlagUntilTimeout) for [Anonymous Symbol]
    stm32h7xx_hal_i2c.o(.text.HAL_I2C_Slave_Transmit) refers to timebase.o(.text.HAL_GetTick) for HAL_GetTick
    stm32h7xx_hal_i2c.o(.text.HAL_I2C_Slave_Transmit) refers to stm32h7xx_hal_i2c.o(.text.I2C_WaitOnFlagUntilTimeout) for I2C_WaitOnFlagUntilTimeout
    stm32h7xx_hal_i2c.o(.text.HAL_I2C_Slave_Transmit) refers to stm32h7xx_hal_i2c.o(.text.I2C_WaitOnTXISFlagUntilTimeout) for I2C_WaitOnTXISFlagUntilTimeout
    stm32h7xx_hal_i2c.o(.text.HAL_I2C_Slave_Transmit) refers to stm32h7xx_hal_i2c.o(.text.I2C_WaitOnSTOPFlagUntilTimeout) for I2C_WaitOnSTOPFlagUntilTimeout
    stm32h7xx_hal_i2c.o(.ARM.exidx.text.HAL_I2C_Slave_Transmit) refers to stm32h7xx_hal_i2c.o(.text.HAL_I2C_Slave_Transmit) for [Anonymous Symbol]
    stm32h7xx_hal_i2c.o(.text.HAL_I2C_Slave_Receive) refers to timebase.o(.text.HAL_GetTick) for HAL_GetTick
    stm32h7xx_hal_i2c.o(.text.HAL_I2C_Slave_Receive) refers to stm32h7xx_hal_i2c.o(.text.I2C_WaitOnFlagUntilTimeout) for I2C_WaitOnFlagUntilTimeout
    stm32h7xx_hal_i2c.o(.text.HAL_I2C_Slave_Receive) refers to stm32h7xx_hal_i2c.o(.text.I2C_WaitOnRXNEFlagUntilTimeout) for I2C_WaitOnRXNEFlagUntilTimeout
    stm32h7xx_hal_i2c.o(.text.HAL_I2C_Slave_Receive) refers to stm32h7xx_hal_i2c.o(.text.I2C_WaitOnSTOPFlagUntilTimeout) for I2C_WaitOnSTOPFlagUntilTimeout
    stm32h7xx_hal_i2c.o(.ARM.exidx.text.HAL_I2C_Slave_Receive) refers to stm32h7xx_hal_i2c.o(.text.HAL_I2C_Slave_Receive) for [Anonymous Symbol]
    stm32h7xx_hal_i2c.o(.text.HAL_I2C_Master_Transmit_IT) refers to stm32h7xx_hal_i2c.o(.text.I2C_Master_ISR_IT) for I2C_Master_ISR_IT
    stm32h7xx_hal_i2c.o(.text.HAL_I2C_Master_Transmit_IT) refers to stm32h7xx_hal_i2c.o(.text.I2C_TransferConfig) for I2C_TransferConfig
    stm32h7xx_hal_i2c.o(.text.HAL_I2C_Master_Transmit_IT) refers to stm32h7xx_hal_i2c.o(.text.I2C_Enable_IRQ) for I2C_Enable_IRQ
    stm32h7xx_hal_i2c.o(.ARM.exidx.text.HAL_I2C_Master_Transmit_IT) refers to stm32h7xx_hal_i2c.o(.text.HAL_I2C_Master_Transmit_IT) for [Anonymous Symbol]
    stm32h7xx_hal_i2c.o(.text.I2C_Master_ISR_IT) refers to stm32h7xx_hal_i2c.o(.text.I2C_Flush_TXDR) for I2C_Flush_TXDR
    stm32h7xx_hal_i2c.o(.text.I2C_Master_ISR_IT) refers to stm32h7xx_hal_i2c.o(.text.I2C_TransferConfig) for I2C_TransferConfig
    stm32h7xx_hal_i2c.o(.text.I2C_Master_ISR_IT) refers to stm32h7xx_hal_i2c.o(.text.I2C_ITMasterSeqCplt) for I2C_ITMasterSeqCplt
    stm32h7xx_hal_i2c.o(.text.I2C_Master_ISR_IT) refers to stm32h7xx_hal_i2c.o(.text.I2C_ITError) for I2C_ITError
    stm32h7xx_hal_i2c.o(.text.I2C_Master_ISR_IT) refers to stm32h7xx_hal_i2c.o(.text.I2C_ITMasterCplt) for I2C_ITMasterCplt
    stm32h7xx_hal_i2c.o(.ARM.exidx.text.I2C_Master_ISR_IT) refers to stm32h7xx_hal_i2c.o(.text.I2C_Master_ISR_IT) for [Anonymous Symbol]
    stm32h7xx_hal_i2c.o(.text.I2C_Enable_IRQ) refers to stm32h7xx_hal_i2c.o(.text.I2C_Master_ISR_DMA) for I2C_Master_ISR_DMA
    stm32h7xx_hal_i2c.o(.text.I2C_Enable_IRQ) refers to stm32h7xx_hal_i2c.o(.text.I2C_Slave_ISR_DMA) for I2C_Slave_ISR_DMA
    stm32h7xx_hal_i2c.o(.ARM.exidx.text.I2C_Enable_IRQ) refers to stm32h7xx_hal_i2c.o(.text.I2C_Enable_IRQ) for [Anonymous Symbol]
    stm32h7xx_hal_i2c.o(.text.HAL_I2C_Master_Receive_IT) refers to stm32h7xx_hal_i2c.o(.text.I2C_Master_ISR_IT) for I2C_Master_ISR_IT
    stm32h7xx_hal_i2c.o(.text.HAL_I2C_Master_Receive_IT) refers to stm32h7xx_hal_i2c.o(.text.I2C_TransferConfig) for I2C_TransferConfig
    stm32h7xx_hal_i2c.o(.text.HAL_I2C_Master_Receive_IT) refers to stm32h7xx_hal_i2c.o(.text.I2C_Enable_IRQ) for I2C_Enable_IRQ
    stm32h7xx_hal_i2c.o(.ARM.exidx.text.HAL_I2C_Master_Receive_IT) refers to stm32h7xx_hal_i2c.o(.text.HAL_I2C_Master_Receive_IT) for [Anonymous Symbol]
    stm32h7xx_hal_i2c.o(.text.HAL_I2C_Slave_Transmit_IT) refers to stm32h7xx_hal_i2c.o(.text.I2C_Slave_ISR_IT) for I2C_Slave_ISR_IT
    stm32h7xx_hal_i2c.o(.text.HAL_I2C_Slave_Transmit_IT) refers to stm32h7xx_hal_i2c.o(.text.I2C_Enable_IRQ) for I2C_Enable_IRQ
    stm32h7xx_hal_i2c.o(.ARM.exidx.text.HAL_I2C_Slave_Transmit_IT) refers to stm32h7xx_hal_i2c.o(.text.HAL_I2C_Slave_Transmit_IT) for [Anonymous Symbol]
    stm32h7xx_hal_i2c.o(.text.I2C_Slave_ISR_IT) refers to stm32h7xx_hal_i2c.o(.text.I2C_ITListenCplt) for I2C_ITListenCplt
    stm32h7xx_hal_i2c.o(.text.I2C_Slave_ISR_IT) refers to stm32h7xx_hal_i2c.o(.text.I2C_Flush_TXDR) for I2C_Flush_TXDR
    stm32h7xx_hal_i2c.o(.text.I2C_Slave_ISR_IT) refers to stm32h7xx_hal_i2c.o(.text.I2C_ITSlaveSeqCplt) for I2C_ITSlaveSeqCplt
    stm32h7xx_hal_i2c.o(.text.I2C_Slave_ISR_IT) refers to stm32h7xx_hal_i2c.o(.text.I2C_ITError) for I2C_ITError
    stm32h7xx_hal_i2c.o(.text.I2C_Slave_ISR_IT) refers to stm32h7xx_hal_i2c.o(.text.I2C_ITAddrCplt) for I2C_ITAddrCplt
    stm32h7xx_hal_i2c.o(.text.I2C_Slave_ISR_IT) refers to stm32h7xx_hal_i2c.o(.text.I2C_ITSlaveCplt) for I2C_ITSlaveCplt
    stm32h7xx_hal_i2c.o(.ARM.exidx.text.I2C_Slave_ISR_IT) refers to stm32h7xx_hal_i2c.o(.text.I2C_Slave_ISR_IT) for [Anonymous Symbol]
    stm32h7xx_hal_i2c.o(.text.HAL_I2C_Slave_Receive_IT) refers to stm32h7xx_hal_i2c.o(.text.I2C_Slave_ISR_IT) for I2C_Slave_ISR_IT
    stm32h7xx_hal_i2c.o(.text.HAL_I2C_Slave_Receive_IT) refers to stm32h7xx_hal_i2c.o(.text.I2C_Enable_IRQ) for I2C_Enable_IRQ
    stm32h7xx_hal_i2c.o(.ARM.exidx.text.HAL_I2C_Slave_Receive_IT) refers to stm32h7xx_hal_i2c.o(.text.HAL_I2C_Slave_Receive_IT) for [Anonymous Symbol]
    stm32h7xx_hal_i2c.o(.text.HAL_I2C_Master_Transmit_DMA) refers to stm32h7xx_hal_i2c.o(.text.I2C_Master_ISR_DMA) for I2C_Master_ISR_DMA
    stm32h7xx_hal_i2c.o(.text.HAL_I2C_Master_Transmit_DMA) refers to stm32h7xx_hal_i2c.o(.text.I2C_DMAMasterTransmitCplt) for I2C_DMAMasterTransmitCplt
    stm32h7xx_hal_i2c.o(.text.HAL_I2C_Master_Transmit_DMA) refers to stm32h7xx_hal_i2c.o(.text.I2C_DMAError) for I2C_DMAError
    stm32h7xx_hal_i2c.o(.text.HAL_I2C_Master_Transmit_DMA) refers to stm32h7xx_hal_dma.o(.text.HAL_DMA_Start_IT) for HAL_DMA_Start_IT
    stm32h7xx_hal_i2c.o(.text.HAL_I2C_Master_Transmit_DMA) refers to stm32h7xx_hal_i2c.o(.text.I2C_TransferConfig) for I2C_TransferConfig
    stm32h7xx_hal_i2c.o(.text.HAL_I2C_Master_Transmit_DMA) refers to stm32h7xx_hal_i2c.o(.text.I2C_Enable_IRQ) for I2C_Enable_IRQ
    stm32h7xx_hal_i2c.o(.text.HAL_I2C_Master_Transmit_DMA) refers to stm32h7xx_hal_i2c.o(.text.I2C_Master_ISR_IT) for I2C_Master_ISR_IT
    stm32h7xx_hal_i2c.o(.ARM.exidx.text.HAL_I2C_Master_Transmit_DMA) refers to stm32h7xx_hal_i2c.o(.text.HAL_I2C_Master_Transmit_DMA) for [Anonymous Symbol]
    stm32h7xx_hal_i2c.o(.text.I2C_Master_ISR_DMA) refers to stm32h7xx_hal_i2c.o(.text.I2C_Enable_IRQ) for I2C_Enable_IRQ
    stm32h7xx_hal_i2c.o(.text.I2C_Master_ISR_DMA) refers to stm32h7xx_hal_i2c.o(.text.I2C_Flush_TXDR) for I2C_Flush_TXDR
    stm32h7xx_hal_i2c.o(.text.I2C_Master_ISR_DMA) refers to stm32h7xx_hal_i2c.o(.text.I2C_TransferConfig) for I2C_TransferConfig
    stm32h7xx_hal_i2c.o(.text.I2C_Master_ISR_DMA) refers to stm32h7xx_hal_i2c.o(.text.I2C_ITMasterSeqCplt) for I2C_ITMasterSeqCplt
    stm32h7xx_hal_i2c.o(.text.I2C_Master_ISR_DMA) refers to stm32h7xx_hal_i2c.o(.text.I2C_ITError) for I2C_ITError
    stm32h7xx_hal_i2c.o(.text.I2C_Master_ISR_DMA) refers to stm32h7xx_hal_i2c.o(.text.I2C_ITMasterCplt) for I2C_ITMasterCplt
    stm32h7xx_hal_i2c.o(.ARM.exidx.text.I2C_Master_ISR_DMA) refers to stm32h7xx_hal_i2c.o(.text.I2C_Master_ISR_DMA) for [Anonymous Symbol]
    stm32h7xx_hal_i2c.o(.text.I2C_DMAMasterTransmitCplt) refers to stm32h7xx_hal_i2c.o(.text.I2C_Enable_IRQ) for I2C_Enable_IRQ
    stm32h7xx_hal_i2c.o(.text.I2C_DMAMasterTransmitCplt) refers to stm32h7xx_hal_dma.o(.text.HAL_DMA_Start_IT) for HAL_DMA_Start_IT
    stm32h7xx_hal_i2c.o(.text.I2C_DMAMasterTransmitCplt) refers to stm32h7xx_hal_i2c.o(.text.I2C_ITError) for I2C_ITError
    stm32h7xx_hal_i2c.o(.ARM.exidx.text.I2C_DMAMasterTransmitCplt) refers to stm32h7xx_hal_i2c.o(.text.I2C_DMAMasterTransmitCplt) for [Anonymous Symbol]
    stm32h7xx_hal_i2c.o(.text.I2C_DMAError) refers to stm32h7xx_hal_dma.o(.text.HAL_DMA_GetError) for HAL_DMA_GetError
    stm32h7xx_hal_i2c.o(.text.I2C_DMAError) refers to stm32h7xx_hal_i2c.o(.text.I2C_ITError) for I2C_ITError
    stm32h7xx_hal_i2c.o(.ARM.exidx.text.I2C_DMAError) refers to stm32h7xx_hal_i2c.o(.text.I2C_DMAError) for [Anonymous Symbol]
    stm32h7xx_hal_i2c.o(.text.HAL_I2C_Master_Receive_DMA) refers to stm32h7xx_hal_i2c.o(.text.I2C_Master_ISR_DMA) for I2C_Master_ISR_DMA
    stm32h7xx_hal_i2c.o(.text.HAL_I2C_Master_Receive_DMA) refers to stm32h7xx_hal_i2c.o(.text.I2C_DMAMasterReceiveCplt) for I2C_DMAMasterReceiveCplt
    stm32h7xx_hal_i2c.o(.text.HAL_I2C_Master_Receive_DMA) refers to stm32h7xx_hal_i2c.o(.text.I2C_DMAError) for I2C_DMAError
    stm32h7xx_hal_i2c.o(.text.HAL_I2C_Master_Receive_DMA) refers to stm32h7xx_hal_dma.o(.text.HAL_DMA_Start_IT) for HAL_DMA_Start_IT
    stm32h7xx_hal_i2c.o(.text.HAL_I2C_Master_Receive_DMA) refers to stm32h7xx_hal_i2c.o(.text.I2C_TransferConfig) for I2C_TransferConfig
    stm32h7xx_hal_i2c.o(.text.HAL_I2C_Master_Receive_DMA) refers to stm32h7xx_hal_i2c.o(.text.I2C_Enable_IRQ) for I2C_Enable_IRQ
    stm32h7xx_hal_i2c.o(.text.HAL_I2C_Master_Receive_DMA) refers to stm32h7xx_hal_i2c.o(.text.I2C_Master_ISR_IT) for I2C_Master_ISR_IT
    stm32h7xx_hal_i2c.o(.ARM.exidx.text.HAL_I2C_Master_Receive_DMA) refers to stm32h7xx_hal_i2c.o(.text.HAL_I2C_Master_Receive_DMA) for [Anonymous Symbol]
    stm32h7xx_hal_i2c.o(.text.I2C_DMAMasterReceiveCplt) refers to stm32h7xx_hal_i2c.o(.text.I2C_Enable_IRQ) for I2C_Enable_IRQ
    stm32h7xx_hal_i2c.o(.text.I2C_DMAMasterReceiveCplt) refers to stm32h7xx_hal_dma.o(.text.HAL_DMA_Start_IT) for HAL_DMA_Start_IT
    stm32h7xx_hal_i2c.o(.text.I2C_DMAMasterReceiveCplt) refers to stm32h7xx_hal_i2c.o(.text.I2C_ITError) for I2C_ITError
    stm32h7xx_hal_i2c.o(.ARM.exidx.text.I2C_DMAMasterReceiveCplt) refers to stm32h7xx_hal_i2c.o(.text.I2C_DMAMasterReceiveCplt) for [Anonymous Symbol]
    stm32h7xx_hal_i2c.o(.text.HAL_I2C_Slave_Transmit_DMA) refers to stm32h7xx_hal_i2c.o(.text.I2C_Slave_ISR_DMA) for I2C_Slave_ISR_DMA
    stm32h7xx_hal_i2c.o(.text.HAL_I2C_Slave_Transmit_DMA) refers to stm32h7xx_hal_i2c.o(.text.I2C_DMASlaveTransmitCplt) for I2C_DMASlaveTransmitCplt
    stm32h7xx_hal_i2c.o(.text.HAL_I2C_Slave_Transmit_DMA) refers to stm32h7xx_hal_i2c.o(.text.I2C_DMAError) for I2C_DMAError
    stm32h7xx_hal_i2c.o(.text.HAL_I2C_Slave_Transmit_DMA) refers to stm32h7xx_hal_dma.o(.text.HAL_DMA_Start_IT) for HAL_DMA_Start_IT
    stm32h7xx_hal_i2c.o(.text.HAL_I2C_Slave_Transmit_DMA) refers to stm32h7xx_hal_i2c.o(.text.I2C_Enable_IRQ) for I2C_Enable_IRQ
    stm32h7xx_hal_i2c.o(.ARM.exidx.text.HAL_I2C_Slave_Transmit_DMA) refers to stm32h7xx_hal_i2c.o(.text.HAL_I2C_Slave_Transmit_DMA) for [Anonymous Symbol]
    stm32h7xx_hal_i2c.o(.text.I2C_Slave_ISR_DMA) refers to stm32h7xx_hal_i2c.o(.text.I2C_ITListenCplt) for I2C_ITListenCplt
    stm32h7xx_hal_i2c.o(.text.I2C_Slave_ISR_DMA) refers to stm32h7xx_hal_i2c.o(.text.I2C_Flush_TXDR) for I2C_Flush_TXDR
    stm32h7xx_hal_i2c.o(.text.I2C_Slave_ISR_DMA) refers to stm32h7xx_hal_i2c.o(.text.I2C_ITSlaveSeqCplt) for I2C_ITSlaveSeqCplt
    stm32h7xx_hal_i2c.o(.text.I2C_Slave_ISR_DMA) refers to stm32h7xx_hal_i2c.o(.text.I2C_ITError) for I2C_ITError
    stm32h7xx_hal_i2c.o(.text.I2C_Slave_ISR_DMA) refers to stm32h7xx_hal_i2c.o(.text.I2C_ITAddrCplt) for I2C_ITAddrCplt
    stm32h7xx_hal_i2c.o(.text.I2C_Slave_ISR_DMA) refers to stm32h7xx_hal_i2c.o(.text.I2C_ITSlaveCplt) for I2C_ITSlaveCplt
    stm32h7xx_hal_i2c.o(.ARM.exidx.text.I2C_Slave_ISR_DMA) refers to stm32h7xx_hal_i2c.o(.text.I2C_Slave_ISR_DMA) for [Anonymous Symbol]
    stm32h7xx_hal_i2c.o(.text.I2C_DMASlaveTransmitCplt) refers to stm32h7xx_hal_i2c.o(.text.I2C_ITSlaveSeqCplt) for I2C_ITSlaveSeqCplt
    stm32h7xx_hal_i2c.o(.ARM.exidx.text.I2C_DMASlaveTransmitCplt) refers to stm32h7xx_hal_i2c.o(.text.I2C_DMASlaveTransmitCplt) for [Anonymous Symbol]
    stm32h7xx_hal_i2c.o(.text.HAL_I2C_Slave_Receive_DMA) refers to stm32h7xx_hal_i2c.o(.text.I2C_Slave_ISR_DMA) for I2C_Slave_ISR_DMA
    stm32h7xx_hal_i2c.o(.text.HAL_I2C_Slave_Receive_DMA) refers to stm32h7xx_hal_i2c.o(.text.I2C_DMASlaveReceiveCplt) for I2C_DMASlaveReceiveCplt
    stm32h7xx_hal_i2c.o(.text.HAL_I2C_Slave_Receive_DMA) refers to stm32h7xx_hal_i2c.o(.text.I2C_DMAError) for I2C_DMAError
    stm32h7xx_hal_i2c.o(.text.HAL_I2C_Slave_Receive_DMA) refers to stm32h7xx_hal_dma.o(.text.HAL_DMA_Start_IT) for HAL_DMA_Start_IT
    stm32h7xx_hal_i2c.o(.text.HAL_I2C_Slave_Receive_DMA) refers to stm32h7xx_hal_i2c.o(.text.I2C_Enable_IRQ) for I2C_Enable_IRQ
    stm32h7xx_hal_i2c.o(.ARM.exidx.text.HAL_I2C_Slave_Receive_DMA) refers to stm32h7xx_hal_i2c.o(.text.HAL_I2C_Slave_Receive_DMA) for [Anonymous Symbol]
    stm32h7xx_hal_i2c.o(.text.I2C_DMASlaveReceiveCplt) refers to stm32h7xx_hal_i2c.o(.text.I2C_ITSlaveSeqCplt) for I2C_ITSlaveSeqCplt
    stm32h7xx_hal_i2c.o(.ARM.exidx.text.I2C_DMASlaveReceiveCplt) refers to stm32h7xx_hal_i2c.o(.text.I2C_DMASlaveReceiveCplt) for [Anonymous Symbol]
    stm32h7xx_hal_i2c.o(.text.HAL_I2C_Mem_Write) refers to timebase.o(.text.HAL_GetTick) for HAL_GetTick
    stm32h7xx_hal_i2c.o(.text.HAL_I2C_Mem_Write) refers to stm32h7xx_hal_i2c.o(.text.I2C_WaitOnFlagUntilTimeout) for I2C_WaitOnFlagUntilTimeout
    stm32h7xx_hal_i2c.o(.text.HAL_I2C_Mem_Write) refers to stm32h7xx_hal_i2c.o(.text.I2C_RequestMemoryWrite) for I2C_RequestMemoryWrite
    stm32h7xx_hal_i2c.o(.text.HAL_I2C_Mem_Write) refers to stm32h7xx_hal_i2c.o(.text.I2C_TransferConfig) for I2C_TransferConfig
    stm32h7xx_hal_i2c.o(.text.HAL_I2C_Mem_Write) refers to stm32h7xx_hal_i2c.o(.text.I2C_WaitOnTXISFlagUntilTimeout) for I2C_WaitOnTXISFlagUntilTimeout
    stm32h7xx_hal_i2c.o(.text.HAL_I2C_Mem_Write) refers to stm32h7xx_hal_i2c.o(.text.I2C_WaitOnSTOPFlagUntilTimeout) for I2C_WaitOnSTOPFlagUntilTimeout
    stm32h7xx_hal_i2c.o(.ARM.exidx.text.HAL_I2C_Mem_Write) refers to stm32h7xx_hal_i2c.o(.text.HAL_I2C_Mem_Write) for [Anonymous Symbol]
    stm32h7xx_hal_i2c.o(.text.I2C_RequestMemoryWrite) refers to stm32h7xx_hal_i2c.o(.text.I2C_TransferConfig) for I2C_TransferConfig
    stm32h7xx_hal_i2c.o(.text.I2C_RequestMemoryWrite) refers to stm32h7xx_hal_i2c.o(.text.I2C_WaitOnTXISFlagUntilTimeout) for I2C_WaitOnTXISFlagUntilTimeout
    stm32h7xx_hal_i2c.o(.text.I2C_RequestMemoryWrite) refers to stm32h7xx_hal_i2c.o(.text.I2C_WaitOnFlagUntilTimeout) for I2C_WaitOnFlagUntilTimeout
    stm32h7xx_hal_i2c.o(.ARM.exidx.text.I2C_RequestMemoryWrite) refers to stm32h7xx_hal_i2c.o(.text.I2C_RequestMemoryWrite) for [Anonymous Symbol]
    stm32h7xx_hal_i2c.o(.text.HAL_I2C_Mem_Read) refers to timebase.o(.text.HAL_GetTick) for HAL_GetTick
    stm32h7xx_hal_i2c.o(.text.HAL_I2C_Mem_Read) refers to stm32h7xx_hal_i2c.o(.text.I2C_WaitOnFlagUntilTimeout) for I2C_WaitOnFlagUntilTimeout
    stm32h7xx_hal_i2c.o(.text.HAL_I2C_Mem_Read) refers to stm32h7xx_hal_i2c.o(.text.I2C_RequestMemoryRead) for I2C_RequestMemoryRead
    stm32h7xx_hal_i2c.o(.text.HAL_I2C_Mem_Read) refers to stm32h7xx_hal_i2c.o(.text.I2C_TransferConfig) for I2C_TransferConfig
    stm32h7xx_hal_i2c.o(.text.HAL_I2C_Mem_Read) refers to stm32h7xx_hal_i2c.o(.text.I2C_WaitOnSTOPFlagUntilTimeout) for I2C_WaitOnSTOPFlagUntilTimeout
    stm32h7xx_hal_i2c.o(.ARM.exidx.text.HAL_I2C_Mem_Read) refers to stm32h7xx_hal_i2c.o(.text.HAL_I2C_Mem_Read) for [Anonymous Symbol]
    stm32h7xx_hal_i2c.o(.text.I2C_RequestMemoryRead) refers to stm32h7xx_hal_i2c.o(.text.I2C_TransferConfig) for I2C_TransferConfig
    stm32h7xx_hal_i2c.o(.text.I2C_RequestMemoryRead) refers to stm32h7xx_hal_i2c.o(.text.I2C_WaitOnTXISFlagUntilTimeout) for I2C_WaitOnTXISFlagUntilTimeout
    stm32h7xx_hal_i2c.o(.text.I2C_RequestMemoryRead) refers to stm32h7xx_hal_i2c.o(.text.I2C_WaitOnFlagUntilTimeout) for I2C_WaitOnFlagUntilTimeout
    stm32h7xx_hal_i2c.o(.ARM.exidx.text.I2C_RequestMemoryRead) refers to stm32h7xx_hal_i2c.o(.text.I2C_RequestMemoryRead) for [Anonymous Symbol]
    stm32h7xx_hal_i2c.o(.text.HAL_I2C_Mem_Write_IT) refers to timebase.o(.text.HAL_GetTick) for HAL_GetTick
    stm32h7xx_hal_i2c.o(.text.HAL_I2C_Mem_Write_IT) refers to stm32h7xx_hal_i2c.o(.text.I2C_Master_ISR_IT) for I2C_Master_ISR_IT
    stm32h7xx_hal_i2c.o(.text.HAL_I2C_Mem_Write_IT) refers to stm32h7xx_hal_i2c.o(.text.I2C_RequestMemoryWrite) for I2C_RequestMemoryWrite
    stm32h7xx_hal_i2c.o(.text.HAL_I2C_Mem_Write_IT) refers to stm32h7xx_hal_i2c.o(.text.I2C_TransferConfig) for I2C_TransferConfig
    stm32h7xx_hal_i2c.o(.text.HAL_I2C_Mem_Write_IT) refers to stm32h7xx_hal_i2c.o(.text.I2C_Enable_IRQ) for I2C_Enable_IRQ
    stm32h7xx_hal_i2c.o(.ARM.exidx.text.HAL_I2C_Mem_Write_IT) refers to stm32h7xx_hal_i2c.o(.text.HAL_I2C_Mem_Write_IT) for [Anonymous Symbol]
    stm32h7xx_hal_i2c.o(.text.HAL_I2C_Mem_Read_IT) refers to timebase.o(.text.HAL_GetTick) for HAL_GetTick
    stm32h7xx_hal_i2c.o(.text.HAL_I2C_Mem_Read_IT) refers to stm32h7xx_hal_i2c.o(.text.I2C_Master_ISR_IT) for I2C_Master_ISR_IT
    stm32h7xx_hal_i2c.o(.text.HAL_I2C_Mem_Read_IT) refers to stm32h7xx_hal_i2c.o(.text.I2C_RequestMemoryRead) for I2C_RequestMemoryRead
    stm32h7xx_hal_i2c.o(.text.HAL_I2C_Mem_Read_IT) refers to stm32h7xx_hal_i2c.o(.text.I2C_TransferConfig) for I2C_TransferConfig
    stm32h7xx_hal_i2c.o(.text.HAL_I2C_Mem_Read_IT) refers to stm32h7xx_hal_i2c.o(.text.I2C_Enable_IRQ) for I2C_Enable_IRQ
    stm32h7xx_hal_i2c.o(.ARM.exidx.text.HAL_I2C_Mem_Read_IT) refers to stm32h7xx_hal_i2c.o(.text.HAL_I2C_Mem_Read_IT) for [Anonymous Symbol]
    stm32h7xx_hal_i2c.o(.text.HAL_I2C_Mem_Write_DMA) refers to timebase.o(.text.HAL_GetTick) for HAL_GetTick
    stm32h7xx_hal_i2c.o(.text.HAL_I2C_Mem_Write_DMA) refers to stm32h7xx_hal_i2c.o(.text.I2C_Master_ISR_DMA) for I2C_Master_ISR_DMA
    stm32h7xx_hal_i2c.o(.text.HAL_I2C_Mem_Write_DMA) refers to stm32h7xx_hal_i2c.o(.text.I2C_RequestMemoryWrite) for I2C_RequestMemoryWrite
    stm32h7xx_hal_i2c.o(.text.HAL_I2C_Mem_Write_DMA) refers to stm32h7xx_hal_i2c.o(.text.I2C_DMAMasterTransmitCplt) for I2C_DMAMasterTransmitCplt
    stm32h7xx_hal_i2c.o(.text.HAL_I2C_Mem_Write_DMA) refers to stm32h7xx_hal_i2c.o(.text.I2C_DMAError) for I2C_DMAError
    stm32h7xx_hal_i2c.o(.text.HAL_I2C_Mem_Write_DMA) refers to stm32h7xx_hal_dma.o(.text.HAL_DMA_Start_IT) for HAL_DMA_Start_IT
    stm32h7xx_hal_i2c.o(.text.HAL_I2C_Mem_Write_DMA) refers to stm32h7xx_hal_i2c.o(.text.I2C_TransferConfig) for I2C_TransferConfig
    stm32h7xx_hal_i2c.o(.text.HAL_I2C_Mem_Write_DMA) refers to stm32h7xx_hal_i2c.o(.text.I2C_Enable_IRQ) for I2C_Enable_IRQ
    stm32h7xx_hal_i2c.o(.ARM.exidx.text.HAL_I2C_Mem_Write_DMA) refers to stm32h7xx_hal_i2c.o(.text.HAL_I2C_Mem_Write_DMA) for [Anonymous Symbol]
    stm32h7xx_hal_i2c.o(.text.HAL_I2C_Mem_Read_DMA) refers to timebase.o(.text.HAL_GetTick) for HAL_GetTick
    stm32h7xx_hal_i2c.o(.text.HAL_I2C_Mem_Read_DMA) refers to stm32h7xx_hal_i2c.o(.text.I2C_Master_ISR_DMA) for I2C_Master_ISR_DMA
    stm32h7xx_hal_i2c.o(.text.HAL_I2C_Mem_Read_DMA) refers to stm32h7xx_hal_i2c.o(.text.I2C_RequestMemoryRead) for I2C_RequestMemoryRead
    stm32h7xx_hal_i2c.o(.text.HAL_I2C_Mem_Read_DMA) refers to stm32h7xx_hal_i2c.o(.text.I2C_DMAMasterReceiveCplt) for I2C_DMAMasterReceiveCplt
    stm32h7xx_hal_i2c.o(.text.HAL_I2C_Mem_Read_DMA) refers to stm32h7xx_hal_i2c.o(.text.I2C_DMAError) for I2C_DMAError
    stm32h7xx_hal_i2c.o(.text.HAL_I2C_Mem_Read_DMA) refers to stm32h7xx_hal_dma.o(.text.HAL_DMA_Start_IT) for HAL_DMA_Start_IT
    stm32h7xx_hal_i2c.o(.text.HAL_I2C_Mem_Read_DMA) refers to stm32h7xx_hal_i2c.o(.text.I2C_TransferConfig) for I2C_TransferConfig
    stm32h7xx_hal_i2c.o(.text.HAL_I2C_Mem_Read_DMA) refers to stm32h7xx_hal_i2c.o(.text.I2C_Enable_IRQ) for I2C_Enable_IRQ
    stm32h7xx_hal_i2c.o(.ARM.exidx.text.HAL_I2C_Mem_Read_DMA) refers to stm32h7xx_hal_i2c.o(.text.HAL_I2C_Mem_Read_DMA) for [Anonymous Symbol]
    stm32h7xx_hal_i2c.o(.text.HAL_I2C_IsDeviceReady) refers to timebase.o(.text.HAL_GetTick) for HAL_GetTick
    stm32h7xx_hal_i2c.o(.text.HAL_I2C_IsDeviceReady) refers to stm32h7xx_hal_i2c.o(.text.I2C_WaitOnFlagUntilTimeout) for I2C_WaitOnFlagUntilTimeout
    stm32h7xx_hal_i2c.o(.ARM.exidx.text.HAL_I2C_IsDeviceReady) refers to stm32h7xx_hal_i2c.o(.text.HAL_I2C_IsDeviceReady) for [Anonymous Symbol]
    stm32h7xx_hal_i2c.o(.text.HAL_I2C_Master_Seq_Transmit_IT) refers to stm32h7xx_hal_i2c.o(.text.I2C_Master_ISR_IT) for I2C_Master_ISR_IT
    stm32h7xx_hal_i2c.o(.text.HAL_I2C_Master_Seq_Transmit_IT) refers to stm32h7xx_hal_i2c.o(.text.I2C_ConvertOtherXferOptions) for I2C_ConvertOtherXferOptions
    stm32h7xx_hal_i2c.o(.text.HAL_I2C_Master_Seq_Transmit_IT) refers to stm32h7xx_hal_i2c.o(.text.I2C_TransferConfig) for I2C_TransferConfig
    stm32h7xx_hal_i2c.o(.text.HAL_I2C_Master_Seq_Transmit_IT) refers to stm32h7xx_hal_i2c.o(.text.I2C_Enable_IRQ) for I2C_Enable_IRQ
    stm32h7xx_hal_i2c.o(.ARM.exidx.text.HAL_I2C_Master_Seq_Transmit_IT) refers to stm32h7xx_hal_i2c.o(.text.HAL_I2C_Master_Seq_Transmit_IT) for [Anonymous Symbol]
    stm32h7xx_hal_i2c.o(.ARM.exidx.text.I2C_ConvertOtherXferOptions) refers to stm32h7xx_hal_i2c.o(.text.I2C_ConvertOtherXferOptions) for [Anonymous Symbol]
    stm32h7xx_hal_i2c.o(.text.HAL_I2C_Master_Seq_Transmit_DMA) refers to stm32h7xx_hal_i2c.o(.text.I2C_Master_ISR_DMA) for I2C_Master_ISR_DMA
    stm32h7xx_hal_i2c.o(.text.HAL_I2C_Master_Seq_Transmit_DMA) refers to stm32h7xx_hal_i2c.o(.text.I2C_ConvertOtherXferOptions) for I2C_ConvertOtherXferOptions
    stm32h7xx_hal_i2c.o(.text.HAL_I2C_Master_Seq_Transmit_DMA) refers to stm32h7xx_hal_i2c.o(.text.I2C_DMAMasterTransmitCplt) for I2C_DMAMasterTransmitCplt
    stm32h7xx_hal_i2c.o(.text.HAL_I2C_Master_Seq_Transmit_DMA) refers to stm32h7xx_hal_i2c.o(.text.I2C_DMAError) for I2C_DMAError
    stm32h7xx_hal_i2c.o(.text.HAL_I2C_Master_Seq_Transmit_DMA) refers to stm32h7xx_hal_dma.o(.text.HAL_DMA_Start_IT) for HAL_DMA_Start_IT
    stm32h7xx_hal_i2c.o(.text.HAL_I2C_Master_Seq_Transmit_DMA) refers to stm32h7xx_hal_i2c.o(.text.I2C_TransferConfig) for I2C_TransferConfig
    stm32h7xx_hal_i2c.o(.text.HAL_I2C_Master_Seq_Transmit_DMA) refers to stm32h7xx_hal_i2c.o(.text.I2C_Enable_IRQ) for I2C_Enable_IRQ
    stm32h7xx_hal_i2c.o(.text.HAL_I2C_Master_Seq_Transmit_DMA) refers to stm32h7xx_hal_i2c.o(.text.I2C_Master_ISR_IT) for I2C_Master_ISR_IT
    stm32h7xx_hal_i2c.o(.ARM.exidx.text.HAL_I2C_Master_Seq_Transmit_DMA) refers to stm32h7xx_hal_i2c.o(.text.HAL_I2C_Master_Seq_Transmit_DMA) for [Anonymous Symbol]
    stm32h7xx_hal_i2c.o(.text.HAL_I2C_Master_Seq_Receive_IT) refers to stm32h7xx_hal_i2c.o(.text.I2C_Master_ISR_IT) for I2C_Master_ISR_IT
    stm32h7xx_hal_i2c.o(.text.HAL_I2C_Master_Seq_Receive_IT) refers to stm32h7xx_hal_i2c.o(.text.I2C_ConvertOtherXferOptions) for I2C_ConvertOtherXferOptions
    stm32h7xx_hal_i2c.o(.text.HAL_I2C_Master_Seq_Receive_IT) refers to stm32h7xx_hal_i2c.o(.text.I2C_TransferConfig) for I2C_TransferConfig
    stm32h7xx_hal_i2c.o(.text.HAL_I2C_Master_Seq_Receive_IT) refers to stm32h7xx_hal_i2c.o(.text.I2C_Enable_IRQ) for I2C_Enable_IRQ
    stm32h7xx_hal_i2c.o(.ARM.exidx.text.HAL_I2C_Master_Seq_Receive_IT) refers to stm32h7xx_hal_i2c.o(.text.HAL_I2C_Master_Seq_Receive_IT) for [Anonymous Symbol]
    stm32h7xx_hal_i2c.o(.text.HAL_I2C_Master_Seq_Receive_DMA) refers to stm32h7xx_hal_i2c.o(.text.I2C_Master_ISR_DMA) for I2C_Master_ISR_DMA
    stm32h7xx_hal_i2c.o(.text.HAL_I2C_Master_Seq_Receive_DMA) refers to stm32h7xx_hal_i2c.o(.text.I2C_ConvertOtherXferOptions) for I2C_ConvertOtherXferOptions
    stm32h7xx_hal_i2c.o(.text.HAL_I2C_Master_Seq_Receive_DMA) refers to stm32h7xx_hal_i2c.o(.text.I2C_DMAMasterReceiveCplt) for I2C_DMAMasterReceiveCplt
    stm32h7xx_hal_i2c.o(.text.HAL_I2C_Master_Seq_Receive_DMA) refers to stm32h7xx_hal_i2c.o(.text.I2C_DMAError) for I2C_DMAError
    stm32h7xx_hal_i2c.o(.text.HAL_I2C_Master_Seq_Receive_DMA) refers to stm32h7xx_hal_dma.o(.text.HAL_DMA_Start_IT) for HAL_DMA_Start_IT
    stm32h7xx_hal_i2c.o(.text.HAL_I2C_Master_Seq_Receive_DMA) refers to stm32h7xx_hal_i2c.o(.text.I2C_TransferConfig) for I2C_TransferConfig
    stm32h7xx_hal_i2c.o(.text.HAL_I2C_Master_Seq_Receive_DMA) refers to stm32h7xx_hal_i2c.o(.text.I2C_Enable_IRQ) for I2C_Enable_IRQ
    stm32h7xx_hal_i2c.o(.text.HAL_I2C_Master_Seq_Receive_DMA) refers to stm32h7xx_hal_i2c.o(.text.I2C_Master_ISR_IT) for I2C_Master_ISR_IT
    stm32h7xx_hal_i2c.o(.ARM.exidx.text.HAL_I2C_Master_Seq_Receive_DMA) refers to stm32h7xx_hal_i2c.o(.text.HAL_I2C_Master_Seq_Receive_DMA) for [Anonymous Symbol]
    stm32h7xx_hal_i2c.o(.text.HAL_I2C_Slave_Seq_Transmit_IT) refers to stm32h7xx_hal_i2c.o(.text.I2C_Disable_IRQ) for I2C_Disable_IRQ
    stm32h7xx_hal_i2c.o(.text.HAL_I2C_Slave_Seq_Transmit_IT) refers to stm32h7xx_hal_i2c.o(.text.I2C_DMAAbort) for I2C_DMAAbort
    stm32h7xx_hal_i2c.o(.text.HAL_I2C_Slave_Seq_Transmit_IT) refers to stm32h7xx_hal_dma.o(.text.HAL_DMA_Abort_IT) for HAL_DMA_Abort_IT
    stm32h7xx_hal_i2c.o(.text.HAL_I2C_Slave_Seq_Transmit_IT) refers to stm32h7xx_hal_i2c.o(.text.I2C_Slave_ISR_IT) for I2C_Slave_ISR_IT
    stm32h7xx_hal_i2c.o(.text.HAL_I2C_Slave_Seq_Transmit_IT) refers to stm32h7xx_hal_i2c.o(.text.I2C_Enable_IRQ) for I2C_Enable_IRQ
    stm32h7xx_hal_i2c.o(.ARM.exidx.text.HAL_I2C_Slave_Seq_Transmit_IT) refers to stm32h7xx_hal_i2c.o(.text.HAL_I2C_Slave_Seq_Transmit_IT) for [Anonymous Symbol]
    stm32h7xx_hal_i2c.o(.ARM.exidx.text.I2C_Disable_IRQ) refers to stm32h7xx_hal_i2c.o(.text.I2C_Disable_IRQ) for [Anonymous Symbol]
    stm32h7xx_hal_i2c.o(.text.I2C_DMAAbort) refers to stm32h7xx_hal_i2c.o(.text.HAL_I2C_AbortCpltCallback) for HAL_I2C_AbortCpltCallback
    stm32h7xx_hal_i2c.o(.text.I2C_DMAAbort) refers to stm32h7xx_hal_i2c.o(.text.HAL_I2C_ErrorCallback) for HAL_I2C_ErrorCallback
    stm32h7xx_hal_i2c.o(.ARM.exidx.text.I2C_DMAAbort) refers to stm32h7xx_hal_i2c.o(.text.I2C_DMAAbort) for [Anonymous Symbol]
    stm32h7xx_hal_i2c.o(.text.HAL_I2C_Slave_Seq_Transmit_DMA) refers to stm32h7xx_hal_i2c.o(.text.I2C_Disable_IRQ) for I2C_Disable_IRQ
    stm32h7xx_hal_i2c.o(.text.HAL_I2C_Slave_Seq_Transmit_DMA) refers to stm32h7xx_hal_i2c.o(.text.I2C_DMAAbort) for I2C_DMAAbort
    stm32h7xx_hal_i2c.o(.text.HAL_I2C_Slave_Seq_Transmit_DMA) refers to stm32h7xx_hal_dma.o(.text.HAL_DMA_Abort_IT) for HAL_DMA_Abort_IT
    stm32h7xx_hal_i2c.o(.text.HAL_I2C_Slave_Seq_Transmit_DMA) refers to stm32h7xx_hal_i2c.o(.text.I2C_Slave_ISR_DMA) for I2C_Slave_ISR_DMA
    stm32h7xx_hal_i2c.o(.text.HAL_I2C_Slave_Seq_Transmit_DMA) refers to stm32h7xx_hal_i2c.o(.text.I2C_DMASlaveTransmitCplt) for I2C_DMASlaveTransmitCplt
    stm32h7xx_hal_i2c.o(.text.HAL_I2C_Slave_Seq_Transmit_DMA) refers to stm32h7xx_hal_i2c.o(.text.I2C_DMAError) for I2C_DMAError
    stm32h7xx_hal_i2c.o(.text.HAL_I2C_Slave_Seq_Transmit_DMA) refers to stm32h7xx_hal_dma.o(.text.HAL_DMA_Start_IT) for HAL_DMA_Start_IT
    stm32h7xx_hal_i2c.o(.text.HAL_I2C_Slave_Seq_Transmit_DMA) refers to stm32h7xx_hal_i2c.o(.text.I2C_Enable_IRQ) for I2C_Enable_IRQ
    stm32h7xx_hal_i2c.o(.ARM.exidx.text.HAL_I2C_Slave_Seq_Transmit_DMA) refers to stm32h7xx_hal_i2c.o(.text.HAL_I2C_Slave_Seq_Transmit_DMA) for [Anonymous Symbol]
    stm32h7xx_hal_i2c.o(.text.HAL_I2C_Slave_Seq_Receive_IT) refers to stm32h7xx_hal_i2c.o(.text.I2C_Disable_IRQ) for I2C_Disable_IRQ
    stm32h7xx_hal_i2c.o(.text.HAL_I2C_Slave_Seq_Receive_IT) refers to stm32h7xx_hal_i2c.o(.text.I2C_DMAAbort) for I2C_DMAAbort
    stm32h7xx_hal_i2c.o(.text.HAL_I2C_Slave_Seq_Receive_IT) refers to stm32h7xx_hal_dma.o(.text.HAL_DMA_Abort_IT) for HAL_DMA_Abort_IT
    stm32h7xx_hal_i2c.o(.text.HAL_I2C_Slave_Seq_Receive_IT) refers to stm32h7xx_hal_i2c.o(.text.I2C_Slave_ISR_IT) for I2C_Slave_ISR_IT
    stm32h7xx_hal_i2c.o(.text.HAL_I2C_Slave_Seq_Receive_IT) refers to stm32h7xx_hal_i2c.o(.text.I2C_Enable_IRQ) for I2C_Enable_IRQ
    stm32h7xx_hal_i2c.o(.ARM.exidx.text.HAL_I2C_Slave_Seq_Receive_IT) refers to stm32h7xx_hal_i2c.o(.text.HAL_I2C_Slave_Seq_Receive_IT) for [Anonymous Symbol]
    stm32h7xx_hal_i2c.o(.text.HAL_I2C_Slave_Seq_Receive_DMA) refers to stm32h7xx_hal_i2c.o(.text.I2C_Disable_IRQ) for I2C_Disable_IRQ
    stm32h7xx_hal_i2c.o(.text.HAL_I2C_Slave_Seq_Receive_DMA) refers to stm32h7xx_hal_i2c.o(.text.I2C_DMAAbort) for I2C_DMAAbort
    stm32h7xx_hal_i2c.o(.text.HAL_I2C_Slave_Seq_Receive_DMA) refers to stm32h7xx_hal_dma.o(.text.HAL_DMA_Abort_IT) for HAL_DMA_Abort_IT
    stm32h7xx_hal_i2c.o(.text.HAL_I2C_Slave_Seq_Receive_DMA) refers to stm32h7xx_hal_i2c.o(.text.I2C_Slave_ISR_DMA) for I2C_Slave_ISR_DMA
    stm32h7xx_hal_i2c.o(.text.HAL_I2C_Slave_Seq_Receive_DMA) refers to stm32h7xx_hal_i2c.o(.text.I2C_DMASlaveReceiveCplt) for I2C_DMASlaveReceiveCplt
    stm32h7xx_hal_i2c.o(.text.HAL_I2C_Slave_Seq_Receive_DMA) refers to stm32h7xx_hal_i2c.o(.text.I2C_DMAError) for I2C_DMAError
    stm32h7xx_hal_i2c.o(.text.HAL_I2C_Slave_Seq_Receive_DMA) refers to stm32h7xx_hal_dma.o(.text.HAL_DMA_Start_IT) for HAL_DMA_Start_IT
    stm32h7xx_hal_i2c.o(.text.HAL_I2C_Slave_Seq_Receive_DMA) refers to stm32h7xx_hal_i2c.o(.text.I2C_Enable_IRQ) for I2C_Enable_IRQ
    stm32h7xx_hal_i2c.o(.ARM.exidx.text.HAL_I2C_Slave_Seq_Receive_DMA) refers to stm32h7xx_hal_i2c.o(.text.HAL_I2C_Slave_Seq_Receive_DMA) for [Anonymous Symbol]
    stm32h7xx_hal_i2c.o(.text.HAL_I2C_EnableListen_IT) refers to stm32h7xx_hal_i2c.o(.text.I2C_Slave_ISR_IT) for I2C_Slave_ISR_IT
    stm32h7xx_hal_i2c.o(.text.HAL_I2C_EnableListen_IT) refers to stm32h7xx_hal_i2c.o(.text.I2C_Enable_IRQ) for I2C_Enable_IRQ
    stm32h7xx_hal_i2c.o(.ARM.exidx.text.HAL_I2C_EnableListen_IT) refers to stm32h7xx_hal_i2c.o(.text.HAL_I2C_EnableListen_IT) for [Anonymous Symbol]
    stm32h7xx_hal_i2c.o(.text.HAL_I2C_DisableListen_IT) refers to stm32h7xx_hal_i2c.o(.text.I2C_Disable_IRQ) for I2C_Disable_IRQ
    stm32h7xx_hal_i2c.o(.ARM.exidx.text.HAL_I2C_DisableListen_IT) refers to stm32h7xx_hal_i2c.o(.text.HAL_I2C_DisableListen_IT) for [Anonymous Symbol]
    stm32h7xx_hal_i2c.o(.text.HAL_I2C_Master_Abort_IT) refers to stm32h7xx_hal_i2c.o(.text.I2C_Disable_IRQ) for I2C_Disable_IRQ
    stm32h7xx_hal_i2c.o(.text.HAL_I2C_Master_Abort_IT) refers to stm32h7xx_hal_i2c.o(.text.I2C_TransferConfig) for I2C_TransferConfig
    stm32h7xx_hal_i2c.o(.text.HAL_I2C_Master_Abort_IT) refers to stm32h7xx_hal_i2c.o(.text.I2C_Enable_IRQ) for I2C_Enable_IRQ
    stm32h7xx_hal_i2c.o(.ARM.exidx.text.HAL_I2C_Master_Abort_IT) refers to stm32h7xx_hal_i2c.o(.text.HAL_I2C_Master_Abort_IT) for [Anonymous Symbol]
    stm32h7xx_hal_i2c.o(.ARM.exidx.text.HAL_I2C_EV_IRQHandler) refers to stm32h7xx_hal_i2c.o(.text.HAL_I2C_EV_IRQHandler) for [Anonymous Symbol]
    stm32h7xx_hal_i2c.o(.text.HAL_I2C_ER_IRQHandler) refers to stm32h7xx_hal_i2c.o(.text.I2C_ITError) for I2C_ITError
    stm32h7xx_hal_i2c.o(.ARM.exidx.text.HAL_I2C_ER_IRQHandler) refers to stm32h7xx_hal_i2c.o(.text.HAL_I2C_ER_IRQHandler) for [Anonymous Symbol]
    stm32h7xx_hal_i2c.o(.text.I2C_ITError) refers to stm32h7xx_hal_i2c.o(.text.I2C_Disable_IRQ) for I2C_Disable_IRQ
    stm32h7xx_hal_i2c.o(.text.I2C_ITError) refers to stm32h7xx_hal_i2c.o(.text.I2C_Slave_ISR_IT) for I2C_Slave_ISR_IT
    stm32h7xx_hal_i2c.o(.text.I2C_ITError) refers to stm32h7xx_hal_i2c.o(.text.I2C_DMAAbort) for I2C_DMAAbort
    stm32h7xx_hal_i2c.o(.text.I2C_ITError) refers to stm32h7xx_hal_dma.o(.text.HAL_DMA_Abort_IT) for HAL_DMA_Abort_IT
    stm32h7xx_hal_i2c.o(.text.I2C_ITError) refers to stm32h7xx_hal_i2c.o(.text.HAL_I2C_AbortCpltCallback) for HAL_I2C_AbortCpltCallback
    stm32h7xx_hal_i2c.o(.text.I2C_ITError) refers to stm32h7xx_hal_i2c.o(.text.HAL_I2C_ErrorCallback) for HAL_I2C_ErrorCallback
    stm32h7xx_hal_i2c.o(.ARM.exidx.text.I2C_ITError) refers to stm32h7xx_hal_i2c.o(.text.I2C_ITError) for [Anonymous Symbol]
    stm32h7xx_hal_i2c.o(.ARM.exidx.text.HAL_I2C_MasterTxCpltCallback) refers to stm32h7xx_hal_i2c.o(.text.HAL_I2C_MasterTxCpltCallback) for [Anonymous Symbol]
    stm32h7xx_hal_i2c.o(.ARM.exidx.text.HAL_I2C_MasterRxCpltCallback) refers to stm32h7xx_hal_i2c.o(.text.HAL_I2C_MasterRxCpltCallback) for [Anonymous Symbol]
    stm32h7xx_hal_i2c.o(.ARM.exidx.text.HAL_I2C_SlaveTxCpltCallback) refers to stm32h7xx_hal_i2c.o(.text.HAL_I2C_SlaveTxCpltCallback) for [Anonymous Symbol]
    stm32h7xx_hal_i2c.o(.ARM.exidx.text.HAL_I2C_SlaveRxCpltCallback) refers to stm32h7xx_hal_i2c.o(.text.HAL_I2C_SlaveRxCpltCallback) for [Anonymous Symbol]
    stm32h7xx_hal_i2c.o(.ARM.exidx.text.HAL_I2C_AddrCallback) refers to stm32h7xx_hal_i2c.o(.text.HAL_I2C_AddrCallback) for [Anonymous Symbol]
    stm32h7xx_hal_i2c.o(.ARM.exidx.text.HAL_I2C_ListenCpltCallback) refers to stm32h7xx_hal_i2c.o(.text.HAL_I2C_ListenCpltCallback) for [Anonymous Symbol]
    stm32h7xx_hal_i2c.o(.ARM.exidx.text.HAL_I2C_MemTxCpltCallback) refers to stm32h7xx_hal_i2c.o(.text.HAL_I2C_MemTxCpltCallback) for [Anonymous Symbol]
    stm32h7xx_hal_i2c.o(.ARM.exidx.text.HAL_I2C_MemRxCpltCallback) refers to stm32h7xx_hal_i2c.o(.text.HAL_I2C_MemRxCpltCallback) for [Anonymous Symbol]
    stm32h7xx_hal_i2c.o(.ARM.exidx.text.HAL_I2C_ErrorCallback) refers to stm32h7xx_hal_i2c.o(.text.HAL_I2C_ErrorCallback) for [Anonymous Symbol]
    stm32h7xx_hal_i2c.o(.ARM.exidx.text.HAL_I2C_AbortCpltCallback) refers to stm32h7xx_hal_i2c.o(.text.HAL_I2C_AbortCpltCallback) for [Anonymous Symbol]
    stm32h7xx_hal_i2c.o(.ARM.exidx.text.HAL_I2C_GetState) refers to stm32h7xx_hal_i2c.o(.text.HAL_I2C_GetState) for [Anonymous Symbol]
    stm32h7xx_hal_i2c.o(.ARM.exidx.text.HAL_I2C_GetMode) refers to stm32h7xx_hal_i2c.o(.text.HAL_I2C_GetMode) for [Anonymous Symbol]
    stm32h7xx_hal_i2c.o(.ARM.exidx.text.HAL_I2C_GetError) refers to stm32h7xx_hal_i2c.o(.text.HAL_I2C_GetError) for [Anonymous Symbol]
    stm32h7xx_hal_i2c.o(.ARM.exidx.text.I2C_Flush_TXDR) refers to stm32h7xx_hal_i2c.o(.text.I2C_Flush_TXDR) for [Anonymous Symbol]
    stm32h7xx_hal_i2c.o(.text.I2C_ITMasterSeqCplt) refers to stm32h7xx_hal_i2c.o(.text.I2C_Disable_IRQ) for I2C_Disable_IRQ
    stm32h7xx_hal_i2c.o(.text.I2C_ITMasterSeqCplt) refers to stm32h7xx_hal_i2c.o(.text.HAL_I2C_MasterTxCpltCallback) for HAL_I2C_MasterTxCpltCallback
    stm32h7xx_hal_i2c.o(.text.I2C_ITMasterSeqCplt) refers to stm32h7xx_hal_i2c.o(.text.HAL_I2C_MasterRxCpltCallback) for HAL_I2C_MasterRxCpltCallback
    stm32h7xx_hal_i2c.o(.ARM.exidx.text.I2C_ITMasterSeqCplt) refers to stm32h7xx_hal_i2c.o(.text.I2C_ITMasterSeqCplt) for [Anonymous Symbol]
    stm32h7xx_hal_i2c.o(.text.I2C_ITMasterCplt) refers to stm32h7xx_hal_i2c.o(.text.I2C_Flush_TXDR) for I2C_Flush_TXDR
    stm32h7xx_hal_i2c.o(.text.I2C_ITMasterCplt) refers to stm32h7xx_hal_i2c.o(.text.I2C_Disable_IRQ) for I2C_Disable_IRQ
    stm32h7xx_hal_i2c.o(.text.I2C_ITMasterCplt) refers to stm32h7xx_hal_i2c.o(.text.I2C_ITError) for I2C_ITError
    stm32h7xx_hal_i2c.o(.text.I2C_ITMasterCplt) refers to stm32h7xx_hal_i2c.o(.text.HAL_I2C_MemTxCpltCallback) for HAL_I2C_MemTxCpltCallback
    stm32h7xx_hal_i2c.o(.text.I2C_ITMasterCplt) refers to stm32h7xx_hal_i2c.o(.text.HAL_I2C_MasterTxCpltCallback) for HAL_I2C_MasterTxCpltCallback
    stm32h7xx_hal_i2c.o(.text.I2C_ITMasterCplt) refers to stm32h7xx_hal_i2c.o(.text.HAL_I2C_MemRxCpltCallback) for HAL_I2C_MemRxCpltCallback
    stm32h7xx_hal_i2c.o(.text.I2C_ITMasterCplt) refers to stm32h7xx_hal_i2c.o(.text.HAL_I2C_MasterRxCpltCallback) for HAL_I2C_MasterRxCpltCallback
    stm32h7xx_hal_i2c.o(.ARM.exidx.text.I2C_ITMasterCplt) refers to stm32h7xx_hal_i2c.o(.text.I2C_ITMasterCplt) for [Anonymous Symbol]
    stm32h7xx_hal_i2c.o(.text.I2C_ITListenCplt) refers to stm32h7xx_hal_i2c.o(.text.I2C_Disable_IRQ) for I2C_Disable_IRQ
    stm32h7xx_hal_i2c.o(.text.I2C_ITListenCplt) refers to stm32h7xx_hal_i2c.o(.text.HAL_I2C_ListenCpltCallback) for HAL_I2C_ListenCpltCallback
    stm32h7xx_hal_i2c.o(.ARM.exidx.text.I2C_ITListenCplt) refers to stm32h7xx_hal_i2c.o(.text.I2C_ITListenCplt) for [Anonymous Symbol]
    stm32h7xx_hal_i2c.o(.text.I2C_ITSlaveSeqCplt) refers to stm32h7xx_hal_i2c.o(.text.I2C_Disable_IRQ) for I2C_Disable_IRQ
    stm32h7xx_hal_i2c.o(.text.I2C_ITSlaveSeqCplt) refers to stm32h7xx_hal_i2c.o(.text.HAL_I2C_SlaveTxCpltCallback) for HAL_I2C_SlaveTxCpltCallback
    stm32h7xx_hal_i2c.o(.text.I2C_ITSlaveSeqCplt) refers to stm32h7xx_hal_i2c.o(.text.HAL_I2C_SlaveRxCpltCallback) for HAL_I2C_SlaveRxCpltCallback
    stm32h7xx_hal_i2c.o(.ARM.exidx.text.I2C_ITSlaveSeqCplt) refers to stm32h7xx_hal_i2c.o(.text.I2C_ITSlaveSeqCplt) for [Anonymous Symbol]
    stm32h7xx_hal_i2c.o(.text.I2C_ITAddrCplt) refers to stm32h7xx_hal_i2c.o(.text.HAL_I2C_AddrCallback) for HAL_I2C_AddrCallback
    stm32h7xx_hal_i2c.o(.text.I2C_ITAddrCplt) refers to stm32h7xx_hal_i2c.o(.text.I2C_Disable_IRQ) for I2C_Disable_IRQ
    stm32h7xx_hal_i2c.o(.ARM.exidx.text.I2C_ITAddrCplt) refers to stm32h7xx_hal_i2c.o(.text.I2C_ITAddrCplt) for [Anonymous Symbol]
    stm32h7xx_hal_i2c.o(.text.I2C_ITSlaveCplt) refers to stm32h7xx_hal_i2c.o(.text.I2C_Disable_IRQ) for I2C_Disable_IRQ
    stm32h7xx_hal_i2c.o(.text.I2C_ITSlaveCplt) refers to stm32h7xx_hal_i2c.o(.text.I2C_Flush_TXDR) for I2C_Flush_TXDR
    stm32h7xx_hal_i2c.o(.text.I2C_ITSlaveCplt) refers to stm32h7xx_hal_i2c.o(.text.I2C_ITError) for I2C_ITError
    stm32h7xx_hal_i2c.o(.text.I2C_ITSlaveCplt) refers to stm32h7xx_hal_i2c.o(.text.I2C_ITListenCplt) for I2C_ITListenCplt
    stm32h7xx_hal_i2c.o(.text.I2C_ITSlaveCplt) refers to stm32h7xx_hal_i2c.o(.text.I2C_ITSlaveSeqCplt) for I2C_ITSlaveSeqCplt
    stm32h7xx_hal_i2c.o(.text.I2C_ITSlaveCplt) refers to stm32h7xx_hal_i2c.o(.text.HAL_I2C_ListenCpltCallback) for HAL_I2C_ListenCpltCallback
    stm32h7xx_hal_i2c.o(.text.I2C_ITSlaveCplt) refers to stm32h7xx_hal_i2c.o(.text.HAL_I2C_SlaveRxCpltCallback) for HAL_I2C_SlaveRxCpltCallback
    stm32h7xx_hal_i2c.o(.text.I2C_ITSlaveCplt) refers to stm32h7xx_hal_i2c.o(.text.HAL_I2C_SlaveTxCpltCallback) for HAL_I2C_SlaveTxCpltCallback
    stm32h7xx_hal_i2c.o(.ARM.exidx.text.I2C_ITSlaveCplt) refers to stm32h7xx_hal_i2c.o(.text.I2C_ITSlaveCplt) for [Anonymous Symbol]
    stm32h7xx_hal_i2c.o(.text.I2C_IsAcknowledgeFailed) refers to timebase.o(.text.HAL_GetTick) for HAL_GetTick
    stm32h7xx_hal_i2c.o(.text.I2C_IsAcknowledgeFailed) refers to stm32h7xx_hal_i2c.o(.text.I2C_Flush_TXDR) for I2C_Flush_TXDR
    stm32h7xx_hal_i2c.o(.ARM.exidx.text.I2C_IsAcknowledgeFailed) refers to stm32h7xx_hal_i2c.o(.text.I2C_IsAcknowledgeFailed) for [Anonymous Symbol]
    stm32h7xx_hal_i2c_ex.o(.ARM.exidx.text.HAL_I2CEx_ConfigAnalogFilter) refers to stm32h7xx_hal_i2c_ex.o(.text.HAL_I2CEx_ConfigAnalogFilter) for [Anonymous Symbol]
    stm32h7xx_hal_i2c_ex.o(.ARM.exidx.text.HAL_I2CEx_ConfigDigitalFilter) refers to stm32h7xx_hal_i2c_ex.o(.text.HAL_I2CEx_ConfigDigitalFilter) for [Anonymous Symbol]
    stm32h7xx_hal_i2c_ex.o(.ARM.exidx.text.HAL_I2CEx_EnableWakeUp) refers to stm32h7xx_hal_i2c_ex.o(.text.HAL_I2CEx_EnableWakeUp) for [Anonymous Symbol]
    stm32h7xx_hal_i2c_ex.o(.ARM.exidx.text.HAL_I2CEx_DisableWakeUp) refers to stm32h7xx_hal_i2c_ex.o(.text.HAL_I2CEx_DisableWakeUp) for [Anonymous Symbol]
    stm32h7xx_hal_i2c_ex.o(.ARM.exidx.text.HAL_I2CEx_EnableFastModePlus) refers to stm32h7xx_hal_i2c_ex.o(.text.HAL_I2CEx_EnableFastModePlus) for [Anonymous Symbol]
    stm32h7xx_hal_i2c_ex.o(.ARM.exidx.text.HAL_I2CEx_DisableFastModePlus) refers to stm32h7xx_hal_i2c_ex.o(.text.HAL_I2CEx_DisableFastModePlus) for [Anonymous Symbol]
    stm32h7xx_hal_exti.o(.ARM.exidx.text.HAL_EXTI_SetConfigLine) refers to stm32h7xx_hal_exti.o(.text.HAL_EXTI_SetConfigLine) for [Anonymous Symbol]
    stm32h7xx_hal_exti.o(.ARM.exidx.text.HAL_EXTI_GetConfigLine) refers to stm32h7xx_hal_exti.o(.text.HAL_EXTI_GetConfigLine) for [Anonymous Symbol]
    stm32h7xx_hal_exti.o(.ARM.exidx.text.HAL_EXTI_ClearConfigLine) refers to stm32h7xx_hal_exti.o(.text.HAL_EXTI_ClearConfigLine) for [Anonymous Symbol]
    stm32h7xx_hal_exti.o(.ARM.exidx.text.HAL_EXTI_RegisterCallback) refers to stm32h7xx_hal_exti.o(.text.HAL_EXTI_RegisterCallback) for [Anonymous Symbol]
    stm32h7xx_hal_exti.o(.ARM.exidx.text.HAL_EXTI_GetHandle) refers to stm32h7xx_hal_exti.o(.text.HAL_EXTI_GetHandle) for [Anonymous Symbol]
    stm32h7xx_hal_exti.o(.ARM.exidx.text.HAL_EXTI_IRQHandler) refers to stm32h7xx_hal_exti.o(.text.HAL_EXTI_IRQHandler) for [Anonymous Symbol]
    stm32h7xx_hal_exti.o(.ARM.exidx.text.HAL_EXTI_GetPending) refers to stm32h7xx_hal_exti.o(.text.HAL_EXTI_GetPending) for [Anonymous Symbol]
    stm32h7xx_hal_exti.o(.ARM.exidx.text.HAL_EXTI_ClearPending) refers to stm32h7xx_hal_exti.o(.text.HAL_EXTI_ClearPending) for [Anonymous Symbol]
    stm32h7xx_hal_exti.o(.ARM.exidx.text.HAL_EXTI_GenerateSWI) refers to stm32h7xx_hal_exti.o(.text.HAL_EXTI_GenerateSWI) for [Anonymous Symbol]
    stm32h7xx_hal_pcd.o(.text.HAL_PCD_Init) refers to stm32h7xx_hal_pcd.o(.text.HAL_PCD_MspInit) for HAL_PCD_MspInit
    stm32h7xx_hal_pcd.o(.text.HAL_PCD_Init) refers to stm32h7xx_ll_usb.o(.text.USB_DisableGlobalInt) for USB_DisableGlobalInt
    stm32h7xx_hal_pcd.o(.text.HAL_PCD_Init) refers to stm32h7xx_ll_usb.o(.text.USB_CoreInit) for USB_CoreInit
    stm32h7xx_hal_pcd.o(.text.HAL_PCD_Init) refers to stm32h7xx_ll_usb.o(.text.USB_SetCurrentMode) for USB_SetCurrentMode
    stm32h7xx_hal_pcd.o(.text.HAL_PCD_Init) refers to stm32h7xx_ll_usb.o(.text.USB_DevInit) for USB_DevInit
    stm32h7xx_hal_pcd.o(.text.HAL_PCD_Init) refers to stm32h7xx_hal_pcd_ex.o(.text.HAL_PCDEx_ActivateLPM) for HAL_PCDEx_ActivateLPM
    stm32h7xx_hal_pcd.o(.text.HAL_PCD_Init) refers to stm32h7xx_ll_usb.o(.text.USB_DevDisconnect) for USB_DevDisconnect
    stm32h7xx_hal_pcd.o(.ARM.exidx.text.HAL_PCD_Init) refers to stm32h7xx_hal_pcd.o(.text.HAL_PCD_Init) for [Anonymous Symbol]
    stm32h7xx_hal_pcd.o(.ARM.exidx.text.HAL_PCD_MspInit) refers to stm32h7xx_hal_pcd.o(.text.HAL_PCD_MspInit) for [Anonymous Symbol]
    stm32h7xx_hal_pcd.o(.text.HAL_PCD_DeInit) refers to stm32h7xx_hal_pcd.o(.text.HAL_PCD_Stop) for HAL_PCD_Stop
    stm32h7xx_hal_pcd.o(.text.HAL_PCD_DeInit) refers to stm32h7xx_hal_pcd.o(.text.HAL_PCD_MspDeInit) for HAL_PCD_MspDeInit
    stm32h7xx_hal_pcd.o(.ARM.exidx.text.HAL_PCD_DeInit) refers to stm32h7xx_hal_pcd.o(.text.HAL_PCD_DeInit) for [Anonymous Symbol]
    stm32h7xx_hal_pcd.o(.text.HAL_PCD_Stop) refers to stm32h7xx_ll_usb.o(.text.USB_DisableGlobalInt) for USB_DisableGlobalInt
    stm32h7xx_hal_pcd.o(.text.HAL_PCD_Stop) refers to stm32h7xx_ll_usb.o(.text.USB_StopDevice) for USB_StopDevice
    stm32h7xx_hal_pcd.o(.text.HAL_PCD_Stop) refers to stm32h7xx_ll_usb.o(.text.USB_DevDisconnect) for USB_DevDisconnect
    stm32h7xx_hal_pcd.o(.ARM.exidx.text.HAL_PCD_Stop) refers to stm32h7xx_hal_pcd.o(.text.HAL_PCD_Stop) for [Anonymous Symbol]
    stm32h7xx_hal_pcd.o(.ARM.exidx.text.HAL_PCD_MspDeInit) refers to stm32h7xx_hal_pcd.o(.text.HAL_PCD_MspDeInit) for [Anonymous Symbol]
    stm32h7xx_hal_pcd.o(.text.HAL_PCD_Start) refers to stm32h7xx_ll_usb.o(.text.USB_DevConnect) for USB_DevConnect
    stm32h7xx_hal_pcd.o(.text.HAL_PCD_Start) refers to stm32h7xx_ll_usb.o(.text.USB_EnableGlobalInt) for USB_EnableGlobalInt
    stm32h7xx_hal_pcd.o(.ARM.exidx.text.HAL_PCD_Start) refers to stm32h7xx_hal_pcd.o(.text.HAL_PCD_Start) for [Anonymous Symbol]
    stm32h7xx_hal_pcd.o(.text.HAL_PCD_IRQHandler) refers to stm32h7xx_ll_usb.o(.text.USB_GetMode) for USB_GetMode
    stm32h7xx_hal_pcd.o(.text.HAL_PCD_IRQHandler) refers to stm32h7xx_ll_usb.o(.text.USB_ReadInterrupts) for USB_ReadInterrupts
    stm32h7xx_hal_pcd.o(.text.HAL_PCD_IRQHandler) refers to stm32h7xx_ll_usb.o(.text.USB_ReadDevAllOutEpInterrupt) for USB_ReadDevAllOutEpInterrupt
    stm32h7xx_hal_pcd.o(.text.HAL_PCD_IRQHandler) refers to stm32h7xx_ll_usb.o(.text.USB_ReadDevOutEPInterrupt) for USB_ReadDevOutEPInterrupt
    stm32h7xx_hal_pcd.o(.text.HAL_PCD_IRQHandler) refers to stm32h7xx_hal_pcd.o(.text.PCD_EP_OutXfrComplete_int) for PCD_EP_OutXfrComplete_int
    stm32h7xx_hal_pcd.o(.text.HAL_PCD_IRQHandler) refers to stm32h7xx_hal_pcd.o(.text.PCD_EP_OutSetupPacket_int) for PCD_EP_OutSetupPacket_int
    stm32h7xx_hal_pcd.o(.text.HAL_PCD_IRQHandler) refers to stm32h7xx_ll_usb.o(.text.USB_EP0_OutStart) for USB_EP0_OutStart
    stm32h7xx_hal_pcd.o(.text.HAL_PCD_IRQHandler) refers to stm32h7xx_ll_usb.o(.text.USB_ReadDevAllInEpInterrupt) for USB_ReadDevAllInEpInterrupt
    stm32h7xx_hal_pcd.o(.text.HAL_PCD_IRQHandler) refers to stm32h7xx_ll_usb.o(.text.USB_ReadDevInEPInterrupt) for USB_ReadDevInEPInterrupt
    stm32h7xx_hal_pcd.o(.text.HAL_PCD_IRQHandler) refers to stm32h7xx_hal_pcd.o(.text.HAL_PCD_DataInStageCallback) for HAL_PCD_DataInStageCallback
    stm32h7xx_hal_pcd.o(.text.HAL_PCD_IRQHandler) refers to stm32h7xx_hal_pcd.o(.text.PCD_WriteEmptyTxFifo) for PCD_WriteEmptyTxFifo
    stm32h7xx_hal_pcd.o(.text.HAL_PCD_IRQHandler) refers to stm32h7xx_hal_pcd_ex.o(.text.HAL_PCDEx_LPM_Callback) for HAL_PCDEx_LPM_Callback
    stm32h7xx_hal_pcd.o(.text.HAL_PCD_IRQHandler) refers to stm32h7xx_hal_pcd.o(.text.HAL_PCD_ResumeCallback) for HAL_PCD_ResumeCallback
    stm32h7xx_hal_pcd.o(.text.HAL_PCD_IRQHandler) refers to stm32h7xx_hal_pcd.o(.text.HAL_PCD_SuspendCallback) for HAL_PCD_SuspendCallback
    stm32h7xx_hal_pcd.o(.text.HAL_PCD_IRQHandler) refers to stm32h7xx_ll_usb.o(.text.USB_FlushTxFifo) for USB_FlushTxFifo
    stm32h7xx_hal_pcd.o(.text.HAL_PCD_IRQHandler) refers to stm32h7xx_ll_usb.o(.text.USB_ActivateSetup) for USB_ActivateSetup
    stm32h7xx_hal_pcd.o(.text.HAL_PCD_IRQHandler) refers to stm32h7xx_ll_usb.o(.text.USB_GetDevSpeed) for USB_GetDevSpeed
    stm32h7xx_hal_pcd.o(.text.HAL_PCD_IRQHandler) refers to stm32h7xx_hal_rcc.o(.text.HAL_RCC_GetHCLKFreq) for HAL_RCC_GetHCLKFreq
    stm32h7xx_hal_pcd.o(.text.HAL_PCD_IRQHandler) refers to stm32h7xx_ll_usb.o(.text.USB_SetTurnaroundTime) for USB_SetTurnaroundTime
    stm32h7xx_hal_pcd.o(.text.HAL_PCD_IRQHandler) refers to stm32h7xx_hal_pcd.o(.text.HAL_PCD_ResetCallback) for HAL_PCD_ResetCallback
    stm32h7xx_hal_pcd.o(.text.HAL_PCD_IRQHandler) refers to stm32h7xx_ll_usb.o(.text.USB_ReadPacket) for USB_ReadPacket
    stm32h7xx_hal_pcd.o(.text.HAL_PCD_IRQHandler) refers to stm32h7xx_hal_pcd.o(.text.HAL_PCD_SOFCallback) for HAL_PCD_SOFCallback
    stm32h7xx_hal_pcd.o(.text.HAL_PCD_IRQHandler) refers to stm32h7xx_hal_pcd.o(.text.HAL_PCD_ISOINIncompleteCallback) for HAL_PCD_ISOINIncompleteCallback
    stm32h7xx_hal_pcd.o(.text.HAL_PCD_IRQHandler) refers to stm32h7xx_hal_pcd.o(.text.HAL_PCD_ISOOUTIncompleteCallback) for HAL_PCD_ISOOUTIncompleteCallback
    stm32h7xx_hal_pcd.o(.text.HAL_PCD_IRQHandler) refers to stm32h7xx_hal_pcd.o(.text.HAL_PCD_ConnectCallback) for HAL_PCD_ConnectCallback
    stm32h7xx_hal_pcd.o(.text.HAL_PCD_IRQHandler) refers to stm32h7xx_hal_pcd.o(.text.HAL_PCD_DisconnectCallback) for HAL_PCD_DisconnectCallback
    stm32h7xx_hal_pcd.o(.ARM.exidx.text.HAL_PCD_IRQHandler) refers to stm32h7xx_hal_pcd.o(.text.HAL_PCD_IRQHandler) for [Anonymous Symbol]
    stm32h7xx_hal_pcd.o(.text.PCD_EP_OutXfrComplete_int) refers to stm32h7xx_hal_pcd.o(.text.HAL_PCD_SetupStageCallback) for HAL_PCD_SetupStageCallback
    stm32h7xx_hal_pcd.o(.text.PCD_EP_OutXfrComplete_int) refers to stm32h7xx_ll_usb.o(.text.USB_EP0_OutStart) for USB_EP0_OutStart
    stm32h7xx_hal_pcd.o(.text.PCD_EP_OutXfrComplete_int) refers to stm32h7xx_hal_pcd.o(.text.HAL_PCD_DataOutStageCallback) for HAL_PCD_DataOutStageCallback
    stm32h7xx_hal_pcd.o(.ARM.exidx.text.PCD_EP_OutXfrComplete_int) refers to stm32h7xx_hal_pcd.o(.text.PCD_EP_OutXfrComplete_int) for [Anonymous Symbol]
    stm32h7xx_hal_pcd.o(.text.PCD_EP_OutSetupPacket_int) refers to stm32h7xx_hal_pcd.o(.text.HAL_PCD_SetupStageCallback) for HAL_PCD_SetupStageCallback
    stm32h7xx_hal_pcd.o(.text.PCD_EP_OutSetupPacket_int) refers to stm32h7xx_ll_usb.o(.text.USB_EP0_OutStart) for USB_EP0_OutStart
    stm32h7xx_hal_pcd.o(.ARM.exidx.text.PCD_EP_OutSetupPacket_int) refers to stm32h7xx_hal_pcd.o(.text.PCD_EP_OutSetupPacket_int) for [Anonymous Symbol]
    stm32h7xx_hal_pcd.o(.ARM.exidx.text.HAL_PCD_DataInStageCallback) refers to stm32h7xx_hal_pcd.o(.text.HAL_PCD_DataInStageCallback) for [Anonymous Symbol]
    stm32h7xx_hal_pcd.o(.text.PCD_WriteEmptyTxFifo) refers to stm32h7xx_ll_usb.o(.text.USB_WritePacket) for USB_WritePacket
    stm32h7xx_hal_pcd.o(.ARM.exidx.text.PCD_WriteEmptyTxFifo) refers to stm32h7xx_hal_pcd.o(.text.PCD_WriteEmptyTxFifo) for [Anonymous Symbol]
    stm32h7xx_hal_pcd.o(.ARM.exidx.text.HAL_PCD_ResumeCallback) refers to stm32h7xx_hal_pcd.o(.text.HAL_PCD_ResumeCallback) for [Anonymous Symbol]
    stm32h7xx_hal_pcd.o(.ARM.exidx.text.HAL_PCD_SuspendCallback) refers to stm32h7xx_hal_pcd.o(.text.HAL_PCD_SuspendCallback) for [Anonymous Symbol]
    stm32h7xx_hal_pcd.o(.ARM.exidx.text.HAL_PCD_ResetCallback) refers to stm32h7xx_hal_pcd.o(.text.HAL_PCD_ResetCallback) for [Anonymous Symbol]
    stm32h7xx_hal_pcd.o(.ARM.exidx.text.HAL_PCD_SOFCallback) refers to stm32h7xx_hal_pcd.o(.text.HAL_PCD_SOFCallback) for [Anonymous Symbol]
    stm32h7xx_hal_pcd.o(.ARM.exidx.text.HAL_PCD_ISOINIncompleteCallback) refers to stm32h7xx_hal_pcd.o(.text.HAL_PCD_ISOINIncompleteCallback) for [Anonymous Symbol]
    stm32h7xx_hal_pcd.o(.ARM.exidx.text.HAL_PCD_ISOOUTIncompleteCallback) refers to stm32h7xx_hal_pcd.o(.text.HAL_PCD_ISOOUTIncompleteCallback) for [Anonymous Symbol]
    stm32h7xx_hal_pcd.o(.ARM.exidx.text.HAL_PCD_ConnectCallback) refers to stm32h7xx_hal_pcd.o(.text.HAL_PCD_ConnectCallback) for [Anonymous Symbol]
    stm32h7xx_hal_pcd.o(.ARM.exidx.text.HAL_PCD_DisconnectCallback) refers to stm32h7xx_hal_pcd.o(.text.HAL_PCD_DisconnectCallback) for [Anonymous Symbol]
    stm32h7xx_hal_pcd.o(.ARM.exidx.text.HAL_PCD_DataOutStageCallback) refers to stm32h7xx_hal_pcd.o(.text.HAL_PCD_DataOutStageCallback) for [Anonymous Symbol]
    stm32h7xx_hal_pcd.o(.ARM.exidx.text.HAL_PCD_SetupStageCallback) refers to stm32h7xx_hal_pcd.o(.text.HAL_PCD_SetupStageCallback) for [Anonymous Symbol]
    stm32h7xx_hal_pcd.o(.text.HAL_PCD_DevConnect) refers to stm32h7xx_ll_usb.o(.text.USB_DevConnect) for USB_DevConnect
    stm32h7xx_hal_pcd.o(.ARM.exidx.text.HAL_PCD_DevConnect) refers to stm32h7xx_hal_pcd.o(.text.HAL_PCD_DevConnect) for [Anonymous Symbol]
    stm32h7xx_hal_pcd.o(.text.HAL_PCD_DevDisconnect) refers to stm32h7xx_ll_usb.o(.text.USB_DevDisconnect) for USB_DevDisconnect
    stm32h7xx_hal_pcd.o(.ARM.exidx.text.HAL_PCD_DevDisconnect) refers to stm32h7xx_hal_pcd.o(.text.HAL_PCD_DevDisconnect) for [Anonymous Symbol]
    stm32h7xx_hal_pcd.o(.text.HAL_PCD_SetAddress) refers to stm32h7xx_ll_usb.o(.text.USB_SetDevAddress) for USB_SetDevAddress
    stm32h7xx_hal_pcd.o(.ARM.exidx.text.HAL_PCD_SetAddress) refers to stm32h7xx_hal_pcd.o(.text.HAL_PCD_SetAddress) for [Anonymous Symbol]
    stm32h7xx_hal_pcd.o(.text.HAL_PCD_EP_Open) refers to stm32h7xx_ll_usb.o(.text.USB_ActivateEndpoint) for USB_ActivateEndpoint
    stm32h7xx_hal_pcd.o(.ARM.exidx.text.HAL_PCD_EP_Open) refers to stm32h7xx_hal_pcd.o(.text.HAL_PCD_EP_Open) for [Anonymous Symbol]
    stm32h7xx_hal_pcd.o(.text.HAL_PCD_EP_Close) refers to stm32h7xx_ll_usb.o(.text.USB_DeactivateEndpoint) for USB_DeactivateEndpoint
    stm32h7xx_hal_pcd.o(.ARM.exidx.text.HAL_PCD_EP_Close) refers to stm32h7xx_hal_pcd.o(.text.HAL_PCD_EP_Close) for [Anonymous Symbol]
    stm32h7xx_hal_pcd.o(.text.HAL_PCD_EP_Receive) refers to stm32h7xx_ll_usb.o(.text.USB_EP0StartXfer) for USB_EP0StartXfer
    stm32h7xx_hal_pcd.o(.text.HAL_PCD_EP_Receive) refers to stm32h7xx_ll_usb.o(.text.USB_EPStartXfer) for USB_EPStartXfer
    stm32h7xx_hal_pcd.o(.ARM.exidx.text.HAL_PCD_EP_Receive) refers to stm32h7xx_hal_pcd.o(.text.HAL_PCD_EP_Receive) for [Anonymous Symbol]
    stm32h7xx_hal_pcd.o(.ARM.exidx.text.HAL_PCD_EP_GetRxCount) refers to stm32h7xx_hal_pcd.o(.text.HAL_PCD_EP_GetRxCount) for [Anonymous Symbol]
    stm32h7xx_hal_pcd.o(.text.HAL_PCD_EP_Transmit) refers to stm32h7xx_ll_usb.o(.text.USB_EP0StartXfer) for USB_EP0StartXfer
    stm32h7xx_hal_pcd.o(.text.HAL_PCD_EP_Transmit) refers to stm32h7xx_ll_usb.o(.text.USB_EPStartXfer) for USB_EPStartXfer
    stm32h7xx_hal_pcd.o(.ARM.exidx.text.HAL_PCD_EP_Transmit) refers to stm32h7xx_hal_pcd.o(.text.HAL_PCD_EP_Transmit) for [Anonymous Symbol]
    stm32h7xx_hal_pcd.o(.text.HAL_PCD_EP_SetStall) refers to stm32h7xx_ll_usb.o(.text.USB_EPSetStall) for USB_EPSetStall
    stm32h7xx_hal_pcd.o(.text.HAL_PCD_EP_SetStall) refers to stm32h7xx_ll_usb.o(.text.USB_EP0_OutStart) for USB_EP0_OutStart
    stm32h7xx_hal_pcd.o(.ARM.exidx.text.HAL_PCD_EP_SetStall) refers to stm32h7xx_hal_pcd.o(.text.HAL_PCD_EP_SetStall) for [Anonymous Symbol]
    stm32h7xx_hal_pcd.o(.text.HAL_PCD_EP_ClrStall) refers to stm32h7xx_ll_usb.o(.text.USB_EPClearStall) for USB_EPClearStall
    stm32h7xx_hal_pcd.o(.ARM.exidx.text.HAL_PCD_EP_ClrStall) refers to stm32h7xx_hal_pcd.o(.text.HAL_PCD_EP_ClrStall) for [Anonymous Symbol]
    stm32h7xx_hal_pcd.o(.text.HAL_PCD_EP_Flush) refers to stm32h7xx_ll_usb.o(.text.USB_FlushTxFifo) for USB_FlushTxFifo
    stm32h7xx_hal_pcd.o(.text.HAL_PCD_EP_Flush) refers to stm32h7xx_ll_usb.o(.text.USB_FlushRxFifo) for USB_FlushRxFifo
    stm32h7xx_hal_pcd.o(.ARM.exidx.text.HAL_PCD_EP_Flush) refers to stm32h7xx_hal_pcd.o(.text.HAL_PCD_EP_Flush) for [Anonymous Symbol]
    stm32h7xx_hal_pcd.o(.text.HAL_PCD_ActivateRemoteWakeup) refers to stm32h7xx_ll_usb.o(.text.USB_ActivateRemoteWakeup) for USB_ActivateRemoteWakeup
    stm32h7xx_hal_pcd.o(.ARM.exidx.text.HAL_PCD_ActivateRemoteWakeup) refers to stm32h7xx_hal_pcd.o(.text.HAL_PCD_ActivateRemoteWakeup) for [Anonymous Symbol]
    stm32h7xx_hal_pcd.o(.text.HAL_PCD_DeActivateRemoteWakeup) refers to stm32h7xx_ll_usb.o(.text.USB_DeActivateRemoteWakeup) for USB_DeActivateRemoteWakeup
    stm32h7xx_hal_pcd.o(.ARM.exidx.text.HAL_PCD_DeActivateRemoteWakeup) refers to stm32h7xx_hal_pcd.o(.text.HAL_PCD_DeActivateRemoteWakeup) for [Anonymous Symbol]
    stm32h7xx_hal_pcd.o(.ARM.exidx.text.HAL_PCD_GetState) refers to stm32h7xx_hal_pcd.o(.text.HAL_PCD_GetState) for [Anonymous Symbol]
    stm32h7xx_hal_pcd_ex.o(.ARM.exidx.text.HAL_PCDEx_SetTxFiFo) refers to stm32h7xx_hal_pcd_ex.o(.text.HAL_PCDEx_SetTxFiFo) for [Anonymous Symbol]
    stm32h7xx_hal_pcd_ex.o(.ARM.exidx.text.HAL_PCDEx_SetRxFiFo) refers to stm32h7xx_hal_pcd_ex.o(.text.HAL_PCDEx_SetRxFiFo) for [Anonymous Symbol]
    stm32h7xx_hal_pcd_ex.o(.ARM.exidx.text.HAL_PCDEx_ActivateLPM) refers to stm32h7xx_hal_pcd_ex.o(.text.HAL_PCDEx_ActivateLPM) for [Anonymous Symbol]
    stm32h7xx_hal_pcd_ex.o(.ARM.exidx.text.HAL_PCDEx_DeActivateLPM) refers to stm32h7xx_hal_pcd_ex.o(.text.HAL_PCDEx_DeActivateLPM) for [Anonymous Symbol]
    stm32h7xx_hal_pcd_ex.o(.text.HAL_PCDEx_BCD_VBUSDetect) refers to timebase.o(.text.HAL_GetTick) for HAL_GetTick
    stm32h7xx_hal_pcd_ex.o(.text.HAL_PCDEx_BCD_VBUSDetect) refers to stm32h7xx_hal_pcd_ex.o(.text.HAL_PCDEx_BCD_Callback) for HAL_PCDEx_BCD_Callback
    stm32h7xx_hal_pcd_ex.o(.text.HAL_PCDEx_BCD_VBUSDetect) refers to timebase.o(.text.HAL_Delay) for HAL_Delay
    stm32h7xx_hal_pcd_ex.o(.text.HAL_PCDEx_BCD_VBUSDetect) refers to stm32h7xx_hal_pcd_ex.o(.text.HAL_PCDEx_DeActivateBCD) for HAL_PCDEx_DeActivateBCD
    stm32h7xx_hal_pcd_ex.o(.ARM.exidx.text.HAL_PCDEx_BCD_VBUSDetect) refers to stm32h7xx_hal_pcd_ex.o(.text.HAL_PCDEx_BCD_VBUSDetect) for [Anonymous Symbol]
    stm32h7xx_hal_pcd_ex.o(.ARM.exidx.text.HAL_PCDEx_BCD_Callback) refers to stm32h7xx_hal_pcd_ex.o(.text.HAL_PCDEx_BCD_Callback) for [Anonymous Symbol]
    stm32h7xx_hal_pcd_ex.o(.ARM.exidx.text.HAL_PCDEx_DeActivateBCD) refers to stm32h7xx_hal_pcd_ex.o(.text.HAL_PCDEx_DeActivateBCD) for [Anonymous Symbol]
    stm32h7xx_hal_pcd_ex.o(.ARM.exidx.text.HAL_PCDEx_ActivateBCD) refers to stm32h7xx_hal_pcd_ex.o(.text.HAL_PCDEx_ActivateBCD) for [Anonymous Symbol]
    stm32h7xx_hal_pcd_ex.o(.ARM.exidx.text.HAL_PCDEx_LPM_Callback) refers to stm32h7xx_hal_pcd_ex.o(.text.HAL_PCDEx_LPM_Callback) for [Anonymous Symbol]
    stm32h7xx_ll_usb.o(.text.USB_CoreInit) refers to stm32h7xx_ll_usb.o(.text.USB_CoreReset) for USB_CoreReset
    stm32h7xx_ll_usb.o(.ARM.exidx.text.USB_CoreInit) refers to stm32h7xx_ll_usb.o(.text.USB_CoreInit) for [Anonymous Symbol]
    stm32h7xx_ll_usb.o(.text.USB_CoreReset) refers to port.o(.text.vPortEnterCritical) for vPortEnterCritical
    stm32h7xx_ll_usb.o(.text.USB_CoreReset) refers to port.o(.text.vPortExitCritical) for vPortExitCritical
    stm32h7xx_ll_usb.o(.ARM.exidx.text.USB_CoreReset) refers to stm32h7xx_ll_usb.o(.text.USB_CoreReset) for [Anonymous Symbol]
    stm32h7xx_ll_usb.o(.ARM.exidx.text.USB_SetTurnaroundTime) refers to stm32h7xx_ll_usb.o(.text.USB_SetTurnaroundTime) for [Anonymous Symbol]
    stm32h7xx_ll_usb.o(.ARM.exidx.text.USB_EnableGlobalInt) refers to stm32h7xx_ll_usb.o(.text.USB_EnableGlobalInt) for [Anonymous Symbol]
    stm32h7xx_ll_usb.o(.ARM.exidx.text.USB_DisableGlobalInt) refers to stm32h7xx_ll_usb.o(.text.USB_DisableGlobalInt) for [Anonymous Symbol]
    stm32h7xx_ll_usb.o(.text.USB_SetCurrentMode) refers to timebase.o(.text.HAL_Delay) for HAL_Delay
    stm32h7xx_ll_usb.o(.ARM.exidx.text.USB_SetCurrentMode) refers to stm32h7xx_ll_usb.o(.text.USB_SetCurrentMode) for [Anonymous Symbol]
    stm32h7xx_ll_usb.o(.text.USB_DevInit) refers to stm32h7xx_ll_usb.o(.text.USB_SetDevSpeed) for USB_SetDevSpeed
    stm32h7xx_ll_usb.o(.text.USB_DevInit) refers to stm32h7xx_ll_usb.o(.text.USB_FlushTxFifo) for USB_FlushTxFifo
    stm32h7xx_ll_usb.o(.text.USB_DevInit) refers to stm32h7xx_ll_usb.o(.text.USB_FlushRxFifo) for USB_FlushRxFifo
    stm32h7xx_ll_usb.o(.ARM.exidx.text.USB_DevInit) refers to stm32h7xx_ll_usb.o(.text.USB_DevInit) for [Anonymous Symbol]
    stm32h7xx_ll_usb.o(.ARM.exidx.text.USB_SetDevSpeed) refers to stm32h7xx_ll_usb.o(.text.USB_SetDevSpeed) for [Anonymous Symbol]
    stm32h7xx_ll_usb.o(.ARM.exidx.text.USB_FlushTxFifo) refers to stm32h7xx_ll_usb.o(.text.USB_FlushTxFifo) for [Anonymous Symbol]
    stm32h7xx_ll_usb.o(.ARM.exidx.text.USB_FlushRxFifo) refers to stm32h7xx_ll_usb.o(.text.USB_FlushRxFifo) for [Anonymous Symbol]
    stm32h7xx_ll_usb.o(.ARM.exidx.text.USB_GetDevSpeed) refers to stm32h7xx_ll_usb.o(.text.USB_GetDevSpeed) for [Anonymous Symbol]
    stm32h7xx_ll_usb.o(.ARM.exidx.text.USB_ActivateEndpoint) refers to stm32h7xx_ll_usb.o(.text.USB_ActivateEndpoint) for [Anonymous Symbol]
    stm32h7xx_ll_usb.o(.ARM.exidx.text.USB_ActivateDedicatedEndpoint) refers to stm32h7xx_ll_usb.o(.text.USB_ActivateDedicatedEndpoint) for [Anonymous Symbol]
    stm32h7xx_ll_usb.o(.ARM.exidx.text.USB_DeactivateEndpoint) refers to stm32h7xx_ll_usb.o(.text.USB_DeactivateEndpoint) for [Anonymous Symbol]
    stm32h7xx_ll_usb.o(.ARM.exidx.text.USB_DeactivateDedicatedEndpoint) refers to stm32h7xx_ll_usb.o(.text.USB_DeactivateDedicatedEndpoint) for [Anonymous Symbol]
    stm32h7xx_ll_usb.o(.text.USB_EPStartXfer) refers to stm32h7xx_ll_usb.o(.text.USB_WritePacket) for USB_WritePacket
    stm32h7xx_ll_usb.o(.ARM.exidx.text.USB_EPStartXfer) refers to stm32h7xx_ll_usb.o(.text.USB_EPStartXfer) for [Anonymous Symbol]
    stm32h7xx_ll_usb.o(.ARM.exidx.text.USB_WritePacket) refers to stm32h7xx_ll_usb.o(.text.USB_WritePacket) for [Anonymous Symbol]
    stm32h7xx_ll_usb.o(.ARM.exidx.text.USB_EP0StartXfer) refers to stm32h7xx_ll_usb.o(.text.USB_EP0StartXfer) for [Anonymous Symbol]
    stm32h7xx_ll_usb.o(.ARM.exidx.text.USB_ReadPacket) refers to stm32h7xx_ll_usb.o(.text.USB_ReadPacket) for [Anonymous Symbol]
    stm32h7xx_ll_usb.o(.ARM.exidx.text.USB_EPSetStall) refers to stm32h7xx_ll_usb.o(.text.USB_EPSetStall) for [Anonymous Symbol]
    stm32h7xx_ll_usb.o(.ARM.exidx.text.USB_EPClearStall) refers to stm32h7xx_ll_usb.o(.text.USB_EPClearStall) for [Anonymous Symbol]
    stm32h7xx_ll_usb.o(.text.USB_StopDevice) refers to stm32h7xx_ll_usb.o(.text.USB_FlushRxFifo) for USB_FlushRxFifo
    stm32h7xx_ll_usb.o(.text.USB_StopDevice) refers to stm32h7xx_ll_usb.o(.text.USB_FlushTxFifo) for USB_FlushTxFifo
    stm32h7xx_ll_usb.o(.ARM.exidx.text.USB_StopDevice) refers to stm32h7xx_ll_usb.o(.text.USB_StopDevice) for [Anonymous Symbol]
    stm32h7xx_ll_usb.o(.ARM.exidx.text.USB_SetDevAddress) refers to stm32h7xx_ll_usb.o(.text.USB_SetDevAddress) for [Anonymous Symbol]
    stm32h7xx_ll_usb.o(.text.USB_DevConnect) refers to timebase.o(.text.HAL_Delay) for HAL_Delay
    stm32h7xx_ll_usb.o(.ARM.exidx.text.USB_DevConnect) refers to stm32h7xx_ll_usb.o(.text.USB_DevConnect) for [Anonymous Symbol]
    stm32h7xx_ll_usb.o(.text.USB_DevDisconnect) refers to timebase.o(.text.HAL_Delay) for HAL_Delay
    stm32h7xx_ll_usb.o(.ARM.exidx.text.USB_DevDisconnect) refers to stm32h7xx_ll_usb.o(.text.USB_DevDisconnect) for [Anonymous Symbol]
    stm32h7xx_ll_usb.o(.ARM.exidx.text.USB_ReadInterrupts) refers to stm32h7xx_ll_usb.o(.text.USB_ReadInterrupts) for [Anonymous Symbol]
    stm32h7xx_ll_usb.o(.ARM.exidx.text.USB_ReadDevAllOutEpInterrupt) refers to stm32h7xx_ll_usb.o(.text.USB_ReadDevAllOutEpInterrupt) for [Anonymous Symbol]
    stm32h7xx_ll_usb.o(.ARM.exidx.text.USB_ReadDevAllInEpInterrupt) refers to stm32h7xx_ll_usb.o(.text.USB_ReadDevAllInEpInterrupt) for [Anonymous Symbol]
    stm32h7xx_ll_usb.o(.ARM.exidx.text.USB_ReadDevOutEPInterrupt) refers to stm32h7xx_ll_usb.o(.text.USB_ReadDevOutEPInterrupt) for [Anonymous Symbol]
    stm32h7xx_ll_usb.o(.ARM.exidx.text.USB_ReadDevInEPInterrupt) refers to stm32h7xx_ll_usb.o(.text.USB_ReadDevInEPInterrupt) for [Anonymous Symbol]
    stm32h7xx_ll_usb.o(.ARM.exidx.text.USB_ClearInterrupts) refers to stm32h7xx_ll_usb.o(.text.USB_ClearInterrupts) for [Anonymous Symbol]
    stm32h7xx_ll_usb.o(.ARM.exidx.text.USB_GetMode) refers to stm32h7xx_ll_usb.o(.text.USB_GetMode) for [Anonymous Symbol]
    stm32h7xx_ll_usb.o(.ARM.exidx.text.USB_ActivateSetup) refers to stm32h7xx_ll_usb.o(.text.USB_ActivateSetup) for [Anonymous Symbol]
    stm32h7xx_ll_usb.o(.ARM.exidx.text.USB_EP0_OutStart) refers to stm32h7xx_ll_usb.o(.text.USB_EP0_OutStart) for [Anonymous Symbol]
    stm32h7xx_ll_usb.o(.text.USB_HostInit) refers to stm32h7xx_ll_usb.o(.text.USB_FlushTxFifo) for USB_FlushTxFifo
    stm32h7xx_ll_usb.o(.text.USB_HostInit) refers to stm32h7xx_ll_usb.o(.text.USB_FlushRxFifo) for USB_FlushRxFifo
    stm32h7xx_ll_usb.o(.text.USB_HostInit) refers to stm32h7xx_ll_usb.o(.text.USB_DriveVbus) for USB_DriveVbus
    stm32h7xx_ll_usb.o(.text.USB_HostInit) refers to timebase.o(.text.HAL_Delay) for HAL_Delay
    stm32h7xx_ll_usb.o(.ARM.exidx.text.USB_HostInit) refers to stm32h7xx_ll_usb.o(.text.USB_HostInit) for [Anonymous Symbol]
    stm32h7xx_ll_usb.o(.ARM.exidx.text.USB_DriveVbus) refers to stm32h7xx_ll_usb.o(.text.USB_DriveVbus) for [Anonymous Symbol]
    stm32h7xx_ll_usb.o(.ARM.exidx.text.USB_InitFSLSPClkSel) refers to stm32h7xx_ll_usb.o(.text.USB_InitFSLSPClkSel) for [Anonymous Symbol]
    stm32h7xx_ll_usb.o(.text.USB_ResetPort) refers to timebase.o(.text.HAL_Delay) for HAL_Delay
    stm32h7xx_ll_usb.o(.ARM.exidx.text.USB_ResetPort) refers to stm32h7xx_ll_usb.o(.text.USB_ResetPort) for [Anonymous Symbol]
    stm32h7xx_ll_usb.o(.ARM.exidx.text.USB_GetHostSpeed) refers to stm32h7xx_ll_usb.o(.text.USB_GetHostSpeed) for [Anonymous Symbol]
    stm32h7xx_ll_usb.o(.ARM.exidx.text.USB_GetCurrentFrame) refers to stm32h7xx_ll_usb.o(.text.USB_GetCurrentFrame) for [Anonymous Symbol]
    stm32h7xx_ll_usb.o(.ARM.exidx.text.USB_HC_Init) refers to stm32h7xx_ll_usb.o(.text.USB_HC_Init) for [Anonymous Symbol]
    stm32h7xx_ll_usb.o(.text.USB_HC_StartXfer) refers to stm32h7xx_ll_usb.o(.text.USB_DoPing) for USB_DoPing
    stm32h7xx_ll_usb.o(.text.USB_HC_StartXfer) refers to stm32h7xx_ll_usb.o(.bss.USB_HC_StartXfer.tmpreg) for USB_HC_StartXfer.tmpreg
    stm32h7xx_ll_usb.o(.text.USB_HC_StartXfer) refers to stm32h7xx_ll_usb.o(.text.USB_WritePacket) for USB_WritePacket
    stm32h7xx_ll_usb.o(.ARM.exidx.text.USB_HC_StartXfer) refers to stm32h7xx_ll_usb.o(.text.USB_HC_StartXfer) for [Anonymous Symbol]
    stm32h7xx_ll_usb.o(.ARM.exidx.text.USB_DoPing) refers to stm32h7xx_ll_usb.o(.text.USB_DoPing) for [Anonymous Symbol]
    stm32h7xx_ll_usb.o(.ARM.exidx.text.USB_HC_ReadInterrupt) refers to stm32h7xx_ll_usb.o(.text.USB_HC_ReadInterrupt) for [Anonymous Symbol]
    stm32h7xx_ll_usb.o(.ARM.exidx.text.USB_HC_Halt) refers to stm32h7xx_ll_usb.o(.text.USB_HC_Halt) for [Anonymous Symbol]
    stm32h7xx_ll_usb.o(.text.USB_StopHost) refers to stm32h7xx_ll_usb.o(.text.USB_DisableGlobalInt) for USB_DisableGlobalInt
    stm32h7xx_ll_usb.o(.text.USB_StopHost) refers to stm32h7xx_ll_usb.o(.text.USB_FlushTxFifo) for USB_FlushTxFifo
    stm32h7xx_ll_usb.o(.text.USB_StopHost) refers to stm32h7xx_ll_usb.o(.text.USB_FlushRxFifo) for USB_FlushRxFifo
    stm32h7xx_ll_usb.o(.text.USB_StopHost) refers to stm32h7xx_ll_usb.o(.text.USB_EnableGlobalInt) for USB_EnableGlobalInt
    stm32h7xx_ll_usb.o(.ARM.exidx.text.USB_StopHost) refers to stm32h7xx_ll_usb.o(.text.USB_StopHost) for [Anonymous Symbol]
    stm32h7xx_ll_usb.o(.ARM.exidx.text.USB_ActivateRemoteWakeup) refers to stm32h7xx_ll_usb.o(.text.USB_ActivateRemoteWakeup) for [Anonymous Symbol]
    stm32h7xx_ll_usb.o(.ARM.exidx.text.USB_DeActivateRemoteWakeup) refers to stm32h7xx_ll_usb.o(.text.USB_DeActivateRemoteWakeup) for [Anonymous Symbol]
    stm32h7xx_ll_delayblock.o(.text.DelayBlock_Enable) refers to timebase.o(.text.HAL_Delay) for HAL_Delay
    stm32h7xx_ll_delayblock.o(.text.DelayBlock_Enable) refers to stm32h7xx_ll_delayblock.o(.text.DelayBlock_Disable) for DelayBlock_Disable
    stm32h7xx_ll_delayblock.o(.ARM.exidx.text.DelayBlock_Enable) refers to stm32h7xx_ll_delayblock.o(.text.DelayBlock_Enable) for [Anonymous Symbol]
    stm32h7xx_ll_delayblock.o(.ARM.exidx.text.DelayBlock_Disable) refers to stm32h7xx_ll_delayblock.o(.text.DelayBlock_Disable) for [Anonymous Symbol]
    stm32h7xx_ll_sdmmc.o(.ARM.exidx.text.SDMMC_Init) refers to stm32h7xx_ll_sdmmc.o(.text.SDMMC_Init) for [Anonymous Symbol]
    stm32h7xx_ll_sdmmc.o(.ARM.exidx.text.SDMMC_ReadFIFO) refers to stm32h7xx_ll_sdmmc.o(.text.SDMMC_ReadFIFO) for [Anonymous Symbol]
    stm32h7xx_ll_sdmmc.o(.ARM.exidx.text.SDMMC_WriteFIFO) refers to stm32h7xx_ll_sdmmc.o(.text.SDMMC_WriteFIFO) for [Anonymous Symbol]
    stm32h7xx_ll_sdmmc.o(.ARM.exidx.text.SDMMC_PowerState_ON) refers to stm32h7xx_ll_sdmmc.o(.text.SDMMC_PowerState_ON) for [Anonymous Symbol]
    stm32h7xx_ll_sdmmc.o(.ARM.exidx.text.SDMMC_PowerState_Cycle) refers to stm32h7xx_ll_sdmmc.o(.text.SDMMC_PowerState_Cycle) for [Anonymous Symbol]
    stm32h7xx_ll_sdmmc.o(.ARM.exidx.text.SDMMC_PowerState_OFF) refers to stm32h7xx_ll_sdmmc.o(.text.SDMMC_PowerState_OFF) for [Anonymous Symbol]
    stm32h7xx_ll_sdmmc.o(.ARM.exidx.text.SDMMC_GetPowerState) refers to stm32h7xx_ll_sdmmc.o(.text.SDMMC_GetPowerState) for [Anonymous Symbol]
    stm32h7xx_ll_sdmmc.o(.ARM.exidx.text.SDMMC_SendCommand) refers to stm32h7xx_ll_sdmmc.o(.text.SDMMC_SendCommand) for [Anonymous Symbol]
    stm32h7xx_ll_sdmmc.o(.ARM.exidx.text.SDMMC_GetCommandResponse) refers to stm32h7xx_ll_sdmmc.o(.text.SDMMC_GetCommandResponse) for [Anonymous Symbol]
    stm32h7xx_ll_sdmmc.o(.ARM.exidx.text.SDMMC_GetResponse) refers to stm32h7xx_ll_sdmmc.o(.text.SDMMC_GetResponse) for [Anonymous Symbol]
    stm32h7xx_ll_sdmmc.o(.ARM.exidx.text.SDMMC_ConfigData) refers to stm32h7xx_ll_sdmmc.o(.text.SDMMC_ConfigData) for [Anonymous Symbol]
    stm32h7xx_ll_sdmmc.o(.ARM.exidx.text.SDMMC_GetDataCounter) refers to stm32h7xx_ll_sdmmc.o(.text.SDMMC_GetDataCounter) for [Anonymous Symbol]
    stm32h7xx_ll_sdmmc.o(.ARM.exidx.text.SDMMC_GetFIFOCount) refers to stm32h7xx_ll_sdmmc.o(.text.SDMMC_GetFIFOCount) for [Anonymous Symbol]
    stm32h7xx_ll_sdmmc.o(.ARM.exidx.text.SDMMC_SetSDMMCReadWaitMode) refers to stm32h7xx_ll_sdmmc.o(.text.SDMMC_SetSDMMCReadWaitMode) for [Anonymous Symbol]
    stm32h7xx_ll_sdmmc.o(.text.SDMMC_CmdBlockLength) refers to stm32h7xx_ll_sdmmc.o(.text.SDMMC_SendCommand) for SDMMC_SendCommand
    stm32h7xx_ll_sdmmc.o(.text.SDMMC_CmdBlockLength) refers to stm32h7xx_ll_sdmmc.o(.text.SDMMC_GetCmdResp1) for SDMMC_GetCmdResp1
    stm32h7xx_ll_sdmmc.o(.ARM.exidx.text.SDMMC_CmdBlockLength) refers to stm32h7xx_ll_sdmmc.o(.text.SDMMC_CmdBlockLength) for [Anonymous Symbol]
    stm32h7xx_ll_sdmmc.o(.text.SDMMC_GetCmdResp1) refers to system_stm32h7xx.o(.data.SystemCoreClock) for SystemCoreClock
    stm32h7xx_ll_sdmmc.o(.text.SDMMC_GetCmdResp1) refers to stm32h7xx_ll_sdmmc.o(.text.SDMMC_GetCommandResponse) for SDMMC_GetCommandResponse
    stm32h7xx_ll_sdmmc.o(.text.SDMMC_GetCmdResp1) refers to stm32h7xx_ll_sdmmc.o(.text.SDMMC_GetResponse) for SDMMC_GetResponse
    stm32h7xx_ll_sdmmc.o(.ARM.exidx.text.SDMMC_GetCmdResp1) refers to stm32h7xx_ll_sdmmc.o(.text.SDMMC_GetCmdResp1) for [Anonymous Symbol]
    stm32h7xx_ll_sdmmc.o(.text.SDMMC_CmdReadSingleBlock) refers to stm32h7xx_ll_sdmmc.o(.text.SDMMC_SendCommand) for SDMMC_SendCommand
    stm32h7xx_ll_sdmmc.o(.text.SDMMC_CmdReadSingleBlock) refers to stm32h7xx_ll_sdmmc.o(.text.SDMMC_GetCmdResp1) for SDMMC_GetCmdResp1
    stm32h7xx_ll_sdmmc.o(.ARM.exidx.text.SDMMC_CmdReadSingleBlock) refers to stm32h7xx_ll_sdmmc.o(.text.SDMMC_CmdReadSingleBlock) for [Anonymous Symbol]
    stm32h7xx_ll_sdmmc.o(.text.SDMMC_CmdReadMultiBlock) refers to stm32h7xx_ll_sdmmc.o(.text.SDMMC_SendCommand) for SDMMC_SendCommand
    stm32h7xx_ll_sdmmc.o(.text.SDMMC_CmdReadMultiBlock) refers to stm32h7xx_ll_sdmmc.o(.text.SDMMC_GetCmdResp1) for SDMMC_GetCmdResp1
    stm32h7xx_ll_sdmmc.o(.ARM.exidx.text.SDMMC_CmdReadMultiBlock) refers to stm32h7xx_ll_sdmmc.o(.text.SDMMC_CmdReadMultiBlock) for [Anonymous Symbol]
    stm32h7xx_ll_sdmmc.o(.text.SDMMC_CmdWriteSingleBlock) refers to stm32h7xx_ll_sdmmc.o(.text.SDMMC_SendCommand) for SDMMC_SendCommand
    stm32h7xx_ll_sdmmc.o(.text.SDMMC_CmdWriteSingleBlock) refers to stm32h7xx_ll_sdmmc.o(.text.SDMMC_GetCmdResp1) for SDMMC_GetCmdResp1
    stm32h7xx_ll_sdmmc.o(.ARM.exidx.text.SDMMC_CmdWriteSingleBlock) refers to stm32h7xx_ll_sdmmc.o(.text.SDMMC_CmdWriteSingleBlock) for [Anonymous Symbol]
    stm32h7xx_ll_sdmmc.o(.text.SDMMC_CmdWriteMultiBlock) refers to stm32h7xx_ll_sdmmc.o(.text.SDMMC_SendCommand) for SDMMC_SendCommand
    stm32h7xx_ll_sdmmc.o(.text.SDMMC_CmdWriteMultiBlock) refers to stm32h7xx_ll_sdmmc.o(.text.SDMMC_GetCmdResp1) for SDMMC_GetCmdResp1
    stm32h7xx_ll_sdmmc.o(.ARM.exidx.text.SDMMC_CmdWriteMultiBlock) refers to stm32h7xx_ll_sdmmc.o(.text.SDMMC_CmdWriteMultiBlock) for [Anonymous Symbol]
    stm32h7xx_ll_sdmmc.o(.text.SDMMC_CmdSDEraseStartAdd) refers to stm32h7xx_ll_sdmmc.o(.text.SDMMC_SendCommand) for SDMMC_SendCommand
    stm32h7xx_ll_sdmmc.o(.text.SDMMC_CmdSDEraseStartAdd) refers to stm32h7xx_ll_sdmmc.o(.text.SDMMC_GetCmdResp1) for SDMMC_GetCmdResp1
    stm32h7xx_ll_sdmmc.o(.ARM.exidx.text.SDMMC_CmdSDEraseStartAdd) refers to stm32h7xx_ll_sdmmc.o(.text.SDMMC_CmdSDEraseStartAdd) for [Anonymous Symbol]
    stm32h7xx_ll_sdmmc.o(.text.SDMMC_CmdSDEraseEndAdd) refers to stm32h7xx_ll_sdmmc.o(.text.SDMMC_SendCommand) for SDMMC_SendCommand
    stm32h7xx_ll_sdmmc.o(.text.SDMMC_CmdSDEraseEndAdd) refers to stm32h7xx_ll_sdmmc.o(.text.SDMMC_GetCmdResp1) for SDMMC_GetCmdResp1
    stm32h7xx_ll_sdmmc.o(.ARM.exidx.text.SDMMC_CmdSDEraseEndAdd) refers to stm32h7xx_ll_sdmmc.o(.text.SDMMC_CmdSDEraseEndAdd) for [Anonymous Symbol]
    stm32h7xx_ll_sdmmc.o(.text.SDMMC_CmdEraseStartAdd) refers to stm32h7xx_ll_sdmmc.o(.text.SDMMC_SendCommand) for SDMMC_SendCommand
    stm32h7xx_ll_sdmmc.o(.text.SDMMC_CmdEraseStartAdd) refers to stm32h7xx_ll_sdmmc.o(.text.SDMMC_GetCmdResp1) for SDMMC_GetCmdResp1
    stm32h7xx_ll_sdmmc.o(.ARM.exidx.text.SDMMC_CmdEraseStartAdd) refers to stm32h7xx_ll_sdmmc.o(.text.SDMMC_CmdEraseStartAdd) for [Anonymous Symbol]
    stm32h7xx_ll_sdmmc.o(.text.SDMMC_CmdEraseEndAdd) refers to stm32h7xx_ll_sdmmc.o(.text.SDMMC_SendCommand) for SDMMC_SendCommand
    stm32h7xx_ll_sdmmc.o(.text.SDMMC_CmdEraseEndAdd) refers to stm32h7xx_ll_sdmmc.o(.text.SDMMC_GetCmdResp1) for SDMMC_GetCmdResp1
    stm32h7xx_ll_sdmmc.o(.ARM.exidx.text.SDMMC_CmdEraseEndAdd) refers to stm32h7xx_ll_sdmmc.o(.text.SDMMC_CmdEraseEndAdd) for [Anonymous Symbol]
    stm32h7xx_ll_sdmmc.o(.text.SDMMC_CmdErase) refers to stm32h7xx_ll_sdmmc.o(.text.SDMMC_SendCommand) for SDMMC_SendCommand
    stm32h7xx_ll_sdmmc.o(.text.SDMMC_CmdErase) refers to stm32h7xx_ll_sdmmc.o(.text.SDMMC_GetCmdResp1) for SDMMC_GetCmdResp1
    stm32h7xx_ll_sdmmc.o(.ARM.exidx.text.SDMMC_CmdErase) refers to stm32h7xx_ll_sdmmc.o(.text.SDMMC_CmdErase) for [Anonymous Symbol]
    stm32h7xx_ll_sdmmc.o(.text.SDMMC_CmdStopTransfer) refers to stm32h7xx_ll_sdmmc.o(.text.SDMMC_SendCommand) for SDMMC_SendCommand
    stm32h7xx_ll_sdmmc.o(.text.SDMMC_CmdStopTransfer) refers to stm32h7xx_ll_sdmmc.o(.text.SDMMC_GetCmdResp1) for SDMMC_GetCmdResp1
    stm32h7xx_ll_sdmmc.o(.ARM.exidx.text.SDMMC_CmdStopTransfer) refers to stm32h7xx_ll_sdmmc.o(.text.SDMMC_CmdStopTransfer) for [Anonymous Symbol]
    stm32h7xx_ll_sdmmc.o(.text.SDMMC_CmdSelDesel) refers to stm32h7xx_ll_sdmmc.o(.text.SDMMC_SendCommand) for SDMMC_SendCommand
    stm32h7xx_ll_sdmmc.o(.text.SDMMC_CmdSelDesel) refers to stm32h7xx_ll_sdmmc.o(.text.SDMMC_GetCmdResp1) for SDMMC_GetCmdResp1
    stm32h7xx_ll_sdmmc.o(.ARM.exidx.text.SDMMC_CmdSelDesel) refers to stm32h7xx_ll_sdmmc.o(.text.SDMMC_CmdSelDesel) for [Anonymous Symbol]
    stm32h7xx_ll_sdmmc.o(.text.SDMMC_CmdGoIdleState) refers to stm32h7xx_ll_sdmmc.o(.text.SDMMC_SendCommand) for SDMMC_SendCommand
    stm32h7xx_ll_sdmmc.o(.text.SDMMC_CmdGoIdleState) refers to stm32h7xx_ll_sdmmc.o(.text.SDMMC_GetCmdError) for SDMMC_GetCmdError
    stm32h7xx_ll_sdmmc.o(.ARM.exidx.text.SDMMC_CmdGoIdleState) refers to stm32h7xx_ll_sdmmc.o(.text.SDMMC_CmdGoIdleState) for [Anonymous Symbol]
    stm32h7xx_ll_sdmmc.o(.text.SDMMC_GetCmdError) refers to system_stm32h7xx.o(.data.SystemCoreClock) for SystemCoreClock
    stm32h7xx_ll_sdmmc.o(.ARM.exidx.text.SDMMC_GetCmdError) refers to stm32h7xx_ll_sdmmc.o(.text.SDMMC_GetCmdError) for [Anonymous Symbol]
    stm32h7xx_ll_sdmmc.o(.text.SDMMC_CmdOperCond) refers to stm32h7xx_ll_sdmmc.o(.text.SDMMC_SendCommand) for SDMMC_SendCommand
    stm32h7xx_ll_sdmmc.o(.text.SDMMC_CmdOperCond) refers to stm32h7xx_ll_sdmmc.o(.text.SDMMC_GetCmdResp7) for SDMMC_GetCmdResp7
    stm32h7xx_ll_sdmmc.o(.ARM.exidx.text.SDMMC_CmdOperCond) refers to stm32h7xx_ll_sdmmc.o(.text.SDMMC_CmdOperCond) for [Anonymous Symbol]
    stm32h7xx_ll_sdmmc.o(.text.SDMMC_GetCmdResp7) refers to system_stm32h7xx.o(.data.SystemCoreClock) for SystemCoreClock
    stm32h7xx_ll_sdmmc.o(.ARM.exidx.text.SDMMC_GetCmdResp7) refers to stm32h7xx_ll_sdmmc.o(.text.SDMMC_GetCmdResp7) for [Anonymous Symbol]
    stm32h7xx_ll_sdmmc.o(.text.SDMMC_CmdAppCommand) refers to stm32h7xx_ll_sdmmc.o(.text.SDMMC_SendCommand) for SDMMC_SendCommand
    stm32h7xx_ll_sdmmc.o(.text.SDMMC_CmdAppCommand) refers to stm32h7xx_ll_sdmmc.o(.text.SDMMC_GetCmdResp1) for SDMMC_GetCmdResp1
    stm32h7xx_ll_sdmmc.o(.ARM.exidx.text.SDMMC_CmdAppCommand) refers to stm32h7xx_ll_sdmmc.o(.text.SDMMC_CmdAppCommand) for [Anonymous Symbol]
    stm32h7xx_ll_sdmmc.o(.text.SDMMC_CmdAppOperCommand) refers to stm32h7xx_ll_sdmmc.o(.text.SDMMC_SendCommand) for SDMMC_SendCommand
    stm32h7xx_ll_sdmmc.o(.text.SDMMC_CmdAppOperCommand) refers to stm32h7xx_ll_sdmmc.o(.text.SDMMC_GetCmdResp3) for SDMMC_GetCmdResp3
    stm32h7xx_ll_sdmmc.o(.ARM.exidx.text.SDMMC_CmdAppOperCommand) refers to stm32h7xx_ll_sdmmc.o(.text.SDMMC_CmdAppOperCommand) for [Anonymous Symbol]
    stm32h7xx_ll_sdmmc.o(.text.SDMMC_GetCmdResp3) refers to system_stm32h7xx.o(.data.SystemCoreClock) for SystemCoreClock
    stm32h7xx_ll_sdmmc.o(.ARM.exidx.text.SDMMC_GetCmdResp3) refers to stm32h7xx_ll_sdmmc.o(.text.SDMMC_GetCmdResp3) for [Anonymous Symbol]
    stm32h7xx_ll_sdmmc.o(.text.SDMMC_CmdBusWidth) refers to stm32h7xx_ll_sdmmc.o(.text.SDMMC_SendCommand) for SDMMC_SendCommand
    stm32h7xx_ll_sdmmc.o(.text.SDMMC_CmdBusWidth) refers to stm32h7xx_ll_sdmmc.o(.text.SDMMC_GetCmdResp1) for SDMMC_GetCmdResp1
    stm32h7xx_ll_sdmmc.o(.ARM.exidx.text.SDMMC_CmdBusWidth) refers to stm32h7xx_ll_sdmmc.o(.text.SDMMC_CmdBusWidth) for [Anonymous Symbol]
    stm32h7xx_ll_sdmmc.o(.text.SDMMC_CmdSendSCR) refers to stm32h7xx_ll_sdmmc.o(.text.SDMMC_SendCommand) for SDMMC_SendCommand
    stm32h7xx_ll_sdmmc.o(.text.SDMMC_CmdSendSCR) refers to stm32h7xx_ll_sdmmc.o(.text.SDMMC_GetCmdResp1) for SDMMC_GetCmdResp1
    stm32h7xx_ll_sdmmc.o(.ARM.exidx.text.SDMMC_CmdSendSCR) refers to stm32h7xx_ll_sdmmc.o(.text.SDMMC_CmdSendSCR) for [Anonymous Symbol]
    stm32h7xx_ll_sdmmc.o(.text.SDMMC_CmdSendCID) refers to stm32h7xx_ll_sdmmc.o(.text.SDMMC_SendCommand) for SDMMC_SendCommand
    stm32h7xx_ll_sdmmc.o(.text.SDMMC_CmdSendCID) refers to stm32h7xx_ll_sdmmc.o(.text.SDMMC_GetCmdResp2) for SDMMC_GetCmdResp2
    stm32h7xx_ll_sdmmc.o(.ARM.exidx.text.SDMMC_CmdSendCID) refers to stm32h7xx_ll_sdmmc.o(.text.SDMMC_CmdSendCID) for [Anonymous Symbol]
    stm32h7xx_ll_sdmmc.o(.text.SDMMC_GetCmdResp2) refers to system_stm32h7xx.o(.data.SystemCoreClock) for SystemCoreClock
    stm32h7xx_ll_sdmmc.o(.ARM.exidx.text.SDMMC_GetCmdResp2) refers to stm32h7xx_ll_sdmmc.o(.text.SDMMC_GetCmdResp2) for [Anonymous Symbol]
    stm32h7xx_ll_sdmmc.o(.text.SDMMC_CmdSendCSD) refers to stm32h7xx_ll_sdmmc.o(.text.SDMMC_SendCommand) for SDMMC_SendCommand
    stm32h7xx_ll_sdmmc.o(.text.SDMMC_CmdSendCSD) refers to stm32h7xx_ll_sdmmc.o(.text.SDMMC_GetCmdResp2) for SDMMC_GetCmdResp2
    stm32h7xx_ll_sdmmc.o(.ARM.exidx.text.SDMMC_CmdSendCSD) refers to stm32h7xx_ll_sdmmc.o(.text.SDMMC_CmdSendCSD) for [Anonymous Symbol]
    stm32h7xx_ll_sdmmc.o(.text.SDMMC_CmdSetRelAdd) refers to stm32h7xx_ll_sdmmc.o(.text.SDMMC_SendCommand) for SDMMC_SendCommand
    stm32h7xx_ll_sdmmc.o(.text.SDMMC_CmdSetRelAdd) refers to stm32h7xx_ll_sdmmc.o(.text.SDMMC_GetCmdResp6) for SDMMC_GetCmdResp6
    stm32h7xx_ll_sdmmc.o(.ARM.exidx.text.SDMMC_CmdSetRelAdd) refers to stm32h7xx_ll_sdmmc.o(.text.SDMMC_CmdSetRelAdd) for [Anonymous Symbol]
    stm32h7xx_ll_sdmmc.o(.text.SDMMC_GetCmdResp6) refers to system_stm32h7xx.o(.data.SystemCoreClock) for SystemCoreClock
    stm32h7xx_ll_sdmmc.o(.text.SDMMC_GetCmdResp6) refers to stm32h7xx_ll_sdmmc.o(.text.SDMMC_GetCommandResponse) for SDMMC_GetCommandResponse
    stm32h7xx_ll_sdmmc.o(.text.SDMMC_GetCmdResp6) refers to stm32h7xx_ll_sdmmc.o(.text.SDMMC_GetResponse) for SDMMC_GetResponse
    stm32h7xx_ll_sdmmc.o(.ARM.exidx.text.SDMMC_GetCmdResp6) refers to stm32h7xx_ll_sdmmc.o(.text.SDMMC_GetCmdResp6) for [Anonymous Symbol]
    stm32h7xx_ll_sdmmc.o(.text.SDMMC_CmdSendStatus) refers to stm32h7xx_ll_sdmmc.o(.text.SDMMC_SendCommand) for SDMMC_SendCommand
    stm32h7xx_ll_sdmmc.o(.text.SDMMC_CmdSendStatus) refers to stm32h7xx_ll_sdmmc.o(.text.SDMMC_GetCmdResp1) for SDMMC_GetCmdResp1
    stm32h7xx_ll_sdmmc.o(.ARM.exidx.text.SDMMC_CmdSendStatus) refers to stm32h7xx_ll_sdmmc.o(.text.SDMMC_CmdSendStatus) for [Anonymous Symbol]
    stm32h7xx_ll_sdmmc.o(.text.SDMMC_CmdStatusRegister) refers to stm32h7xx_ll_sdmmc.o(.text.SDMMC_SendCommand) for SDMMC_SendCommand
    stm32h7xx_ll_sdmmc.o(.text.SDMMC_CmdStatusRegister) refers to stm32h7xx_ll_sdmmc.o(.text.SDMMC_GetCmdResp1) for SDMMC_GetCmdResp1
    stm32h7xx_ll_sdmmc.o(.ARM.exidx.text.SDMMC_CmdStatusRegister) refers to stm32h7xx_ll_sdmmc.o(.text.SDMMC_CmdStatusRegister) for [Anonymous Symbol]
    stm32h7xx_ll_sdmmc.o(.text.SDMMC_CmdOpCondition) refers to stm32h7xx_ll_sdmmc.o(.text.SDMMC_SendCommand) for SDMMC_SendCommand
    stm32h7xx_ll_sdmmc.o(.text.SDMMC_CmdOpCondition) refers to stm32h7xx_ll_sdmmc.o(.text.SDMMC_GetCmdResp3) for SDMMC_GetCmdResp3
    stm32h7xx_ll_sdmmc.o(.ARM.exidx.text.SDMMC_CmdOpCondition) refers to stm32h7xx_ll_sdmmc.o(.text.SDMMC_CmdOpCondition) for [Anonymous Symbol]
    stm32h7xx_ll_sdmmc.o(.text.SDMMC_CmdSwitch) refers to stm32h7xx_ll_sdmmc.o(.text.SDMMC_SendCommand) for SDMMC_SendCommand
    stm32h7xx_ll_sdmmc.o(.text.SDMMC_CmdSwitch) refers to stm32h7xx_ll_sdmmc.o(.text.SDMMC_GetCmdResp1) for SDMMC_GetCmdResp1
    stm32h7xx_ll_sdmmc.o(.ARM.exidx.text.SDMMC_CmdSwitch) refers to stm32h7xx_ll_sdmmc.o(.text.SDMMC_CmdSwitch) for [Anonymous Symbol]
    stm32h7xx_ll_sdmmc.o(.text.SDMMC_CmdVoltageSwitch) refers to stm32h7xx_ll_sdmmc.o(.text.SDMMC_SendCommand) for SDMMC_SendCommand
    stm32h7xx_ll_sdmmc.o(.text.SDMMC_CmdVoltageSwitch) refers to stm32h7xx_ll_sdmmc.o(.text.SDMMC_GetCmdResp1) for SDMMC_GetCmdResp1
    stm32h7xx_ll_sdmmc.o(.ARM.exidx.text.SDMMC_CmdVoltageSwitch) refers to stm32h7xx_ll_sdmmc.o(.text.SDMMC_CmdVoltageSwitch) for [Anonymous Symbol]
    stm32h7xx_ll_sdmmc.o(.text.SDMMC_CmdSendEXTCSD) refers to stm32h7xx_ll_sdmmc.o(.text.SDMMC_SendCommand) for SDMMC_SendCommand
    stm32h7xx_ll_sdmmc.o(.text.SDMMC_CmdSendEXTCSD) refers to stm32h7xx_ll_sdmmc.o(.text.SDMMC_GetCmdResp1) for SDMMC_GetCmdResp1
    stm32h7xx_ll_sdmmc.o(.ARM.exidx.text.SDMMC_CmdSendEXTCSD) refers to stm32h7xx_ll_sdmmc.o(.text.SDMMC_CmdSendEXTCSD) for [Anonymous Symbol]
    stm32h7xx_hal_sd.o(.text.HAL_SD_Init) refers to stm32h7xx_hal_msp.o(.text.HAL_SD_MspInit) for HAL_SD_MspInit
    stm32h7xx_hal_sd.o(.text.HAL_SD_Init) refers to stm32h7xx_hal_sd.o(.text.HAL_SD_InitCard) for HAL_SD_InitCard
    stm32h7xx_hal_sd.o(.text.HAL_SD_Init) refers to stm32h7xx_hal_sd.o(.text.HAL_SD_GetCardStatus) for HAL_SD_GetCardStatus
    stm32h7xx_hal_sd.o(.text.HAL_SD_Init) refers to stm32h7xx_hal_sd.o(.text.HAL_SD_ConfigWideBusOperation) for HAL_SD_ConfigWideBusOperation
    stm32h7xx_hal_sd.o(.text.HAL_SD_Init) refers to timebase.o(.text.HAL_GetTick) for HAL_GetTick
    stm32h7xx_hal_sd.o(.text.HAL_SD_Init) refers to stm32h7xx_hal_sd.o(.text.HAL_SD_GetCardState) for HAL_SD_GetCardState
    stm32h7xx_hal_sd.o(.ARM.exidx.text.HAL_SD_Init) refers to stm32h7xx_hal_sd.o(.text.HAL_SD_Init) for [Anonymous Symbol]
    stm32h7xx_hal_sd.o(.ARM.exidx.text.HAL_SD_MspInit) refers to stm32h7xx_hal_sd.o(.text.HAL_SD_MspInit) for [Anonymous Symbol]
    stm32h7xx_hal_sd.o(.text.HAL_SD_InitCard) refers to stm32h7xx_ll_sdmmc.o(.text.SDMMC_Init) for SDMMC_Init
    stm32h7xx_hal_sd.o(.text.HAL_SD_InitCard) refers to tasks.o(.text.vTaskDelay) for vTaskDelay
    stm32h7xx_hal_sd.o(.text.HAL_SD_InitCard) refers to stm32h7xx_ll_sdmmc.o(.text.SDMMC_PowerState_ON) for SDMMC_PowerState_ON
    stm32h7xx_hal_sd.o(.text.HAL_SD_InitCard) refers to stm32h7xx_hal_sd.o(.text.SD_PowerON) for SD_PowerON
    stm32h7xx_hal_sd.o(.text.HAL_SD_InitCard) refers to stm32h7xx_hal_sd.o(.text.SD_InitCard) for SD_InitCard
    stm32h7xx_hal_sd.o(.ARM.exidx.text.HAL_SD_InitCard) refers to stm32h7xx_hal_sd.o(.text.HAL_SD_InitCard) for [Anonymous Symbol]
    stm32h7xx_hal_sd.o(.text.HAL_SD_GetCardStatus) refers to stm32h7xx_hal_sd.o(.text.SD_SendSDStatus) for SD_SendSDStatus
    stm32h7xx_hal_sd.o(.ARM.exidx.text.HAL_SD_GetCardStatus) refers to stm32h7xx_hal_sd.o(.text.HAL_SD_GetCardStatus) for [Anonymous Symbol]
    stm32h7xx_hal_sd.o(.text.HAL_SD_ConfigWideBusOperation) refers to stm32h7xx_hal_sd.o(.text.SD_WideBus_Enable) for SD_WideBus_Enable
    stm32h7xx_hal_sd.o(.text.HAL_SD_ConfigWideBusOperation) refers to stm32h7xx_hal_sd.o(.text.SD_WideBus_Disable) for SD_WideBus_Disable
    stm32h7xx_hal_sd.o(.text.HAL_SD_ConfigWideBusOperation) refers to stm32h7xx_ll_sdmmc.o(.text.SDMMC_Init) for SDMMC_Init
    stm32h7xx_hal_sd.o(.ARM.exidx.text.HAL_SD_ConfigWideBusOperation) refers to stm32h7xx_hal_sd.o(.text.HAL_SD_ConfigWideBusOperation) for [Anonymous Symbol]
    stm32h7xx_hal_sd.o(.text.HAL_SD_GetCardState) refers to stm32h7xx_hal_sd.o(.text.SD_SendStatus) for SD_SendStatus
    stm32h7xx_hal_sd.o(.ARM.exidx.text.HAL_SD_GetCardState) refers to stm32h7xx_hal_sd.o(.text.HAL_SD_GetCardState) for [Anonymous Symbol]
    stm32h7xx_hal_sd.o(.text.SD_PowerON) refers to stm32h7xx_ll_sdmmc.o(.text.SDMMC_CmdGoIdleState) for SDMMC_CmdGoIdleState
    stm32h7xx_hal_sd.o(.text.SD_PowerON) refers to stm32h7xx_ll_sdmmc.o(.text.SDMMC_CmdOperCond) for SDMMC_CmdOperCond
    stm32h7xx_hal_sd.o(.text.SD_PowerON) refers to tasks.o(.text.vTaskDelay) for vTaskDelay
    stm32h7xx_hal_sd.o(.text.SD_PowerON) refers to stm32h7xx_ll_sdmmc.o(.text.SDMMC_CmdAppCommand) for SDMMC_CmdAppCommand
    stm32h7xx_hal_sd.o(.text.SD_PowerON) refers to stm32h7xx_ll_sdmmc.o(.text.SDMMC_CmdAppOperCommand) for SDMMC_CmdAppOperCommand
    stm32h7xx_hal_sd.o(.text.SD_PowerON) refers to stm32h7xx_ll_sdmmc.o(.text.SDMMC_GetResponse) for SDMMC_GetResponse
    stm32h7xx_hal_sd.o(.ARM.exidx.text.SD_PowerON) refers to stm32h7xx_hal_sd.o(.text.SD_PowerON) for [Anonymous Symbol]
    stm32h7xx_hal_sd.o(.text.SD_InitCard) refers to stm32h7xx_ll_sdmmc.o(.text.SDMMC_GetPowerState) for SDMMC_GetPowerState
    stm32h7xx_hal_sd.o(.text.SD_InitCard) refers to stm32h7xx_ll_sdmmc.o(.text.SDMMC_CmdSendCID) for SDMMC_CmdSendCID
    stm32h7xx_hal_sd.o(.text.SD_InitCard) refers to stm32h7xx_ll_sdmmc.o(.text.SDMMC_GetResponse) for SDMMC_GetResponse
    stm32h7xx_hal_sd.o(.text.SD_InitCard) refers to stm32h7xx_ll_sdmmc.o(.text.SDMMC_CmdSetRelAdd) for SDMMC_CmdSetRelAdd
    stm32h7xx_hal_sd.o(.text.SD_InitCard) refers to stm32h7xx_ll_sdmmc.o(.text.SDMMC_CmdSendCSD) for SDMMC_CmdSendCSD
    stm32h7xx_hal_sd.o(.text.SD_InitCard) refers to stm32h7xx_hal_sd.o(.text.HAL_SD_GetCardCSD) for HAL_SD_GetCardCSD
    stm32h7xx_hal_sd.o(.text.SD_InitCard) refers to stm32h7xx_ll_sdmmc.o(.text.SDMMC_CmdSelDesel) for SDMMC_CmdSelDesel
    stm32h7xx_hal_sd.o(.ARM.exidx.text.SD_InitCard) refers to stm32h7xx_hal_sd.o(.text.SD_InitCard) for [Anonymous Symbol]
    stm32h7xx_hal_sd.o(.text.HAL_SD_DeInit) refers to stm32h7xx_hal_sd.o(.text.SD_PowerOFF) for SD_PowerOFF
    stm32h7xx_hal_sd.o(.text.HAL_SD_DeInit) refers to stm32h7xx_hal_msp.o(.text.HAL_SD_MspDeInit) for HAL_SD_MspDeInit
    stm32h7xx_hal_sd.o(.ARM.exidx.text.HAL_SD_DeInit) refers to stm32h7xx_hal_sd.o(.text.HAL_SD_DeInit) for [Anonymous Symbol]
    stm32h7xx_hal_sd.o(.text.SD_PowerOFF) refers to stm32h7xx_ll_sdmmc.o(.text.SDMMC_PowerState_OFF) for SDMMC_PowerState_OFF
    stm32h7xx_hal_sd.o(.ARM.exidx.text.SD_PowerOFF) refers to stm32h7xx_hal_sd.o(.text.SD_PowerOFF) for [Anonymous Symbol]
    stm32h7xx_hal_sd.o(.ARM.exidx.text.HAL_SD_MspDeInit) refers to stm32h7xx_hal_sd.o(.text.HAL_SD_MspDeInit) for [Anonymous Symbol]
    stm32h7xx_hal_sd.o(.text.HAL_SD_ReadBlocks) refers to timebase.o(.text.HAL_GetTick) for HAL_GetTick
    stm32h7xx_hal_sd.o(.text.HAL_SD_ReadBlocks) refers to stm32h7xx_ll_sdmmc.o(.text.SDMMC_CmdBlockLength) for SDMMC_CmdBlockLength
    stm32h7xx_hal_sd.o(.text.HAL_SD_ReadBlocks) refers to stm32h7xx_ll_sdmmc.o(.text.SDMMC_ConfigData) for SDMMC_ConfigData
    stm32h7xx_hal_sd.o(.text.HAL_SD_ReadBlocks) refers to stm32h7xx_ll_sdmmc.o(.text.SDMMC_CmdReadMultiBlock) for SDMMC_CmdReadMultiBlock
    stm32h7xx_hal_sd.o(.text.HAL_SD_ReadBlocks) refers to stm32h7xx_ll_sdmmc.o(.text.SDMMC_CmdReadSingleBlock) for SDMMC_CmdReadSingleBlock
    stm32h7xx_hal_sd.o(.text.HAL_SD_ReadBlocks) refers to stm32h7xx_ll_sdmmc.o(.text.SDMMC_ReadFIFO) for SDMMC_ReadFIFO
    stm32h7xx_hal_sd.o(.text.HAL_SD_ReadBlocks) refers to stm32h7xx_ll_sdmmc.o(.text.SDMMC_CmdStopTransfer) for SDMMC_CmdStopTransfer
    stm32h7xx_hal_sd.o(.ARM.exidx.text.HAL_SD_ReadBlocks) refers to stm32h7xx_hal_sd.o(.text.HAL_SD_ReadBlocks) for [Anonymous Symbol]
    stm32h7xx_hal_sd.o(.text.HAL_SD_WriteBlocks) refers to timebase.o(.text.HAL_GetTick) for HAL_GetTick
    stm32h7xx_hal_sd.o(.text.HAL_SD_WriteBlocks) refers to stm32h7xx_ll_sdmmc.o(.text.SDMMC_CmdBlockLength) for SDMMC_CmdBlockLength
    stm32h7xx_hal_sd.o(.text.HAL_SD_WriteBlocks) refers to stm32h7xx_ll_sdmmc.o(.text.SDMMC_ConfigData) for SDMMC_ConfigData
    stm32h7xx_hal_sd.o(.text.HAL_SD_WriteBlocks) refers to stm32h7xx_ll_sdmmc.o(.text.SDMMC_CmdWriteMultiBlock) for SDMMC_CmdWriteMultiBlock
    stm32h7xx_hal_sd.o(.text.HAL_SD_WriteBlocks) refers to stm32h7xx_ll_sdmmc.o(.text.SDMMC_CmdWriteSingleBlock) for SDMMC_CmdWriteSingleBlock
    stm32h7xx_hal_sd.o(.text.HAL_SD_WriteBlocks) refers to stm32h7xx_ll_sdmmc.o(.text.SDMMC_WriteFIFO) for SDMMC_WriteFIFO
    stm32h7xx_hal_sd.o(.text.HAL_SD_WriteBlocks) refers to stm32h7xx_ll_sdmmc.o(.text.SDMMC_CmdStopTransfer) for SDMMC_CmdStopTransfer
    stm32h7xx_hal_sd.o(.ARM.exidx.text.HAL_SD_WriteBlocks) refers to stm32h7xx_hal_sd.o(.text.HAL_SD_WriteBlocks) for [Anonymous Symbol]
    stm32h7xx_hal_sd.o(.text.HAL_SD_ReadBlocks_IT) refers to stm32h7xx_ll_sdmmc.o(.text.SDMMC_CmdBlockLength) for SDMMC_CmdBlockLength
    stm32h7xx_hal_sd.o(.text.HAL_SD_ReadBlocks_IT) refers to stm32h7xx_ll_sdmmc.o(.text.SDMMC_ConfigData) for SDMMC_ConfigData
    stm32h7xx_hal_sd.o(.text.HAL_SD_ReadBlocks_IT) refers to stm32h7xx_ll_sdmmc.o(.text.SDMMC_CmdReadMultiBlock) for SDMMC_CmdReadMultiBlock
    stm32h7xx_hal_sd.o(.text.HAL_SD_ReadBlocks_IT) refers to stm32h7xx_ll_sdmmc.o(.text.SDMMC_CmdReadSingleBlock) for SDMMC_CmdReadSingleBlock
    stm32h7xx_hal_sd.o(.ARM.exidx.text.HAL_SD_ReadBlocks_IT) refers to stm32h7xx_hal_sd.o(.text.HAL_SD_ReadBlocks_IT) for [Anonymous Symbol]
    stm32h7xx_hal_sd.o(.text.HAL_SD_WriteBlocks_IT) refers to stm32h7xx_ll_sdmmc.o(.text.SDMMC_CmdBlockLength) for SDMMC_CmdBlockLength
    stm32h7xx_hal_sd.o(.text.HAL_SD_WriteBlocks_IT) refers to stm32h7xx_ll_sdmmc.o(.text.SDMMC_ConfigData) for SDMMC_ConfigData
    stm32h7xx_hal_sd.o(.text.HAL_SD_WriteBlocks_IT) refers to stm32h7xx_ll_sdmmc.o(.text.SDMMC_CmdWriteMultiBlock) for SDMMC_CmdWriteMultiBlock
    stm32h7xx_hal_sd.o(.text.HAL_SD_WriteBlocks_IT) refers to stm32h7xx_ll_sdmmc.o(.text.SDMMC_CmdWriteSingleBlock) for SDMMC_CmdWriteSingleBlock
    stm32h7xx_hal_sd.o(.ARM.exidx.text.HAL_SD_WriteBlocks_IT) refers to stm32h7xx_hal_sd.o(.text.HAL_SD_WriteBlocks_IT) for [Anonymous Symbol]
    stm32h7xx_hal_sd.o(.text.HAL_SD_ReadBlocks_DMA) refers to stm32h7xx_ll_sdmmc.o(.text.SDMMC_CmdBlockLength) for SDMMC_CmdBlockLength
    stm32h7xx_hal_sd.o(.text.HAL_SD_ReadBlocks_DMA) refers to stm32h7xx_ll_sdmmc.o(.text.SDMMC_ConfigData) for SDMMC_ConfigData
    stm32h7xx_hal_sd.o(.text.HAL_SD_ReadBlocks_DMA) refers to stm32h7xx_ll_sdmmc.o(.text.SDMMC_CmdReadMultiBlock) for SDMMC_CmdReadMultiBlock
    stm32h7xx_hal_sd.o(.text.HAL_SD_ReadBlocks_DMA) refers to stm32h7xx_ll_sdmmc.o(.text.SDMMC_CmdReadSingleBlock) for SDMMC_CmdReadSingleBlock
    stm32h7xx_hal_sd.o(.ARM.exidx.text.HAL_SD_ReadBlocks_DMA) refers to stm32h7xx_hal_sd.o(.text.HAL_SD_ReadBlocks_DMA) for [Anonymous Symbol]
    stm32h7xx_hal_sd.o(.text.HAL_SD_WriteBlocks_DMA) refers to stm32h7xx_ll_sdmmc.o(.text.SDMMC_CmdBlockLength) for SDMMC_CmdBlockLength
    stm32h7xx_hal_sd.o(.text.HAL_SD_WriteBlocks_DMA) refers to stm32h7xx_ll_sdmmc.o(.text.SDMMC_ConfigData) for SDMMC_ConfigData
    stm32h7xx_hal_sd.o(.text.HAL_SD_WriteBlocks_DMA) refers to stm32h7xx_ll_sdmmc.o(.text.SDMMC_CmdWriteMultiBlock) for SDMMC_CmdWriteMultiBlock
    stm32h7xx_hal_sd.o(.text.HAL_SD_WriteBlocks_DMA) refers to stm32h7xx_ll_sdmmc.o(.text.SDMMC_CmdWriteSingleBlock) for SDMMC_CmdWriteSingleBlock
    stm32h7xx_hal_sd.o(.ARM.exidx.text.HAL_SD_WriteBlocks_DMA) refers to stm32h7xx_hal_sd.o(.text.HAL_SD_WriteBlocks_DMA) for [Anonymous Symbol]
    stm32h7xx_hal_sd.o(.text.HAL_SD_Erase) refers to stm32h7xx_ll_sdmmc.o(.text.SDMMC_GetResponse) for SDMMC_GetResponse
    stm32h7xx_hal_sd.o(.text.HAL_SD_Erase) refers to stm32h7xx_ll_sdmmc.o(.text.SDMMC_CmdSDEraseStartAdd) for SDMMC_CmdSDEraseStartAdd
    stm32h7xx_hal_sd.o(.text.HAL_SD_Erase) refers to stm32h7xx_ll_sdmmc.o(.text.SDMMC_CmdSDEraseEndAdd) for SDMMC_CmdSDEraseEndAdd
    stm32h7xx_hal_sd.o(.text.HAL_SD_Erase) refers to stm32h7xx_ll_sdmmc.o(.text.SDMMC_CmdErase) for SDMMC_CmdErase
    stm32h7xx_hal_sd.o(.ARM.exidx.text.HAL_SD_Erase) refers to stm32h7xx_hal_sd.o(.text.HAL_SD_Erase) for [Anonymous Symbol]
    stm32h7xx_hal_sd.o(.text.HAL_SD_IRQHandler) refers to stm32h7xx_hal_sd.o(.text.SD_Read_IT) for SD_Read_IT
    stm32h7xx_hal_sd.o(.text.HAL_SD_IRQHandler) refers to stm32h7xx_ll_sdmmc.o(.text.SDMMC_CmdStopTransfer) for SDMMC_CmdStopTransfer
    stm32h7xx_hal_sd.o(.text.HAL_SD_IRQHandler) refers to stm32h7xx_hal_sd.o(.text.HAL_SD_ErrorCallback) for HAL_SD_ErrorCallback
    stm32h7xx_hal_sd.o(.text.HAL_SD_IRQHandler) refers to bsp_driver_sd.o(.text.HAL_SD_RxCpltCallback) for HAL_SD_RxCpltCallback
    stm32h7xx_hal_sd.o(.text.HAL_SD_IRQHandler) refers to bsp_driver_sd.o(.text.HAL_SD_TxCpltCallback) for HAL_SD_TxCpltCallback
    stm32h7xx_hal_sd.o(.text.HAL_SD_IRQHandler) refers to stm32h7xx_hal_sd.o(.text.SD_Write_IT) for SD_Write_IT
    stm32h7xx_hal_sd.o(.text.HAL_SD_IRQHandler) refers to stm32h7xx_hal_sd.o(.text.HAL_SDEx_Write_DMADoubleBuf1CpltCallback) for HAL_SDEx_Write_DMADoubleBuf1CpltCallback
    stm32h7xx_hal_sd.o(.text.HAL_SD_IRQHandler) refers to stm32h7xx_hal_sd.o(.text.HAL_SDEx_Read_DMADoubleBuf1CpltCallback) for HAL_SDEx_Read_DMADoubleBuf1CpltCallback
    stm32h7xx_hal_sd.o(.text.HAL_SD_IRQHandler) refers to stm32h7xx_hal_sd.o(.text.HAL_SDEx_Write_DMADoubleBuf0CpltCallback) for HAL_SDEx_Write_DMADoubleBuf0CpltCallback
    stm32h7xx_hal_sd.o(.text.HAL_SD_IRQHandler) refers to stm32h7xx_hal_sd.o(.text.HAL_SDEx_Read_DMADoubleBuf0CpltCallback) for HAL_SDEx_Read_DMADoubleBuf0CpltCallback
    stm32h7xx_hal_sd.o(.ARM.exidx.text.HAL_SD_IRQHandler) refers to stm32h7xx_hal_sd.o(.text.HAL_SD_IRQHandler) for [Anonymous Symbol]
    stm32h7xx_hal_sd.o(.text.SD_Read_IT) refers to stm32h7xx_ll_sdmmc.o(.text.SDMMC_ReadFIFO) for SDMMC_ReadFIFO
    stm32h7xx_hal_sd.o(.ARM.exidx.text.SD_Read_IT) refers to stm32h7xx_hal_sd.o(.text.SD_Read_IT) for [Anonymous Symbol]
    stm32h7xx_hal_sd.o(.ARM.exidx.text.HAL_SD_ErrorCallback) refers to stm32h7xx_hal_sd.o(.text.HAL_SD_ErrorCallback) for [Anonymous Symbol]
    stm32h7xx_hal_sd.o(.ARM.exidx.text.HAL_SD_RxCpltCallback) refers to stm32h7xx_hal_sd.o(.text.HAL_SD_RxCpltCallback) for [Anonymous Symbol]
    stm32h7xx_hal_sd.o(.ARM.exidx.text.HAL_SD_TxCpltCallback) refers to stm32h7xx_hal_sd.o(.text.HAL_SD_TxCpltCallback) for [Anonymous Symbol]
    stm32h7xx_hal_sd.o(.text.SD_Write_IT) refers to stm32h7xx_ll_sdmmc.o(.text.SDMMC_WriteFIFO) for SDMMC_WriteFIFO
    stm32h7xx_hal_sd.o(.ARM.exidx.text.SD_Write_IT) refers to stm32h7xx_hal_sd.o(.text.SD_Write_IT) for [Anonymous Symbol]
    stm32h7xx_hal_sd.o(.ARM.exidx.text.HAL_SDEx_Write_DMADoubleBuf1CpltCallback) refers to stm32h7xx_hal_sd.o(.text.HAL_SDEx_Write_DMADoubleBuf1CpltCallback) for [Anonymous Symbol]
    stm32h7xx_hal_sd.o(.ARM.exidx.text.HAL_SDEx_Read_DMADoubleBuf1CpltCallback) refers to stm32h7xx_hal_sd.o(.text.HAL_SDEx_Read_DMADoubleBuf1CpltCallback) for [Anonymous Symbol]
    stm32h7xx_hal_sd.o(.ARM.exidx.text.HAL_SDEx_Write_DMADoubleBuf0CpltCallback) refers to stm32h7xx_hal_sd.o(.text.HAL_SDEx_Write_DMADoubleBuf0CpltCallback) for [Anonymous Symbol]
    stm32h7xx_hal_sd.o(.ARM.exidx.text.HAL_SDEx_Read_DMADoubleBuf0CpltCallback) refers to stm32h7xx_hal_sd.o(.text.HAL_SDEx_Read_DMADoubleBuf0CpltCallback) for [Anonymous Symbol]
    stm32h7xx_hal_sd.o(.ARM.exidx.text.HAL_SD_GetState) refers to stm32h7xx_hal_sd.o(.text.HAL_SD_GetState) for [Anonymous Symbol]
    stm32h7xx_hal_sd.o(.ARM.exidx.text.HAL_SD_GetError) refers to stm32h7xx_hal_sd.o(.text.HAL_SD_GetError) for [Anonymous Symbol]
    stm32h7xx_hal_sd.o(.ARM.exidx.text.HAL_SD_AbortCallback) refers to stm32h7xx_hal_sd.o(.text.HAL_SD_AbortCallback) for [Anonymous Symbol]
    stm32h7xx_hal_sd.o(.ARM.exidx.text.HAL_SD_GetCardCID) refers to stm32h7xx_hal_sd.o(.text.HAL_SD_GetCardCID) for [Anonymous Symbol]
    stm32h7xx_hal_sd.o(.ARM.exidx.text.HAL_SD_GetCardCSD) refers to stm32h7xx_hal_sd.o(.text.HAL_SD_GetCardCSD) for [Anonymous Symbol]
    stm32h7xx_hal_sd.o(.text.SD_SendSDStatus) refers to timebase.o(.text.HAL_GetTick) for HAL_GetTick
    stm32h7xx_hal_sd.o(.text.SD_SendSDStatus) refers to stm32h7xx_ll_sdmmc.o(.text.SDMMC_GetResponse) for SDMMC_GetResponse
    stm32h7xx_hal_sd.o(.text.SD_SendSDStatus) refers to stm32h7xx_ll_sdmmc.o(.text.SDMMC_CmdBlockLength) for SDMMC_CmdBlockLength
    stm32h7xx_hal_sd.o(.text.SD_SendSDStatus) refers to stm32h7xx_ll_sdmmc.o(.text.SDMMC_CmdAppCommand) for SDMMC_CmdAppCommand
    stm32h7xx_hal_sd.o(.text.SD_SendSDStatus) refers to stm32h7xx_ll_sdmmc.o(.text.SDMMC_ConfigData) for SDMMC_ConfigData
    stm32h7xx_hal_sd.o(.text.SD_SendSDStatus) refers to stm32h7xx_ll_sdmmc.o(.text.SDMMC_CmdStatusRegister) for SDMMC_CmdStatusRegister
    stm32h7xx_hal_sd.o(.text.SD_SendSDStatus) refers to stm32h7xx_ll_sdmmc.o(.text.SDMMC_ReadFIFO) for SDMMC_ReadFIFO
    stm32h7xx_hal_sd.o(.ARM.exidx.text.SD_SendSDStatus) refers to stm32h7xx_hal_sd.o(.text.SD_SendSDStatus) for [Anonymous Symbol]
    stm32h7xx_hal_sd.o(.ARM.exidx.text.HAL_SD_GetCardInfo) refers to stm32h7xx_hal_sd.o(.text.HAL_SD_GetCardInfo) for [Anonymous Symbol]
    stm32h7xx_hal_sd.o(.text.SD_WideBus_Enable) refers to stm32h7xx_ll_sdmmc.o(.text.SDMMC_GetResponse) for SDMMC_GetResponse
    stm32h7xx_hal_sd.o(.text.SD_WideBus_Enable) refers to stm32h7xx_hal_sd.o(.text.SD_FindSCR) for SD_FindSCR
    stm32h7xx_hal_sd.o(.text.SD_WideBus_Enable) refers to stm32h7xx_ll_sdmmc.o(.text.SDMMC_CmdAppCommand) for SDMMC_CmdAppCommand
    stm32h7xx_hal_sd.o(.text.SD_WideBus_Enable) refers to stm32h7xx_ll_sdmmc.o(.text.SDMMC_CmdBusWidth) for SDMMC_CmdBusWidth
    stm32h7xx_hal_sd.o(.ARM.exidx.text.SD_WideBus_Enable) refers to stm32h7xx_hal_sd.o(.text.SD_WideBus_Enable) for [Anonymous Symbol]
    stm32h7xx_hal_sd.o(.text.SD_WideBus_Disable) refers to stm32h7xx_ll_sdmmc.o(.text.SDMMC_GetResponse) for SDMMC_GetResponse
    stm32h7xx_hal_sd.o(.text.SD_WideBus_Disable) refers to stm32h7xx_hal_sd.o(.text.SD_FindSCR) for SD_FindSCR
    stm32h7xx_hal_sd.o(.text.SD_WideBus_Disable) refers to stm32h7xx_ll_sdmmc.o(.text.SDMMC_CmdAppCommand) for SDMMC_CmdAppCommand
    stm32h7xx_hal_sd.o(.text.SD_WideBus_Disable) refers to stm32h7xx_ll_sdmmc.o(.text.SDMMC_CmdBusWidth) for SDMMC_CmdBusWidth
    stm32h7xx_hal_sd.o(.ARM.exidx.text.SD_WideBus_Disable) refers to stm32h7xx_hal_sd.o(.text.SD_WideBus_Disable) for [Anonymous Symbol]
    stm32h7xx_hal_sd.o(.text.HAL_SD_ConfigSpeedBusOperation) refers to stm32h7xx_hal_sd.o(.text.SD_HighSpeed) for SD_HighSpeed
    stm32h7xx_hal_sd.o(.text.HAL_SD_ConfigSpeedBusOperation) refers to timebase.o(.text.HAL_GetTick) for HAL_GetTick
    stm32h7xx_hal_sd.o(.text.HAL_SD_ConfigSpeedBusOperation) refers to stm32h7xx_hal_sd.o(.text.HAL_SD_GetCardState) for HAL_SD_GetCardState
    stm32h7xx_hal_sd.o(.ARM.exidx.text.HAL_SD_ConfigSpeedBusOperation) refers to stm32h7xx_hal_sd.o(.text.HAL_SD_ConfigSpeedBusOperation) for [Anonymous Symbol]
    stm32h7xx_hal_sd.o(.text.SD_HighSpeed) refers to rt_memclr_w.o(.text) for __aeabi_memclr4
    stm32h7xx_hal_sd.o(.text.SD_HighSpeed) refers to timebase.o(.text.HAL_GetTick) for HAL_GetTick
    stm32h7xx_hal_sd.o(.text.SD_HighSpeed) refers to stm32h7xx_ll_sdmmc.o(.text.SDMMC_CmdBlockLength) for SDMMC_CmdBlockLength
    stm32h7xx_hal_sd.o(.text.SD_HighSpeed) refers to stm32h7xx_ll_sdmmc.o(.text.SDMMC_ConfigData) for SDMMC_ConfigData
    stm32h7xx_hal_sd.o(.text.SD_HighSpeed) refers to stm32h7xx_ll_sdmmc.o(.text.SDMMC_CmdSwitch) for SDMMC_CmdSwitch
    stm32h7xx_hal_sd.o(.text.SD_HighSpeed) refers to stm32h7xx_ll_sdmmc.o(.text.SDMMC_ReadFIFO) for SDMMC_ReadFIFO
    stm32h7xx_hal_sd.o(.ARM.exidx.text.SD_HighSpeed) refers to stm32h7xx_hal_sd.o(.text.SD_HighSpeed) for [Anonymous Symbol]
    stm32h7xx_hal_sd.o(.text.SD_SendStatus) refers to stm32h7xx_ll_sdmmc.o(.text.SDMMC_CmdSendStatus) for SDMMC_CmdSendStatus
    stm32h7xx_hal_sd.o(.text.SD_SendStatus) refers to stm32h7xx_ll_sdmmc.o(.text.SDMMC_GetResponse) for SDMMC_GetResponse
    stm32h7xx_hal_sd.o(.ARM.exidx.text.SD_SendStatus) refers to stm32h7xx_hal_sd.o(.text.SD_SendStatus) for [Anonymous Symbol]
    stm32h7xx_hal_sd.o(.text.HAL_SD_Abort) refers to stm32h7xx_hal_sd.o(.text.HAL_SD_GetCardState) for HAL_SD_GetCardState
    stm32h7xx_hal_sd.o(.text.HAL_SD_Abort) refers to stm32h7xx_ll_sdmmc.o(.text.SDMMC_CmdStopTransfer) for SDMMC_CmdStopTransfer
    stm32h7xx_hal_sd.o(.ARM.exidx.text.HAL_SD_Abort) refers to stm32h7xx_hal_sd.o(.text.HAL_SD_Abort) for [Anonymous Symbol]
    stm32h7xx_hal_sd.o(.text.HAL_SD_Abort_IT) refers to stm32h7xx_hal_sd.o(.text.HAL_SD_GetCardState) for HAL_SD_GetCardState
    stm32h7xx_hal_sd.o(.text.HAL_SD_Abort_IT) refers to stm32h7xx_ll_sdmmc.o(.text.SDMMC_CmdStopTransfer) for SDMMC_CmdStopTransfer
    stm32h7xx_hal_sd.o(.text.HAL_SD_Abort_IT) refers to bsp_driver_sd.o(.text.HAL_SD_AbortCallback) for HAL_SD_AbortCallback
    stm32h7xx_hal_sd.o(.ARM.exidx.text.HAL_SD_Abort_IT) refers to stm32h7xx_hal_sd.o(.text.HAL_SD_Abort_IT) for [Anonymous Symbol]
    stm32h7xx_hal_sd.o(.text.SD_FindSCR) refers to timebase.o(.text.HAL_GetTick) for HAL_GetTick
    stm32h7xx_hal_sd.o(.text.SD_FindSCR) refers to stm32h7xx_ll_sdmmc.o(.text.SDMMC_CmdBlockLength) for SDMMC_CmdBlockLength
    stm32h7xx_hal_sd.o(.text.SD_FindSCR) refers to stm32h7xx_ll_sdmmc.o(.text.SDMMC_CmdAppCommand) for SDMMC_CmdAppCommand
    stm32h7xx_hal_sd.o(.text.SD_FindSCR) refers to stm32h7xx_ll_sdmmc.o(.text.SDMMC_ConfigData) for SDMMC_ConfigData
    stm32h7xx_hal_sd.o(.text.SD_FindSCR) refers to stm32h7xx_ll_sdmmc.o(.text.SDMMC_CmdSendSCR) for SDMMC_CmdSendSCR
    stm32h7xx_hal_sd.o(.text.SD_FindSCR) refers to stm32h7xx_ll_sdmmc.o(.text.SDMMC_ReadFIFO) for SDMMC_ReadFIFO
    stm32h7xx_hal_sd.o(.ARM.exidx.text.SD_FindSCR) refers to stm32h7xx_hal_sd.o(.text.SD_FindSCR) for [Anonymous Symbol]
    stm32h7xx_hal_sd_ex.o(.ARM.exidx.text.HAL_SDEx_ConfigDMAMultiBuffer) refers to stm32h7xx_hal_sd_ex.o(.text.HAL_SDEx_ConfigDMAMultiBuffer) for [Anonymous Symbol]
    stm32h7xx_hal_sd_ex.o(.text.HAL_SDEx_ReadBlocksDMAMultiBuffer) refers to stm32h7xx_ll_sdmmc.o(.text.SDMMC_CmdBlockLength) for SDMMC_CmdBlockLength
    stm32h7xx_hal_sd_ex.o(.text.HAL_SDEx_ReadBlocksDMAMultiBuffer) refers to stm32h7xx_ll_sdmmc.o(.text.SDMMC_ConfigData) for SDMMC_ConfigData
    stm32h7xx_hal_sd_ex.o(.text.HAL_SDEx_ReadBlocksDMAMultiBuffer) refers to stm32h7xx_ll_sdmmc.o(.text.SDMMC_CmdReadMultiBlock) for SDMMC_CmdReadMultiBlock
    stm32h7xx_hal_sd_ex.o(.ARM.exidx.text.HAL_SDEx_ReadBlocksDMAMultiBuffer) refers to stm32h7xx_hal_sd_ex.o(.text.HAL_SDEx_ReadBlocksDMAMultiBuffer) for [Anonymous Symbol]
    stm32h7xx_hal_sd_ex.o(.text.HAL_SDEx_WriteBlocksDMAMultiBuffer) refers to stm32h7xx_ll_sdmmc.o(.text.SDMMC_CmdBlockLength) for SDMMC_CmdBlockLength
    stm32h7xx_hal_sd_ex.o(.text.HAL_SDEx_WriteBlocksDMAMultiBuffer) refers to stm32h7xx_ll_sdmmc.o(.text.SDMMC_ConfigData) for SDMMC_ConfigData
    stm32h7xx_hal_sd_ex.o(.text.HAL_SDEx_WriteBlocksDMAMultiBuffer) refers to stm32h7xx_ll_sdmmc.o(.text.SDMMC_CmdWriteMultiBlock) for SDMMC_CmdWriteMultiBlock
    stm32h7xx_hal_sd_ex.o(.ARM.exidx.text.HAL_SDEx_WriteBlocksDMAMultiBuffer) refers to stm32h7xx_hal_sd_ex.o(.text.HAL_SDEx_WriteBlocksDMAMultiBuffer) for [Anonymous Symbol]
    stm32h7xx_hal_sd_ex.o(.ARM.exidx.text.HAL_SDEx_ChangeDMABuffer) refers to stm32h7xx_hal_sd_ex.o(.text.HAL_SDEx_ChangeDMABuffer) for [Anonymous Symbol]
    event_groups.o(.text.xEventGroupCreateStatic) refers to list.o(.text.vListInitialise) for vListInitialise
    event_groups.o(.ARM.exidx.text.xEventGroupCreateStatic) refers to event_groups.o(.text.xEventGroupCreateStatic) for [Anonymous Symbol]
    event_groups.o(.text.xEventGroupCreate) refers to heap_4.o(.text.pvPortMalloc) for pvPortMalloc
    event_groups.o(.text.xEventGroupCreate) refers to list.o(.text.vListInitialise) for vListInitialise
    event_groups.o(.ARM.exidx.text.xEventGroupCreate) refers to event_groups.o(.text.xEventGroupCreate) for [Anonymous Symbol]
    event_groups.o(.text.xEventGroupSync) refers to tasks.o(.text.xTaskGetSchedulerState) for xTaskGetSchedulerState
    event_groups.o(.text.xEventGroupSync) refers to tasks.o(.text.vTaskSuspendAll) for vTaskSuspendAll
    event_groups.o(.text.xEventGroupSync) refers to event_groups.o(.text.xEventGroupSetBits) for xEventGroupSetBits
    event_groups.o(.text.xEventGroupSync) refers to tasks.o(.text.vTaskPlaceOnUnorderedEventList) for vTaskPlaceOnUnorderedEventList
    event_groups.o(.text.xEventGroupSync) refers to tasks.o(.text.xTaskResumeAll) for xTaskResumeAll
    event_groups.o(.text.xEventGroupSync) refers to tasks.o(.text.uxTaskResetEventItemValue) for uxTaskResetEventItemValue
    event_groups.o(.text.xEventGroupSync) refers to port.o(.text.vPortEnterCritical) for vPortEnterCritical
    event_groups.o(.text.xEventGroupSync) refers to port.o(.text.vPortExitCritical) for vPortExitCritical
    event_groups.o(.ARM.exidx.text.xEventGroupSync) refers to event_groups.o(.text.xEventGroupSync) for [Anonymous Symbol]
    event_groups.o(.text.xEventGroupSetBits) refers to tasks.o(.text.vTaskSuspendAll) for vTaskSuspendAll
    event_groups.o(.text.xEventGroupSetBits) refers to tasks.o(.text.vTaskRemoveFromUnorderedEventList) for vTaskRemoveFromUnorderedEventList
    event_groups.o(.text.xEventGroupSetBits) refers to tasks.o(.text.xTaskResumeAll) for xTaskResumeAll
    event_groups.o(.ARM.exidx.text.xEventGroupSetBits) refers to event_groups.o(.text.xEventGroupSetBits) for [Anonymous Symbol]
    event_groups.o(.text.xEventGroupWaitBits) refers to tasks.o(.text.xTaskGetSchedulerState) for xTaskGetSchedulerState
    event_groups.o(.text.xEventGroupWaitBits) refers to tasks.o(.text.vTaskSuspendAll) for vTaskSuspendAll
    event_groups.o(.text.xEventGroupWaitBits) refers to event_groups.o(.text.prvTestWaitCondition) for prvTestWaitCondition
    event_groups.o(.text.xEventGroupWaitBits) refers to tasks.o(.text.vTaskPlaceOnUnorderedEventList) for vTaskPlaceOnUnorderedEventList
    event_groups.o(.text.xEventGroupWaitBits) refers to tasks.o(.text.xTaskResumeAll) for xTaskResumeAll
    event_groups.o(.text.xEventGroupWaitBits) refers to tasks.o(.text.uxTaskResetEventItemValue) for uxTaskResetEventItemValue
    event_groups.o(.text.xEventGroupWaitBits) refers to port.o(.text.vPortEnterCritical) for vPortEnterCritical
    event_groups.o(.text.xEventGroupWaitBits) refers to port.o(.text.vPortExitCritical) for vPortExitCritical
    event_groups.o(.ARM.exidx.text.xEventGroupWaitBits) refers to event_groups.o(.text.xEventGroupWaitBits) for [Anonymous Symbol]
    event_groups.o(.ARM.exidx.text.prvTestWaitCondition) refers to event_groups.o(.text.prvTestWaitCondition) for [Anonymous Symbol]
    event_groups.o(.text.xEventGroupClearBits) refers to port.o(.text.vPortEnterCritical) for vPortEnterCritical
    event_groups.o(.text.xEventGroupClearBits) refers to port.o(.text.vPortExitCritical) for vPortExitCritical
    event_groups.o(.ARM.exidx.text.xEventGroupClearBits) refers to event_groups.o(.text.xEventGroupClearBits) for [Anonymous Symbol]
    event_groups.o(.ARM.exidx.text.xEventGroupGetBitsFromISR) refers to event_groups.o(.text.xEventGroupGetBitsFromISR) for [Anonymous Symbol]
    event_groups.o(.text.vEventGroupDelete) refers to tasks.o(.text.vTaskSuspendAll) for vTaskSuspendAll
    event_groups.o(.text.vEventGroupDelete) refers to tasks.o(.text.vTaskRemoveFromUnorderedEventList) for vTaskRemoveFromUnorderedEventList
    event_groups.o(.text.vEventGroupDelete) refers to heap_4.o(.text.vPortFree) for vPortFree
    event_groups.o(.text.vEventGroupDelete) refers to tasks.o(.text.xTaskResumeAll) for xTaskResumeAll
    event_groups.o(.ARM.exidx.text.vEventGroupDelete) refers to event_groups.o(.text.vEventGroupDelete) for [Anonymous Symbol]
    event_groups.o(.text.vEventGroupSetBitsCallback) refers to event_groups.o(.text.xEventGroupSetBits) for xEventGroupSetBits
    event_groups.o(.ARM.exidx.text.vEventGroupSetBitsCallback) refers to event_groups.o(.text.vEventGroupSetBitsCallback) for [Anonymous Symbol]
    event_groups.o(.text.vEventGroupClearBitsCallback) refers to event_groups.o(.text.xEventGroupClearBits) for xEventGroupClearBits
    event_groups.o(.ARM.exidx.text.vEventGroupClearBitsCallback) refers to event_groups.o(.text.vEventGroupClearBitsCallback) for [Anonymous Symbol]
    list.o(.ARM.exidx.text.vListInitialise) refers to list.o(.text.vListInitialise) for [Anonymous Symbol]
    list.o(.ARM.exidx.text.vListInitialiseItem) refers to list.o(.text.vListInitialiseItem) for [Anonymous Symbol]
    list.o(.ARM.exidx.text.vListInsertEnd) refers to list.o(.text.vListInsertEnd) for [Anonymous Symbol]
    list.o(.ARM.exidx.text.vListInsert) refers to list.o(.text.vListInsert) for [Anonymous Symbol]
    list.o(.ARM.exidx.text.uxListRemove) refers to list.o(.text.uxListRemove) for [Anonymous Symbol]
    queue.o(.text.xQueueGenericReset) refers to port.o(.text.vPortEnterCritical) for vPortEnterCritical
    queue.o(.text.xQueueGenericReset) refers to tasks.o(.text.xTaskRemoveFromEventList) for xTaskRemoveFromEventList
    queue.o(.text.xQueueGenericReset) refers to list.o(.text.vListInitialise) for vListInitialise
    queue.o(.text.xQueueGenericReset) refers to port.o(.text.vPortExitCritical) for vPortExitCritical
    queue.o(.ARM.exidx.text.xQueueGenericReset) refers to queue.o(.text.xQueueGenericReset) for [Anonymous Symbol]
    queue.o(.text.xQueueGenericCreateStatic) refers to queue.o(.text.prvInitialiseNewQueue) for prvInitialiseNewQueue
    queue.o(.ARM.exidx.text.xQueueGenericCreateStatic) refers to queue.o(.text.xQueueGenericCreateStatic) for [Anonymous Symbol]
    queue.o(.text.prvInitialiseNewQueue) refers to queue.o(.text.xQueueGenericReset) for xQueueGenericReset
    queue.o(.ARM.exidx.text.prvInitialiseNewQueue) refers to queue.o(.text.prvInitialiseNewQueue) for [Anonymous Symbol]
    queue.o(.text.xQueueGenericCreate) refers to heap_4.o(.text.pvPortMalloc) for pvPortMalloc
    queue.o(.text.xQueueGenericCreate) refers to queue.o(.text.prvInitialiseNewQueue) for prvInitialiseNewQueue
    queue.o(.ARM.exidx.text.xQueueGenericCreate) refers to queue.o(.text.xQueueGenericCreate) for [Anonymous Symbol]
    queue.o(.text.xQueueCreateMutex) refers to queue.o(.text.xQueueGenericCreate) for xQueueGenericCreate
    queue.o(.text.xQueueCreateMutex) refers to queue.o(.text.prvInitialiseMutex) for prvInitialiseMutex
    queue.o(.ARM.exidx.text.xQueueCreateMutex) refers to queue.o(.text.xQueueCreateMutex) for [Anonymous Symbol]
    queue.o(.text.prvInitialiseMutex) refers to queue.o(.text.xQueueGenericSend) for xQueueGenericSend
    queue.o(.ARM.exidx.text.prvInitialiseMutex) refers to queue.o(.text.prvInitialiseMutex) for [Anonymous Symbol]
    queue.o(.text.xQueueCreateMutexStatic) refers to queue.o(.text.xQueueGenericCreateStatic) for xQueueGenericCreateStatic
    queue.o(.text.xQueueCreateMutexStatic) refers to queue.o(.text.prvInitialiseMutex) for prvInitialiseMutex
    queue.o(.ARM.exidx.text.xQueueCreateMutexStatic) refers to queue.o(.text.xQueueCreateMutexStatic) for [Anonymous Symbol]
    queue.o(.text.xQueueGiveMutexRecursive) refers to tasks.o(.text.xTaskGetCurrentTaskHandle) for xTaskGetCurrentTaskHandle
    queue.o(.text.xQueueGiveMutexRecursive) refers to queue.o(.text.xQueueGenericSend) for xQueueGenericSend
    queue.o(.ARM.exidx.text.xQueueGiveMutexRecursive) refers to queue.o(.text.xQueueGiveMutexRecursive) for [Anonymous Symbol]
    queue.o(.text.xQueueGenericSend) refers to tasks.o(.text.xTaskGetSchedulerState) for xTaskGetSchedulerState
    queue.o(.text.xQueueGenericSend) refers to port.o(.text.vPortEnterCritical) for vPortEnterCritical
    queue.o(.text.xQueueGenericSend) refers to queue.o(.text.prvCopyDataToQueue) for prvCopyDataToQueue
    queue.o(.text.xQueueGenericSend) refers to tasks.o(.text.xTaskRemoveFromEventList) for xTaskRemoveFromEventList
    queue.o(.text.xQueueGenericSend) refers to port.o(.text.vPortExitCritical) for vPortExitCritical
    queue.o(.text.xQueueGenericSend) refers to tasks.o(.text.vTaskInternalSetTimeOutState) for vTaskInternalSetTimeOutState
    queue.o(.text.xQueueGenericSend) refers to tasks.o(.text.vTaskSuspendAll) for vTaskSuspendAll
    queue.o(.text.xQueueGenericSend) refers to tasks.o(.text.xTaskCheckForTimeOut) for xTaskCheckForTimeOut
    queue.o(.text.xQueueGenericSend) refers to queue.o(.text.prvIsQueueFull) for prvIsQueueFull
    queue.o(.text.xQueueGenericSend) refers to tasks.o(.text.vTaskPlaceOnEventList) for vTaskPlaceOnEventList
    queue.o(.text.xQueueGenericSend) refers to queue.o(.text.prvUnlockQueue) for prvUnlockQueue
    queue.o(.text.xQueueGenericSend) refers to tasks.o(.text.xTaskResumeAll) for xTaskResumeAll
    queue.o(.ARM.exidx.text.xQueueGenericSend) refers to queue.o(.text.xQueueGenericSend) for [Anonymous Symbol]
    queue.o(.text.xQueueTakeMutexRecursive) refers to tasks.o(.text.xTaskGetCurrentTaskHandle) for xTaskGetCurrentTaskHandle
    queue.o(.text.xQueueTakeMutexRecursive) refers to queue.o(.text.xQueueSemaphoreTake) for xQueueSemaphoreTake
    queue.o(.ARM.exidx.text.xQueueTakeMutexRecursive) refers to queue.o(.text.xQueueTakeMutexRecursive) for [Anonymous Symbol]
    queue.o(.text.xQueueSemaphoreTake) refers to tasks.o(.text.xTaskGetSchedulerState) for xTaskGetSchedulerState
    queue.o(.text.xQueueSemaphoreTake) refers to port.o(.text.vPortEnterCritical) for vPortEnterCritical
    queue.o(.text.xQueueSemaphoreTake) refers to tasks.o(.text.pvTaskIncrementMutexHeldCount) for pvTaskIncrementMutexHeldCount
    queue.o(.text.xQueueSemaphoreTake) refers to tasks.o(.text.xTaskRemoveFromEventList) for xTaskRemoveFromEventList
    queue.o(.text.xQueueSemaphoreTake) refers to port.o(.text.vPortExitCritical) for vPortExitCritical
    queue.o(.text.xQueueSemaphoreTake) refers to tasks.o(.text.vTaskInternalSetTimeOutState) for vTaskInternalSetTimeOutState
    queue.o(.text.xQueueSemaphoreTake) refers to tasks.o(.text.vTaskSuspendAll) for vTaskSuspendAll
    queue.o(.text.xQueueSemaphoreTake) refers to tasks.o(.text.xTaskCheckForTimeOut) for xTaskCheckForTimeOut
    queue.o(.text.xQueueSemaphoreTake) refers to queue.o(.text.prvIsQueueEmpty) for prvIsQueueEmpty
    queue.o(.text.xQueueSemaphoreTake) refers to tasks.o(.text.xTaskPriorityInherit) for xTaskPriorityInherit
    queue.o(.text.xQueueSemaphoreTake) refers to tasks.o(.text.vTaskPlaceOnEventList) for vTaskPlaceOnEventList
    queue.o(.text.xQueueSemaphoreTake) refers to queue.o(.text.prvUnlockQueue) for prvUnlockQueue
    queue.o(.text.xQueueSemaphoreTake) refers to tasks.o(.text.xTaskResumeAll) for xTaskResumeAll
    queue.o(.text.xQueueSemaphoreTake) refers to queue.o(.text.prvGetDisinheritPriorityAfterTimeout) for prvGetDisinheritPriorityAfterTimeout
    queue.o(.text.xQueueSemaphoreTake) refers to tasks.o(.text.vTaskPriorityDisinheritAfterTimeout) for vTaskPriorityDisinheritAfterTimeout
    queue.o(.ARM.exidx.text.xQueueSemaphoreTake) refers to queue.o(.text.xQueueSemaphoreTake) for [Anonymous Symbol]
    queue.o(.text.prvCopyDataToQueue) refers to tasks.o(.text.xTaskPriorityDisinherit) for xTaskPriorityDisinherit
    queue.o(.text.prvCopyDataToQueue) refers to rt_memcpy_v6.o(.text) for __aeabi_memcpy
    queue.o(.ARM.exidx.text.prvCopyDataToQueue) refers to queue.o(.text.prvCopyDataToQueue) for [Anonymous Symbol]
    queue.o(.text.prvIsQueueFull) refers to port.o(.text.vPortEnterCritical) for vPortEnterCritical
    queue.o(.text.prvIsQueueFull) refers to port.o(.text.vPortExitCritical) for vPortExitCritical
    queue.o(.ARM.exidx.text.prvIsQueueFull) refers to queue.o(.text.prvIsQueueFull) for [Anonymous Symbol]
    queue.o(.text.prvUnlockQueue) refers to port.o(.text.vPortEnterCritical) for vPortEnterCritical
    queue.o(.text.prvUnlockQueue) refers to tasks.o(.text.xTaskRemoveFromEventList) for xTaskRemoveFromEventList
    queue.o(.text.prvUnlockQueue) refers to tasks.o(.text.vTaskMissedYield) for vTaskMissedYield
    queue.o(.text.prvUnlockQueue) refers to port.o(.text.vPortExitCritical) for vPortExitCritical
    queue.o(.ARM.exidx.text.prvUnlockQueue) refers to queue.o(.text.prvUnlockQueue) for [Anonymous Symbol]
    queue.o(.text.xQueueGenericSendFromISR) refers to port.o(.text.vPortValidateInterruptPriority) for vPortValidateInterruptPriority
    queue.o(.text.xQueueGenericSendFromISR) refers to queue.o(.text.prvCopyDataToQueue) for prvCopyDataToQueue
    queue.o(.text.xQueueGenericSendFromISR) refers to tasks.o(.text.xTaskRemoveFromEventList) for xTaskRemoveFromEventList
    queue.o(.ARM.exidx.text.xQueueGenericSendFromISR) refers to queue.o(.text.xQueueGenericSendFromISR) for [Anonymous Symbol]
    queue.o(.text.xQueueGiveFromISR) refers to port.o(.text.vPortValidateInterruptPriority) for vPortValidateInterruptPriority
    queue.o(.text.xQueueGiveFromISR) refers to tasks.o(.text.xTaskRemoveFromEventList) for xTaskRemoveFromEventList
    queue.o(.ARM.exidx.text.xQueueGiveFromISR) refers to queue.o(.text.xQueueGiveFromISR) for [Anonymous Symbol]
    queue.o(.text.xQueueReceive) refers to tasks.o(.text.xTaskGetSchedulerState) for xTaskGetSchedulerState
    queue.o(.text.xQueueReceive) refers to port.o(.text.vPortEnterCritical) for vPortEnterCritical
    queue.o(.text.xQueueReceive) refers to queue.o(.text.prvCopyDataFromQueue) for prvCopyDataFromQueue
    queue.o(.text.xQueueReceive) refers to tasks.o(.text.xTaskRemoveFromEventList) for xTaskRemoveFromEventList
    queue.o(.text.xQueueReceive) refers to port.o(.text.vPortExitCritical) for vPortExitCritical
    queue.o(.text.xQueueReceive) refers to tasks.o(.text.vTaskInternalSetTimeOutState) for vTaskInternalSetTimeOutState
    queue.o(.text.xQueueReceive) refers to tasks.o(.text.vTaskSuspendAll) for vTaskSuspendAll
    queue.o(.text.xQueueReceive) refers to tasks.o(.text.xTaskCheckForTimeOut) for xTaskCheckForTimeOut
    queue.o(.text.xQueueReceive) refers to queue.o(.text.prvIsQueueEmpty) for prvIsQueueEmpty
    queue.o(.text.xQueueReceive) refers to tasks.o(.text.vTaskPlaceOnEventList) for vTaskPlaceOnEventList
    queue.o(.text.xQueueReceive) refers to queue.o(.text.prvUnlockQueue) for prvUnlockQueue
    queue.o(.text.xQueueReceive) refers to tasks.o(.text.xTaskResumeAll) for xTaskResumeAll
    queue.o(.ARM.exidx.text.xQueueReceive) refers to queue.o(.text.xQueueReceive) for [Anonymous Symbol]
    queue.o(.text.prvCopyDataFromQueue) refers to rt_memcpy_v6.o(.text) for __aeabi_memcpy
    queue.o(.ARM.exidx.text.prvCopyDataFromQueue) refers to queue.o(.text.prvCopyDataFromQueue) for [Anonymous Symbol]
    queue.o(.text.prvIsQueueEmpty) refers to port.o(.text.vPortEnterCritical) for vPortEnterCritical
    queue.o(.text.prvIsQueueEmpty) refers to port.o(.text.vPortExitCritical) for vPortExitCritical
    queue.o(.ARM.exidx.text.prvIsQueueEmpty) refers to queue.o(.text.prvIsQueueEmpty) for [Anonymous Symbol]
    queue.o(.ARM.exidx.text.prvGetDisinheritPriorityAfterTimeout) refers to queue.o(.text.prvGetDisinheritPriorityAfterTimeout) for [Anonymous Symbol]
    queue.o(.text.xQueuePeek) refers to tasks.o(.text.xTaskGetSchedulerState) for xTaskGetSchedulerState
    queue.o(.text.xQueuePeek) refers to port.o(.text.vPortEnterCritical) for vPortEnterCritical
    queue.o(.text.xQueuePeek) refers to queue.o(.text.prvCopyDataFromQueue) for prvCopyDataFromQueue
    queue.o(.text.xQueuePeek) refers to tasks.o(.text.xTaskRemoveFromEventList) for xTaskRemoveFromEventList
    queue.o(.text.xQueuePeek) refers to port.o(.text.vPortExitCritical) for vPortExitCritical
    queue.o(.text.xQueuePeek) refers to tasks.o(.text.vTaskInternalSetTimeOutState) for vTaskInternalSetTimeOutState
    queue.o(.text.xQueuePeek) refers to tasks.o(.text.vTaskSuspendAll) for vTaskSuspendAll
    queue.o(.text.xQueuePeek) refers to tasks.o(.text.xTaskCheckForTimeOut) for xTaskCheckForTimeOut
    queue.o(.text.xQueuePeek) refers to queue.o(.text.prvIsQueueEmpty) for prvIsQueueEmpty
    queue.o(.text.xQueuePeek) refers to tasks.o(.text.vTaskPlaceOnEventList) for vTaskPlaceOnEventList
    queue.o(.text.xQueuePeek) refers to queue.o(.text.prvUnlockQueue) for prvUnlockQueue
    queue.o(.text.xQueuePeek) refers to tasks.o(.text.xTaskResumeAll) for xTaskResumeAll
    queue.o(.ARM.exidx.text.xQueuePeek) refers to queue.o(.text.xQueuePeek) for [Anonymous Symbol]
    queue.o(.text.xQueueReceiveFromISR) refers to port.o(.text.vPortValidateInterruptPriority) for vPortValidateInterruptPriority
    queue.o(.text.xQueueReceiveFromISR) refers to queue.o(.text.prvCopyDataFromQueue) for prvCopyDataFromQueue
    queue.o(.text.xQueueReceiveFromISR) refers to tasks.o(.text.xTaskRemoveFromEventList) for xTaskRemoveFromEventList
    queue.o(.ARM.exidx.text.xQueueReceiveFromISR) refers to queue.o(.text.xQueueReceiveFromISR) for [Anonymous Symbol]
    queue.o(.text.xQueuePeekFromISR) refers to port.o(.text.vPortValidateInterruptPriority) for vPortValidateInterruptPriority
    queue.o(.text.xQueuePeekFromISR) refers to queue.o(.text.prvCopyDataFromQueue) for prvCopyDataFromQueue
    queue.o(.ARM.exidx.text.xQueuePeekFromISR) refers to queue.o(.text.xQueuePeekFromISR) for [Anonymous Symbol]
    queue.o(.text.uxQueueMessagesWaiting) refers to port.o(.text.vPortEnterCritical) for vPortEnterCritical
    queue.o(.text.uxQueueMessagesWaiting) refers to port.o(.text.vPortExitCritical) for vPortExitCritical
    queue.o(.ARM.exidx.text.uxQueueMessagesWaiting) refers to queue.o(.text.uxQueueMessagesWaiting) for [Anonymous Symbol]
    queue.o(.text.uxQueueSpacesAvailable) refers to port.o(.text.vPortEnterCritical) for vPortEnterCritical
    queue.o(.text.uxQueueSpacesAvailable) refers to port.o(.text.vPortExitCritical) for vPortExitCritical
    queue.o(.ARM.exidx.text.uxQueueSpacesAvailable) refers to queue.o(.text.uxQueueSpacesAvailable) for [Anonymous Symbol]
    queue.o(.ARM.exidx.text.uxQueueMessagesWaitingFromISR) refers to queue.o(.text.uxQueueMessagesWaitingFromISR) for [Anonymous Symbol]
    queue.o(.text.vQueueDelete) refers to queue.o(.text.vQueueUnregisterQueue) for vQueueUnregisterQueue
    queue.o(.text.vQueueDelete) refers to heap_4.o(.text.vPortFree) for vPortFree
    queue.o(.ARM.exidx.text.vQueueDelete) refers to queue.o(.text.vQueueDelete) for [Anonymous Symbol]
    queue.o(.text.vQueueUnregisterQueue) refers to queue.o(.bss.xQueueRegistry) for xQueueRegistry
    queue.o(.ARM.exidx.text.vQueueUnregisterQueue) refers to queue.o(.text.vQueueUnregisterQueue) for [Anonymous Symbol]
    queue.o(.ARM.exidx.text.xQueueIsQueueEmptyFromISR) refers to queue.o(.text.xQueueIsQueueEmptyFromISR) for [Anonymous Symbol]
    queue.o(.ARM.exidx.text.xQueueIsQueueFullFromISR) refers to queue.o(.text.xQueueIsQueueFullFromISR) for [Anonymous Symbol]
    queue.o(.text.vQueueAddToRegistry) refers to queue.o(.bss.xQueueRegistry) for xQueueRegistry
    queue.o(.ARM.exidx.text.vQueueAddToRegistry) refers to queue.o(.text.vQueueAddToRegistry) for [Anonymous Symbol]
    queue.o(.text.pcQueueGetName) refers to queue.o(.bss.xQueueRegistry) for xQueueRegistry
    queue.o(.ARM.exidx.text.pcQueueGetName) refers to queue.o(.text.pcQueueGetName) for [Anonymous Symbol]
    queue.o(.text.vQueueWaitForMessageRestricted) refers to port.o(.text.vPortEnterCritical) for vPortEnterCritical
    queue.o(.text.vQueueWaitForMessageRestricted) refers to port.o(.text.vPortExitCritical) for vPortExitCritical
    queue.o(.text.vQueueWaitForMessageRestricted) refers to tasks.o(.text.vTaskPlaceOnEventListRestricted) for vTaskPlaceOnEventListRestricted
    queue.o(.text.vQueueWaitForMessageRestricted) refers to queue.o(.text.prvUnlockQueue) for prvUnlockQueue
    queue.o(.ARM.exidx.text.vQueueWaitForMessageRestricted) refers to queue.o(.text.vQueueWaitForMessageRestricted) for [Anonymous Symbol]
    stream_buffer.o(.text.xStreamBufferGenericCreate) refers to heap_4.o(.text.pvPortMalloc) for pvPortMalloc
    stream_buffer.o(.text.xStreamBufferGenericCreate) refers to stream_buffer.o(.text.prvInitialiseNewStreamBuffer) for prvInitialiseNewStreamBuffer
    stream_buffer.o(.ARM.exidx.text.xStreamBufferGenericCreate) refers to stream_buffer.o(.text.xStreamBufferGenericCreate) for [Anonymous Symbol]
    stream_buffer.o(.text.prvInitialiseNewStreamBuffer) refers to aeabi_memset.o(.text) for __aeabi_memset
    stream_buffer.o(.ARM.exidx.text.prvInitialiseNewStreamBuffer) refers to stream_buffer.o(.text.prvInitialiseNewStreamBuffer) for [Anonymous Symbol]
    stream_buffer.o(.text.xStreamBufferGenericCreateStatic) refers to stream_buffer.o(.text.prvInitialiseNewStreamBuffer) for prvInitialiseNewStreamBuffer
    stream_buffer.o(.ARM.exidx.text.xStreamBufferGenericCreateStatic) refers to stream_buffer.o(.text.xStreamBufferGenericCreateStatic) for [Anonymous Symbol]
    stream_buffer.o(.text.vStreamBufferDelete) refers to heap_4.o(.text.vPortFree) for vPortFree
    stream_buffer.o(.ARM.exidx.text.vStreamBufferDelete) refers to stream_buffer.o(.text.vStreamBufferDelete) for [Anonymous Symbol]
    stream_buffer.o(.text.xStreamBufferReset) refers to port.o(.text.vPortEnterCritical) for vPortEnterCritical
    stream_buffer.o(.text.xStreamBufferReset) refers to stream_buffer.o(.text.prvInitialiseNewStreamBuffer) for prvInitialiseNewStreamBuffer
    stream_buffer.o(.text.xStreamBufferReset) refers to port.o(.text.vPortExitCritical) for vPortExitCritical
    stream_buffer.o(.ARM.exidx.text.xStreamBufferReset) refers to stream_buffer.o(.text.xStreamBufferReset) for [Anonymous Symbol]
    stream_buffer.o(.ARM.exidx.text.xStreamBufferSetTriggerLevel) refers to stream_buffer.o(.text.xStreamBufferSetTriggerLevel) for [Anonymous Symbol]
    stream_buffer.o(.ARM.exidx.text.xStreamBufferSpacesAvailable) refers to stream_buffer.o(.text.xStreamBufferSpacesAvailable) for [Anonymous Symbol]
    stream_buffer.o(.text.xStreamBufferBytesAvailable) refers to stream_buffer.o(.text.prvBytesInBuffer) for prvBytesInBuffer
    stream_buffer.o(.ARM.exidx.text.xStreamBufferBytesAvailable) refers to stream_buffer.o(.text.xStreamBufferBytesAvailable) for [Anonymous Symbol]
    stream_buffer.o(.ARM.exidx.text.prvBytesInBuffer) refers to stream_buffer.o(.text.prvBytesInBuffer) for [Anonymous Symbol]
    stream_buffer.o(.text.xStreamBufferSend) refers to tasks.o(.text.vTaskSetTimeOutState) for vTaskSetTimeOutState
    stream_buffer.o(.text.xStreamBufferSend) refers to port.o(.text.vPortEnterCritical) for vPortEnterCritical
    stream_buffer.o(.text.xStreamBufferSend) refers to stream_buffer.o(.text.xStreamBufferSpacesAvailable) for xStreamBufferSpacesAvailable
    stream_buffer.o(.text.xStreamBufferSend) refers to tasks.o(.text.xTaskNotifyStateClear) for xTaskNotifyStateClear
    stream_buffer.o(.text.xStreamBufferSend) refers to tasks.o(.text.xTaskGetCurrentTaskHandle) for xTaskGetCurrentTaskHandle
    stream_buffer.o(.text.xStreamBufferSend) refers to port.o(.text.vPortExitCritical) for vPortExitCritical
    stream_buffer.o(.text.xStreamBufferSend) refers to tasks.o(.text.xTaskNotifyWait) for xTaskNotifyWait
    stream_buffer.o(.text.xStreamBufferSend) refers to tasks.o(.text.xTaskCheckForTimeOut) for xTaskCheckForTimeOut
    stream_buffer.o(.text.xStreamBufferSend) refers to stream_buffer.o(.text.prvWriteMessageToBuffer) for prvWriteMessageToBuffer
    stream_buffer.o(.text.xStreamBufferSend) refers to stream_buffer.o(.text.prvBytesInBuffer) for prvBytesInBuffer
    stream_buffer.o(.text.xStreamBufferSend) refers to tasks.o(.text.vTaskSuspendAll) for vTaskSuspendAll
    stream_buffer.o(.text.xStreamBufferSend) refers to tasks.o(.text.xTaskGenericNotify) for xTaskGenericNotify
    stream_buffer.o(.text.xStreamBufferSend) refers to tasks.o(.text.xTaskResumeAll) for xTaskResumeAll
    stream_buffer.o(.ARM.exidx.text.xStreamBufferSend) refers to stream_buffer.o(.text.xStreamBufferSend) for [Anonymous Symbol]
    stream_buffer.o(.text.prvWriteMessageToBuffer) refers to stream_buffer.o(.text.prvWriteBytesToBuffer) for prvWriteBytesToBuffer
    stream_buffer.o(.ARM.exidx.text.prvWriteMessageToBuffer) refers to stream_buffer.o(.text.prvWriteMessageToBuffer) for [Anonymous Symbol]
    stream_buffer.o(.text.xStreamBufferSendFromISR) refers to stream_buffer.o(.text.xStreamBufferSpacesAvailable) for xStreamBufferSpacesAvailable
    stream_buffer.o(.text.xStreamBufferSendFromISR) refers to stream_buffer.o(.text.prvWriteMessageToBuffer) for prvWriteMessageToBuffer
    stream_buffer.o(.text.xStreamBufferSendFromISR) refers to stream_buffer.o(.text.prvBytesInBuffer) for prvBytesInBuffer
    stream_buffer.o(.text.xStreamBufferSendFromISR) refers to tasks.o(.text.xTaskGenericNotifyFromISR) for xTaskGenericNotifyFromISR
    stream_buffer.o(.ARM.exidx.text.xStreamBufferSendFromISR) refers to stream_buffer.o(.text.xStreamBufferSendFromISR) for [Anonymous Symbol]
    stream_buffer.o(.text.xStreamBufferReceive) refers to port.o(.text.vPortEnterCritical) for vPortEnterCritical
    stream_buffer.o(.text.xStreamBufferReceive) refers to stream_buffer.o(.text.prvBytesInBuffer) for prvBytesInBuffer
    stream_buffer.o(.text.xStreamBufferReceive) refers to tasks.o(.text.xTaskNotifyStateClear) for xTaskNotifyStateClear
    stream_buffer.o(.text.xStreamBufferReceive) refers to tasks.o(.text.xTaskGetCurrentTaskHandle) for xTaskGetCurrentTaskHandle
    stream_buffer.o(.text.xStreamBufferReceive) refers to port.o(.text.vPortExitCritical) for vPortExitCritical
    stream_buffer.o(.text.xStreamBufferReceive) refers to tasks.o(.text.xTaskNotifyWait) for xTaskNotifyWait
    stream_buffer.o(.text.xStreamBufferReceive) refers to stream_buffer.o(.text.prvReadMessageFromBuffer) for prvReadMessageFromBuffer
    stream_buffer.o(.text.xStreamBufferReceive) refers to tasks.o(.text.vTaskSuspendAll) for vTaskSuspendAll
    stream_buffer.o(.text.xStreamBufferReceive) refers to tasks.o(.text.xTaskGenericNotify) for xTaskGenericNotify
    stream_buffer.o(.text.xStreamBufferReceive) refers to tasks.o(.text.xTaskResumeAll) for xTaskResumeAll
    stream_buffer.o(.ARM.exidx.text.xStreamBufferReceive) refers to stream_buffer.o(.text.xStreamBufferReceive) for [Anonymous Symbol]
    stream_buffer.o(.text.prvReadMessageFromBuffer) refers to stream_buffer.o(.text.prvReadBytesFromBuffer) for prvReadBytesFromBuffer
    stream_buffer.o(.ARM.exidx.text.prvReadMessageFromBuffer) refers to stream_buffer.o(.text.prvReadMessageFromBuffer) for [Anonymous Symbol]
    stream_buffer.o(.text.xStreamBufferNextMessageLengthBytes) refers to stream_buffer.o(.text.prvBytesInBuffer) for prvBytesInBuffer
    stream_buffer.o(.text.xStreamBufferNextMessageLengthBytes) refers to stream_buffer.o(.text.prvReadBytesFromBuffer) for prvReadBytesFromBuffer
    stream_buffer.o(.ARM.exidx.text.xStreamBufferNextMessageLengthBytes) refers to stream_buffer.o(.text.xStreamBufferNextMessageLengthBytes) for [Anonymous Symbol]
    stream_buffer.o(.text.prvReadBytesFromBuffer) refers to rt_memcpy_v6.o(.text) for __aeabi_memcpy
    stream_buffer.o(.ARM.exidx.text.prvReadBytesFromBuffer) refers to stream_buffer.o(.text.prvReadBytesFromBuffer) for [Anonymous Symbol]
    stream_buffer.o(.text.xStreamBufferReceiveFromISR) refers to stream_buffer.o(.text.prvBytesInBuffer) for prvBytesInBuffer
    stream_buffer.o(.text.xStreamBufferReceiveFromISR) refers to stream_buffer.o(.text.prvReadMessageFromBuffer) for prvReadMessageFromBuffer
    stream_buffer.o(.text.xStreamBufferReceiveFromISR) refers to tasks.o(.text.xTaskGenericNotifyFromISR) for xTaskGenericNotifyFromISR
    stream_buffer.o(.ARM.exidx.text.xStreamBufferReceiveFromISR) refers to stream_buffer.o(.text.xStreamBufferReceiveFromISR) for [Anonymous Symbol]
    stream_buffer.o(.ARM.exidx.text.xStreamBufferIsEmpty) refers to stream_buffer.o(.text.xStreamBufferIsEmpty) for [Anonymous Symbol]
    stream_buffer.o(.text.xStreamBufferIsFull) refers to stream_buffer.o(.text.xStreamBufferSpacesAvailable) for xStreamBufferSpacesAvailable
    stream_buffer.o(.ARM.exidx.text.xStreamBufferIsFull) refers to stream_buffer.o(.text.xStreamBufferIsFull) for [Anonymous Symbol]
    stream_buffer.o(.text.xStreamBufferSendCompletedFromISR) refers to tasks.o(.text.xTaskGenericNotifyFromISR) for xTaskGenericNotifyFromISR
    stream_buffer.o(.ARM.exidx.text.xStreamBufferSendCompletedFromISR) refers to stream_buffer.o(.text.xStreamBufferSendCompletedFromISR) for [Anonymous Symbol]
    stream_buffer.o(.text.xStreamBufferReceiveCompletedFromISR) refers to tasks.o(.text.xTaskGenericNotifyFromISR) for xTaskGenericNotifyFromISR
    stream_buffer.o(.ARM.exidx.text.xStreamBufferReceiveCompletedFromISR) refers to stream_buffer.o(.text.xStreamBufferReceiveCompletedFromISR) for [Anonymous Symbol]
    stream_buffer.o(.text.prvWriteBytesToBuffer) refers to rt_memcpy_v6.o(.text) for __aeabi_memcpy
    stream_buffer.o(.ARM.exidx.text.prvWriteBytesToBuffer) refers to stream_buffer.o(.text.prvWriteBytesToBuffer) for [Anonymous Symbol]
    tasks.o(.text.xTaskCreateStatic) refers to tasks.o(.text.prvInitialiseNewTask) for prvInitialiseNewTask
    tasks.o(.text.xTaskCreateStatic) refers to tasks.o(.text.prvAddNewTaskToReadyList) for prvAddNewTaskToReadyList
    tasks.o(.ARM.exidx.text.xTaskCreateStatic) refers to tasks.o(.text.xTaskCreateStatic) for [Anonymous Symbol]
    tasks.o(.text.prvInitialiseNewTask) refers to aeabi_memset4.o(.text) for __aeabi_memset4
    tasks.o(.text.prvInitialiseNewTask) refers to list.o(.text.vListInitialiseItem) for vListInitialiseItem
    tasks.o(.text.prvInitialiseNewTask) refers to port.o(.text.pxPortInitialiseStack) for pxPortInitialiseStack
    tasks.o(.ARM.exidx.text.prvInitialiseNewTask) refers to tasks.o(.text.prvInitialiseNewTask) for [Anonymous Symbol]
    tasks.o(.text.prvAddNewTaskToReadyList) refers to port.o(.text.vPortEnterCritical) for vPortEnterCritical
    tasks.o(.text.prvAddNewTaskToReadyList) refers to tasks.o(.bss.uxCurrentNumberOfTasks) for uxCurrentNumberOfTasks
    tasks.o(.text.prvAddNewTaskToReadyList) refers to tasks.o(.bss.pxCurrentTCB) for pxCurrentTCB
    tasks.o(.text.prvAddNewTaskToReadyList) refers to tasks.o(.text.prvInitialiseTaskLists) for prvInitialiseTaskLists
    tasks.o(.text.prvAddNewTaskToReadyList) refers to tasks.o(.bss.xSchedulerRunning) for xSchedulerRunning
    tasks.o(.text.prvAddNewTaskToReadyList) refers to tasks.o(.bss.uxTaskNumber) for uxTaskNumber
    tasks.o(.text.prvAddNewTaskToReadyList) refers to tasks.o(.bss.uxTopReadyPriority) for uxTopReadyPriority
    tasks.o(.text.prvAddNewTaskToReadyList) refers to tasks.o(.bss.pxReadyTasksLists) for pxReadyTasksLists
    tasks.o(.text.prvAddNewTaskToReadyList) refers to list.o(.text.vListInsertEnd) for vListInsertEnd
    tasks.o(.text.prvAddNewTaskToReadyList) refers to port.o(.text.vPortExitCritical) for vPortExitCritical
    tasks.o(.ARM.exidx.text.prvAddNewTaskToReadyList) refers to tasks.o(.text.prvAddNewTaskToReadyList) for [Anonymous Symbol]
    tasks.o(.text.xTaskCreate) refers to heap_4.o(.text.pvPortMalloc) for pvPortMalloc
    tasks.o(.text.xTaskCreate) refers to heap_4.o(.text.vPortFree) for vPortFree
    tasks.o(.text.xTaskCreate) refers to tasks.o(.text.prvInitialiseNewTask) for prvInitialiseNewTask
    tasks.o(.text.xTaskCreate) refers to tasks.o(.text.prvAddNewTaskToReadyList) for prvAddNewTaskToReadyList
    tasks.o(.ARM.exidx.text.xTaskCreate) refers to tasks.o(.text.xTaskCreate) for [Anonymous Symbol]
    tasks.o(.text.vTaskDelete) refers to port.o(.text.vPortEnterCritical) for vPortEnterCritical
    tasks.o(.text.vTaskDelete) refers to tasks.o(.bss.pxCurrentTCB) for pxCurrentTCB
    tasks.o(.text.vTaskDelete) refers to list.o(.text.uxListRemove) for uxListRemove
    tasks.o(.text.vTaskDelete) refers to tasks.o(.bss.pxReadyTasksLists) for pxReadyTasksLists
    tasks.o(.text.vTaskDelete) refers to tasks.o(.bss.uxTopReadyPriority) for uxTopReadyPriority
    tasks.o(.text.vTaskDelete) refers to tasks.o(.bss.uxTaskNumber) for uxTaskNumber
    tasks.o(.text.vTaskDelete) refers to tasks.o(.bss.xTasksWaitingTermination) for xTasksWaitingTermination
    tasks.o(.text.vTaskDelete) refers to list.o(.text.vListInsertEnd) for vListInsertEnd
    tasks.o(.text.vTaskDelete) refers to tasks.o(.bss.uxDeletedTasksWaitingCleanUp) for uxDeletedTasksWaitingCleanUp
    tasks.o(.text.vTaskDelete) refers to tasks.o(.bss.uxCurrentNumberOfTasks) for uxCurrentNumberOfTasks
    tasks.o(.text.vTaskDelete) refers to tasks.o(.text.prvDeleteTCB) for prvDeleteTCB
    tasks.o(.text.vTaskDelete) refers to tasks.o(.text.prvResetNextTaskUnblockTime) for prvResetNextTaskUnblockTime
    tasks.o(.text.vTaskDelete) refers to port.o(.text.vPortExitCritical) for vPortExitCritical
    tasks.o(.text.vTaskDelete) refers to tasks.o(.bss.xSchedulerRunning) for xSchedulerRunning
    tasks.o(.text.vTaskDelete) refers to tasks.o(.bss.uxSchedulerSuspended) for uxSchedulerSuspended
    tasks.o(.ARM.exidx.text.vTaskDelete) refers to tasks.o(.text.vTaskDelete) for [Anonymous Symbol]
    tasks.o(.text.prvDeleteTCB) refers to heap_4.o(.text.vPortFree) for vPortFree
    tasks.o(.ARM.exidx.text.prvDeleteTCB) refers to tasks.o(.text.prvDeleteTCB) for [Anonymous Symbol]
    tasks.o(.text.prvResetNextTaskUnblockTime) refers to tasks.o(.bss.pxDelayedTaskList) for pxDelayedTaskList
    tasks.o(.text.prvResetNextTaskUnblockTime) refers to tasks.o(.bss.xNextTaskUnblockTime) for xNextTaskUnblockTime
    tasks.o(.ARM.exidx.text.prvResetNextTaskUnblockTime) refers to tasks.o(.text.prvResetNextTaskUnblockTime) for [Anonymous Symbol]
    tasks.o(.text.vTaskDelayUntil) refers to tasks.o(.bss.uxSchedulerSuspended) for uxSchedulerSuspended
    tasks.o(.text.vTaskDelayUntil) refers to tasks.o(.text.vTaskSuspendAll) for vTaskSuspendAll
    tasks.o(.text.vTaskDelayUntil) refers to tasks.o(.bss.xTickCount) for xTickCount
    tasks.o(.text.vTaskDelayUntil) refers to tasks.o(.text.prvAddCurrentTaskToDelayedList) for prvAddCurrentTaskToDelayedList
    tasks.o(.text.vTaskDelayUntil) refers to tasks.o(.text.xTaskResumeAll) for xTaskResumeAll
    tasks.o(.ARM.exidx.text.vTaskDelayUntil) refers to tasks.o(.text.vTaskDelayUntil) for [Anonymous Symbol]
    tasks.o(.text.vTaskSuspendAll) refers to tasks.o(.bss.uxSchedulerSuspended) for uxSchedulerSuspended
    tasks.o(.ARM.exidx.text.vTaskSuspendAll) refers to tasks.o(.text.vTaskSuspendAll) for [Anonymous Symbol]
    tasks.o(.text.prvAddCurrentTaskToDelayedList) refers to tasks.o(.bss.xTickCount) for xTickCount
    tasks.o(.text.prvAddCurrentTaskToDelayedList) refers to tasks.o(.bss.pxCurrentTCB) for pxCurrentTCB
    tasks.o(.text.prvAddCurrentTaskToDelayedList) refers to list.o(.text.uxListRemove) for uxListRemove
    tasks.o(.text.prvAddCurrentTaskToDelayedList) refers to tasks.o(.bss.uxTopReadyPriority) for uxTopReadyPriority
    tasks.o(.text.prvAddCurrentTaskToDelayedList) refers to tasks.o(.bss.xSuspendedTaskList) for xSuspendedTaskList
    tasks.o(.text.prvAddCurrentTaskToDelayedList) refers to list.o(.text.vListInsertEnd) for vListInsertEnd
    tasks.o(.text.prvAddCurrentTaskToDelayedList) refers to tasks.o(.bss.pxOverflowDelayedTaskList) for pxOverflowDelayedTaskList
    tasks.o(.text.prvAddCurrentTaskToDelayedList) refers to list.o(.text.vListInsert) for vListInsert
    tasks.o(.text.prvAddCurrentTaskToDelayedList) refers to tasks.o(.bss.pxDelayedTaskList) for pxDelayedTaskList
    tasks.o(.text.prvAddCurrentTaskToDelayedList) refers to tasks.o(.bss.xNextTaskUnblockTime) for xNextTaskUnblockTime
    tasks.o(.ARM.exidx.text.prvAddCurrentTaskToDelayedList) refers to tasks.o(.text.prvAddCurrentTaskToDelayedList) for [Anonymous Symbol]
    tasks.o(.text.xTaskResumeAll) refers to tasks.o(.bss.uxSchedulerSuspended) for uxSchedulerSuspended
    tasks.o(.text.xTaskResumeAll) refers to port.o(.text.vPortEnterCritical) for vPortEnterCritical
    tasks.o(.text.xTaskResumeAll) refers to tasks.o(.bss.uxCurrentNumberOfTasks) for uxCurrentNumberOfTasks
    tasks.o(.text.xTaskResumeAll) refers to tasks.o(.bss.xPendingReadyList) for xPendingReadyList
    tasks.o(.text.xTaskResumeAll) refers to list.o(.text.uxListRemove) for uxListRemove
    tasks.o(.text.xTaskResumeAll) refers to tasks.o(.bss.uxTopReadyPriority) for uxTopReadyPriority
    tasks.o(.text.xTaskResumeAll) refers to tasks.o(.bss.pxReadyTasksLists) for pxReadyTasksLists
    tasks.o(.text.xTaskResumeAll) refers to list.o(.text.vListInsertEnd) for vListInsertEnd
    tasks.o(.text.xTaskResumeAll) refers to tasks.o(.bss.pxCurrentTCB) for pxCurrentTCB
    tasks.o(.text.xTaskResumeAll) refers to tasks.o(.bss.xYieldPending) for xYieldPending
    tasks.o(.text.xTaskResumeAll) refers to tasks.o(.text.prvResetNextTaskUnblockTime) for prvResetNextTaskUnblockTime
    tasks.o(.text.xTaskResumeAll) refers to tasks.o(.bss.uxPendedTicks) for uxPendedTicks
    tasks.o(.text.xTaskResumeAll) refers to tasks.o(.text.xTaskIncrementTick) for xTaskIncrementTick
    tasks.o(.text.xTaskResumeAll) refers to port.o(.text.vPortExitCritical) for vPortExitCritical
    tasks.o(.ARM.exidx.text.xTaskResumeAll) refers to tasks.o(.text.xTaskResumeAll) for [Anonymous Symbol]
    tasks.o(.text.vTaskDelay) refers to tasks.o(.bss.uxSchedulerSuspended) for uxSchedulerSuspended
    tasks.o(.text.vTaskDelay) refers to tasks.o(.text.vTaskSuspendAll) for vTaskSuspendAll
    tasks.o(.text.vTaskDelay) refers to tasks.o(.text.prvAddCurrentTaskToDelayedList) for prvAddCurrentTaskToDelayedList
    tasks.o(.text.vTaskDelay) refers to tasks.o(.text.xTaskResumeAll) for xTaskResumeAll
    tasks.o(.ARM.exidx.text.vTaskDelay) refers to tasks.o(.text.vTaskDelay) for [Anonymous Symbol]
    tasks.o(.text.uxTaskPriorityGet) refers to port.o(.text.vPortEnterCritical) for vPortEnterCritical
    tasks.o(.text.uxTaskPriorityGet) refers to tasks.o(.bss.pxCurrentTCB) for pxCurrentTCB
    tasks.o(.text.uxTaskPriorityGet) refers to port.o(.text.vPortExitCritical) for vPortExitCritical
    tasks.o(.ARM.exidx.text.uxTaskPriorityGet) refers to tasks.o(.text.uxTaskPriorityGet) for [Anonymous Symbol]
    tasks.o(.text.uxTaskPriorityGetFromISR) refers to port.o(.text.vPortValidateInterruptPriority) for vPortValidateInterruptPriority
    tasks.o(.text.uxTaskPriorityGetFromISR) refers to tasks.o(.bss.pxCurrentTCB) for pxCurrentTCB
    tasks.o(.ARM.exidx.text.uxTaskPriorityGetFromISR) refers to tasks.o(.text.uxTaskPriorityGetFromISR) for [Anonymous Symbol]
    tasks.o(.text.vTaskPrioritySet) refers to port.o(.text.vPortEnterCritical) for vPortEnterCritical
    tasks.o(.text.vTaskPrioritySet) refers to tasks.o(.bss.pxCurrentTCB) for pxCurrentTCB
    tasks.o(.text.vTaskPrioritySet) refers to tasks.o(.bss.pxReadyTasksLists) for pxReadyTasksLists
    tasks.o(.text.vTaskPrioritySet) refers to list.o(.text.uxListRemove) for uxListRemove
    tasks.o(.text.vTaskPrioritySet) refers to tasks.o(.bss.uxTopReadyPriority) for uxTopReadyPriority
    tasks.o(.text.vTaskPrioritySet) refers to list.o(.text.vListInsertEnd) for vListInsertEnd
    tasks.o(.text.vTaskPrioritySet) refers to port.o(.text.vPortExitCritical) for vPortExitCritical
    tasks.o(.ARM.exidx.text.vTaskPrioritySet) refers to tasks.o(.text.vTaskPrioritySet) for [Anonymous Symbol]
    tasks.o(.text.vTaskSuspend) refers to port.o(.text.vPortEnterCritical) for vPortEnterCritical
    tasks.o(.text.vTaskSuspend) refers to tasks.o(.bss.pxCurrentTCB) for pxCurrentTCB
    tasks.o(.text.vTaskSuspend) refers to list.o(.text.uxListRemove) for uxListRemove
    tasks.o(.text.vTaskSuspend) refers to tasks.o(.bss.pxReadyTasksLists) for pxReadyTasksLists
    tasks.o(.text.vTaskSuspend) refers to tasks.o(.bss.uxTopReadyPriority) for uxTopReadyPriority
    tasks.o(.text.vTaskSuspend) refers to tasks.o(.bss.xSuspendedTaskList) for xSuspendedTaskList
    tasks.o(.text.vTaskSuspend) refers to list.o(.text.vListInsertEnd) for vListInsertEnd
    tasks.o(.text.vTaskSuspend) refers to port.o(.text.vPortExitCritical) for vPortExitCritical
    tasks.o(.text.vTaskSuspend) refers to tasks.o(.bss.xSchedulerRunning) for xSchedulerRunning
    tasks.o(.text.vTaskSuspend) refers to tasks.o(.text.prvResetNextTaskUnblockTime) for prvResetNextTaskUnblockTime
    tasks.o(.text.vTaskSuspend) refers to tasks.o(.bss.uxSchedulerSuspended) for uxSchedulerSuspended
    tasks.o(.text.vTaskSuspend) refers to tasks.o(.bss.uxCurrentNumberOfTasks) for uxCurrentNumberOfTasks
    tasks.o(.text.vTaskSuspend) refers to tasks.o(.text.vTaskSwitchContext) for vTaskSwitchContext
    tasks.o(.ARM.exidx.text.vTaskSuspend) refers to tasks.o(.text.vTaskSuspend) for [Anonymous Symbol]
    tasks.o(.text.vTaskSwitchContext) refers to tasks.o(.bss.uxSchedulerSuspended) for uxSchedulerSuspended
    tasks.o(.text.vTaskSwitchContext) refers to tasks.o(.bss.xYieldPending) for xYieldPending
    tasks.o(.text.vTaskSwitchContext) refers to tasks.o(.bss.pxCurrentTCB) for pxCurrentTCB
    tasks.o(.text.vTaskSwitchContext) refers to tasks.o(.bss.xIdleTaskHandle) for xIdleTaskHandle
    tasks.o(.text.vTaskSwitchContext) refers to cpu_load.o(.text.ExitIdleTask) for ExitIdleTask
    tasks.o(.text.vTaskSwitchContext) refers to main.o(.text.vApplicationStackOverflowHook) for vApplicationStackOverflowHook
    tasks.o(.text.vTaskSwitchContext) refers to tasks.o(.bss.uxTopReadyPriority) for uxTopReadyPriority
    tasks.o(.text.vTaskSwitchContext) refers to tasks.o(.bss.pxReadyTasksLists) for pxReadyTasksLists
    tasks.o(.text.vTaskSwitchContext) refers to cpu_load.o(.text.EnterIdleTask) for EnterIdleTask
    tasks.o(.ARM.exidx.text.vTaskSwitchContext) refers to tasks.o(.text.vTaskSwitchContext) for [Anonymous Symbol]
    tasks.o(.text.vTaskResume) refers to tasks.o(.bss.pxCurrentTCB) for pxCurrentTCB
    tasks.o(.text.vTaskResume) refers to port.o(.text.vPortEnterCritical) for vPortEnterCritical
    tasks.o(.text.vTaskResume) refers to tasks.o(.text.prvTaskIsTaskSuspended) for prvTaskIsTaskSuspended
    tasks.o(.text.vTaskResume) refers to list.o(.text.uxListRemove) for uxListRemove
    tasks.o(.text.vTaskResume) refers to tasks.o(.bss.uxTopReadyPriority) for uxTopReadyPriority
    tasks.o(.text.vTaskResume) refers to tasks.o(.bss.pxReadyTasksLists) for pxReadyTasksLists
    tasks.o(.text.vTaskResume) refers to list.o(.text.vListInsertEnd) for vListInsertEnd
    tasks.o(.text.vTaskResume) refers to port.o(.text.vPortExitCritical) for vPortExitCritical
    tasks.o(.ARM.exidx.text.vTaskResume) refers to tasks.o(.text.vTaskResume) for [Anonymous Symbol]
    tasks.o(.text.prvTaskIsTaskSuspended) refers to tasks.o(.bss.xSuspendedTaskList) for xSuspendedTaskList
    tasks.o(.text.prvTaskIsTaskSuspended) refers to tasks.o(.bss.xPendingReadyList) for xPendingReadyList
    tasks.o(.ARM.exidx.text.prvTaskIsTaskSuspended) refers to tasks.o(.text.prvTaskIsTaskSuspended) for [Anonymous Symbol]
    tasks.o(.text.xTaskResumeFromISR) refers to port.o(.text.vPortValidateInterruptPriority) for vPortValidateInterruptPriority
    tasks.o(.text.xTaskResumeFromISR) refers to tasks.o(.text.prvTaskIsTaskSuspended) for prvTaskIsTaskSuspended
    tasks.o(.text.xTaskResumeFromISR) refers to tasks.o(.bss.uxSchedulerSuspended) for uxSchedulerSuspended
    tasks.o(.text.xTaskResumeFromISR) refers to tasks.o(.bss.pxCurrentTCB) for pxCurrentTCB
    tasks.o(.text.xTaskResumeFromISR) refers to list.o(.text.uxListRemove) for uxListRemove
    tasks.o(.text.xTaskResumeFromISR) refers to tasks.o(.bss.uxTopReadyPriority) for uxTopReadyPriority
    tasks.o(.text.xTaskResumeFromISR) refers to tasks.o(.bss.pxReadyTasksLists) for pxReadyTasksLists
    tasks.o(.text.xTaskResumeFromISR) refers to list.o(.text.vListInsertEnd) for vListInsertEnd
    tasks.o(.text.xTaskResumeFromISR) refers to tasks.o(.bss.xPendingReadyList) for xPendingReadyList
    tasks.o(.ARM.exidx.text.xTaskResumeFromISR) refers to tasks.o(.text.xTaskResumeFromISR) for [Anonymous Symbol]
    tasks.o(.text.vTaskStartScheduler) refers to static_mem.o(.text.vApplicationGetIdleTaskMemory) for vApplicationGetIdleTaskMemory
    tasks.o(.text.vTaskStartScheduler) refers to tasks.o(.text.prvIdleTask) for prvIdleTask
    tasks.o(.text.vTaskStartScheduler) refers to tasks.o(.rodata.str1.1) for .L.str
    tasks.o(.text.vTaskStartScheduler) refers to tasks.o(.text.xTaskCreateStatic) for xTaskCreateStatic
    tasks.o(.text.vTaskStartScheduler) refers to tasks.o(.bss.xIdleTaskHandle) for xIdleTaskHandle
    tasks.o(.text.vTaskStartScheduler) refers to timers.o(.text.xTimerCreateTimerTask) for xTimerCreateTimerTask
    tasks.o(.text.vTaskStartScheduler) refers to tasks.o(.bss.xNextTaskUnblockTime) for xNextTaskUnblockTime
    tasks.o(.text.vTaskStartScheduler) refers to tasks.o(.bss.xSchedulerRunning) for xSchedulerRunning
    tasks.o(.text.vTaskStartScheduler) refers to tasks.o(.bss.xTickCount) for xTickCount
    tasks.o(.text.vTaskStartScheduler) refers to port.o(.text.xPortStartScheduler) for xPortStartScheduler
    tasks.o(.ARM.exidx.text.vTaskStartScheduler) refers to tasks.o(.text.vTaskStartScheduler) for [Anonymous Symbol]
    tasks.o(.text.prvIdleTask) refers to tasks.o(.text.prvCheckTasksWaitingTermination) for prvCheckTasksWaitingTermination
    tasks.o(.text.prvIdleTask) refers to tasks.o(.bss.pxReadyTasksLists) for pxReadyTasksLists
    tasks.o(.ARM.exidx.text.prvIdleTask) refers to tasks.o(.text.prvIdleTask) for [Anonymous Symbol]
    tasks.o(.text.vTaskEndScheduler) refers to tasks.o(.bss.xSchedulerRunning) for xSchedulerRunning
    tasks.o(.text.vTaskEndScheduler) refers to port.o(.text.vPortEndScheduler) for vPortEndScheduler
    tasks.o(.ARM.exidx.text.vTaskEndScheduler) refers to tasks.o(.text.vTaskEndScheduler) for [Anonymous Symbol]
    tasks.o(.text.xTaskIncrementTick) refers to tasks.o(.bss.uxSchedulerSuspended) for uxSchedulerSuspended
    tasks.o(.text.xTaskIncrementTick) refers to tasks.o(.bss.xTickCount) for xTickCount
    tasks.o(.text.xTaskIncrementTick) refers to tasks.o(.bss.pxDelayedTaskList) for pxDelayedTaskList
    tasks.o(.text.xTaskIncrementTick) refers to tasks.o(.bss.pxOverflowDelayedTaskList) for pxOverflowDelayedTaskList
    tasks.o(.text.xTaskIncrementTick) refers to tasks.o(.bss.xNumOfOverflows) for xNumOfOverflows
    tasks.o(.text.xTaskIncrementTick) refers to tasks.o(.text.prvResetNextTaskUnblockTime) for prvResetNextTaskUnblockTime
    tasks.o(.text.xTaskIncrementTick) refers to tasks.o(.bss.xNextTaskUnblockTime) for xNextTaskUnblockTime
    tasks.o(.text.xTaskIncrementTick) refers to list.o(.text.uxListRemove) for uxListRemove
    tasks.o(.text.xTaskIncrementTick) refers to tasks.o(.bss.uxTopReadyPriority) for uxTopReadyPriority
    tasks.o(.text.xTaskIncrementTick) refers to tasks.o(.bss.pxReadyTasksLists) for pxReadyTasksLists
    tasks.o(.text.xTaskIncrementTick) refers to list.o(.text.vListInsertEnd) for vListInsertEnd
    tasks.o(.text.xTaskIncrementTick) refers to tasks.o(.bss.pxCurrentTCB) for pxCurrentTCB
    tasks.o(.text.xTaskIncrementTick) refers to tasks.o(.bss.uxPendedTicks) for uxPendedTicks
    tasks.o(.text.xTaskIncrementTick) refers to cpu_load.o(.text.vApplicationTickHook) for vApplicationTickHook
    tasks.o(.text.xTaskIncrementTick) refers to tasks.o(.bss.xYieldPending) for xYieldPending
    tasks.o(.ARM.exidx.text.xTaskIncrementTick) refers to tasks.o(.text.xTaskIncrementTick) for [Anonymous Symbol]
    tasks.o(.text.xTaskGetTickCount) refers to tasks.o(.bss.xTickCount) for xTickCount
    tasks.o(.ARM.exidx.text.xTaskGetTickCount) refers to tasks.o(.text.xTaskGetTickCount) for [Anonymous Symbol]
    tasks.o(.text.xTaskGetTickCountFromISR) refers to port.o(.text.vPortValidateInterruptPriority) for vPortValidateInterruptPriority
    tasks.o(.text.xTaskGetTickCountFromISR) refers to tasks.o(.bss.xTickCount) for xTickCount
    tasks.o(.ARM.exidx.text.xTaskGetTickCountFromISR) refers to tasks.o(.text.xTaskGetTickCountFromISR) for [Anonymous Symbol]
    tasks.o(.text.uxTaskGetNumberOfTasks) refers to tasks.o(.bss.uxCurrentNumberOfTasks) for uxCurrentNumberOfTasks
    tasks.o(.ARM.exidx.text.uxTaskGetNumberOfTasks) refers to tasks.o(.text.uxTaskGetNumberOfTasks) for [Anonymous Symbol]
    tasks.o(.text.pcTaskGetName) refers to tasks.o(.bss.pxCurrentTCB) for pxCurrentTCB
    tasks.o(.ARM.exidx.text.pcTaskGetName) refers to tasks.o(.text.pcTaskGetName) for [Anonymous Symbol]
    tasks.o(.text.vTaskPlaceOnEventList) refers to tasks.o(.bss.pxCurrentTCB) for pxCurrentTCB
    tasks.o(.text.vTaskPlaceOnEventList) refers to list.o(.text.vListInsert) for vListInsert
    tasks.o(.text.vTaskPlaceOnEventList) refers to tasks.o(.text.prvAddCurrentTaskToDelayedList) for prvAddCurrentTaskToDelayedList
    tasks.o(.ARM.exidx.text.vTaskPlaceOnEventList) refers to tasks.o(.text.vTaskPlaceOnEventList) for [Anonymous Symbol]
    tasks.o(.text.vTaskPlaceOnUnorderedEventList) refers to tasks.o(.bss.uxSchedulerSuspended) for uxSchedulerSuspended
    tasks.o(.text.vTaskPlaceOnUnorderedEventList) refers to tasks.o(.bss.pxCurrentTCB) for pxCurrentTCB
    tasks.o(.text.vTaskPlaceOnUnorderedEventList) refers to list.o(.text.vListInsertEnd) for vListInsertEnd
    tasks.o(.text.vTaskPlaceOnUnorderedEventList) refers to tasks.o(.text.prvAddCurrentTaskToDelayedList) for prvAddCurrentTaskToDelayedList
    tasks.o(.ARM.exidx.text.vTaskPlaceOnUnorderedEventList) refers to tasks.o(.text.vTaskPlaceOnUnorderedEventList) for [Anonymous Symbol]
    tasks.o(.text.vTaskPlaceOnEventListRestricted) refers to tasks.o(.bss.pxCurrentTCB) for pxCurrentTCB
    tasks.o(.text.vTaskPlaceOnEventListRestricted) refers to list.o(.text.vListInsertEnd) for vListInsertEnd
    tasks.o(.text.vTaskPlaceOnEventListRestricted) refers to tasks.o(.text.prvAddCurrentTaskToDelayedList) for prvAddCurrentTaskToDelayedList
    tasks.o(.ARM.exidx.text.vTaskPlaceOnEventListRestricted) refers to tasks.o(.text.vTaskPlaceOnEventListRestricted) for [Anonymous Symbol]
    tasks.o(.text.xTaskRemoveFromEventList) refers to list.o(.text.uxListRemove) for uxListRemove
    tasks.o(.text.xTaskRemoveFromEventList) refers to tasks.o(.bss.uxSchedulerSuspended) for uxSchedulerSuspended
    tasks.o(.text.xTaskRemoveFromEventList) refers to tasks.o(.bss.uxTopReadyPriority) for uxTopReadyPriority
    tasks.o(.text.xTaskRemoveFromEventList) refers to tasks.o(.bss.pxReadyTasksLists) for pxReadyTasksLists
    tasks.o(.text.xTaskRemoveFromEventList) refers to list.o(.text.vListInsertEnd) for vListInsertEnd
    tasks.o(.text.xTaskRemoveFromEventList) refers to tasks.o(.bss.xPendingReadyList) for xPendingReadyList
    tasks.o(.text.xTaskRemoveFromEventList) refers to tasks.o(.bss.pxCurrentTCB) for pxCurrentTCB
    tasks.o(.text.xTaskRemoveFromEventList) refers to tasks.o(.bss.xYieldPending) for xYieldPending
    tasks.o(.ARM.exidx.text.xTaskRemoveFromEventList) refers to tasks.o(.text.xTaskRemoveFromEventList) for [Anonymous Symbol]
    tasks.o(.text.vTaskRemoveFromUnorderedEventList) refers to tasks.o(.bss.uxSchedulerSuspended) for uxSchedulerSuspended
    tasks.o(.text.vTaskRemoveFromUnorderedEventList) refers to list.o(.text.uxListRemove) for uxListRemove
    tasks.o(.text.vTaskRemoveFromUnorderedEventList) refers to tasks.o(.bss.uxTopReadyPriority) for uxTopReadyPriority
    tasks.o(.text.vTaskRemoveFromUnorderedEventList) refers to tasks.o(.bss.pxReadyTasksLists) for pxReadyTasksLists
    tasks.o(.text.vTaskRemoveFromUnorderedEventList) refers to list.o(.text.vListInsertEnd) for vListInsertEnd
    tasks.o(.text.vTaskRemoveFromUnorderedEventList) refers to tasks.o(.bss.pxCurrentTCB) for pxCurrentTCB
    tasks.o(.text.vTaskRemoveFromUnorderedEventList) refers to tasks.o(.bss.xYieldPending) for xYieldPending
    tasks.o(.ARM.exidx.text.vTaskRemoveFromUnorderedEventList) refers to tasks.o(.text.vTaskRemoveFromUnorderedEventList) for [Anonymous Symbol]
    tasks.o(.text.vTaskSetTimeOutState) refers to port.o(.text.vPortEnterCritical) for vPortEnterCritical
    tasks.o(.text.vTaskSetTimeOutState) refers to tasks.o(.bss.xNumOfOverflows) for xNumOfOverflows
    tasks.o(.text.vTaskSetTimeOutState) refers to tasks.o(.bss.xTickCount) for xTickCount
    tasks.o(.text.vTaskSetTimeOutState) refers to port.o(.text.vPortExitCritical) for vPortExitCritical
    tasks.o(.ARM.exidx.text.vTaskSetTimeOutState) refers to tasks.o(.text.vTaskSetTimeOutState) for [Anonymous Symbol]
    tasks.o(.text.vTaskInternalSetTimeOutState) refers to tasks.o(.bss.xNumOfOverflows) for xNumOfOverflows
    tasks.o(.text.vTaskInternalSetTimeOutState) refers to tasks.o(.bss.xTickCount) for xTickCount
    tasks.o(.ARM.exidx.text.vTaskInternalSetTimeOutState) refers to tasks.o(.text.vTaskInternalSetTimeOutState) for [Anonymous Symbol]
    tasks.o(.text.xTaskCheckForTimeOut) refers to port.o(.text.vPortEnterCritical) for vPortEnterCritical
    tasks.o(.text.xTaskCheckForTimeOut) refers to tasks.o(.bss.xTickCount) for xTickCount
    tasks.o(.text.xTaskCheckForTimeOut) refers to tasks.o(.bss.xNumOfOverflows) for xNumOfOverflows
    tasks.o(.text.xTaskCheckForTimeOut) refers to tasks.o(.text.vTaskInternalSetTimeOutState) for vTaskInternalSetTimeOutState
    tasks.o(.text.xTaskCheckForTimeOut) refers to port.o(.text.vPortExitCritical) for vPortExitCritical
    tasks.o(.ARM.exidx.text.xTaskCheckForTimeOut) refers to tasks.o(.text.xTaskCheckForTimeOut) for [Anonymous Symbol]
    tasks.o(.text.vTaskMissedYield) refers to tasks.o(.bss.xYieldPending) for xYieldPending
    tasks.o(.ARM.exidx.text.vTaskMissedYield) refers to tasks.o(.text.vTaskMissedYield) for [Anonymous Symbol]
    tasks.o(.text.xTaskGetCurrentTaskHandle) refers to tasks.o(.bss.pxCurrentTCB) for pxCurrentTCB
    tasks.o(.ARM.exidx.text.xTaskGetCurrentTaskHandle) refers to tasks.o(.text.xTaskGetCurrentTaskHandle) for [Anonymous Symbol]
    tasks.o(.text.xTaskGetSchedulerState) refers to tasks.o(.bss.xSchedulerRunning) for xSchedulerRunning
    tasks.o(.text.xTaskGetSchedulerState) refers to tasks.o(.bss.uxSchedulerSuspended) for uxSchedulerSuspended
    tasks.o(.ARM.exidx.text.xTaskGetSchedulerState) refers to tasks.o(.text.xTaskGetSchedulerState) for [Anonymous Symbol]
    tasks.o(.text.xTaskPriorityInherit) refers to tasks.o(.bss.pxCurrentTCB) for pxCurrentTCB
    tasks.o(.text.xTaskPriorityInherit) refers to tasks.o(.bss.pxReadyTasksLists) for pxReadyTasksLists
    tasks.o(.text.xTaskPriorityInherit) refers to list.o(.text.uxListRemove) for uxListRemove
    tasks.o(.text.xTaskPriorityInherit) refers to tasks.o(.bss.uxTopReadyPriority) for uxTopReadyPriority
    tasks.o(.text.xTaskPriorityInherit) refers to list.o(.text.vListInsertEnd) for vListInsertEnd
    tasks.o(.ARM.exidx.text.xTaskPriorityInherit) refers to tasks.o(.text.xTaskPriorityInherit) for [Anonymous Symbol]
    tasks.o(.text.xTaskPriorityDisinherit) refers to tasks.o(.bss.pxCurrentTCB) for pxCurrentTCB
    tasks.o(.text.xTaskPriorityDisinherit) refers to list.o(.text.uxListRemove) for uxListRemove
    tasks.o(.text.xTaskPriorityDisinherit) refers to tasks.o(.bss.pxReadyTasksLists) for pxReadyTasksLists
    tasks.o(.text.xTaskPriorityDisinherit) refers to tasks.o(.bss.uxTopReadyPriority) for uxTopReadyPriority
    tasks.o(.text.xTaskPriorityDisinherit) refers to list.o(.text.vListInsertEnd) for vListInsertEnd
    tasks.o(.ARM.exidx.text.xTaskPriorityDisinherit) refers to tasks.o(.text.xTaskPriorityDisinherit) for [Anonymous Symbol]
    tasks.o(.text.vTaskPriorityDisinheritAfterTimeout) refers to tasks.o(.bss.pxCurrentTCB) for pxCurrentTCB
    tasks.o(.text.vTaskPriorityDisinheritAfterTimeout) refers to tasks.o(.bss.pxReadyTasksLists) for pxReadyTasksLists
    tasks.o(.text.vTaskPriorityDisinheritAfterTimeout) refers to list.o(.text.uxListRemove) for uxListRemove
    tasks.o(.text.vTaskPriorityDisinheritAfterTimeout) refers to tasks.o(.bss.uxTopReadyPriority) for uxTopReadyPriority
    tasks.o(.text.vTaskPriorityDisinheritAfterTimeout) refers to list.o(.text.vListInsertEnd) for vListInsertEnd
    tasks.o(.ARM.exidx.text.vTaskPriorityDisinheritAfterTimeout) refers to tasks.o(.text.vTaskPriorityDisinheritAfterTimeout) for [Anonymous Symbol]
    tasks.o(.text.uxTaskResetEventItemValue) refers to tasks.o(.bss.pxCurrentTCB) for pxCurrentTCB
    tasks.o(.ARM.exidx.text.uxTaskResetEventItemValue) refers to tasks.o(.text.uxTaskResetEventItemValue) for [Anonymous Symbol]
    tasks.o(.text.pvTaskIncrementMutexHeldCount) refers to tasks.o(.bss.pxCurrentTCB) for pxCurrentTCB
    tasks.o(.ARM.exidx.text.pvTaskIncrementMutexHeldCount) refers to tasks.o(.text.pvTaskIncrementMutexHeldCount) for [Anonymous Symbol]
    tasks.o(.text.ulTaskNotifyTake) refers to port.o(.text.vPortEnterCritical) for vPortEnterCritical
    tasks.o(.text.ulTaskNotifyTake) refers to tasks.o(.bss.pxCurrentTCB) for pxCurrentTCB
    tasks.o(.text.ulTaskNotifyTake) refers to tasks.o(.text.prvAddCurrentTaskToDelayedList) for prvAddCurrentTaskToDelayedList
    tasks.o(.text.ulTaskNotifyTake) refers to port.o(.text.vPortExitCritical) for vPortExitCritical
    tasks.o(.ARM.exidx.text.ulTaskNotifyTake) refers to tasks.o(.text.ulTaskNotifyTake) for [Anonymous Symbol]
    tasks.o(.text.xTaskNotifyWait) refers to port.o(.text.vPortEnterCritical) for vPortEnterCritical
    tasks.o(.text.xTaskNotifyWait) refers to tasks.o(.bss.pxCurrentTCB) for pxCurrentTCB
    tasks.o(.text.xTaskNotifyWait) refers to tasks.o(.text.prvAddCurrentTaskToDelayedList) for prvAddCurrentTaskToDelayedList
    tasks.o(.text.xTaskNotifyWait) refers to port.o(.text.vPortExitCritical) for vPortExitCritical
    tasks.o(.ARM.exidx.text.xTaskNotifyWait) refers to tasks.o(.text.xTaskNotifyWait) for [Anonymous Symbol]
    tasks.o(.text.xTaskGenericNotify) refers to port.o(.text.vPortEnterCritical) for vPortEnterCritical
    tasks.o(.text.xTaskGenericNotify) refers to list.o(.text.uxListRemove) for uxListRemove
    tasks.o(.text.xTaskGenericNotify) refers to tasks.o(.bss.uxTopReadyPriority) for uxTopReadyPriority
    tasks.o(.text.xTaskGenericNotify) refers to tasks.o(.bss.pxReadyTasksLists) for pxReadyTasksLists
    tasks.o(.text.xTaskGenericNotify) refers to list.o(.text.vListInsertEnd) for vListInsertEnd
    tasks.o(.text.xTaskGenericNotify) refers to tasks.o(.bss.pxCurrentTCB) for pxCurrentTCB
    tasks.o(.text.xTaskGenericNotify) refers to port.o(.text.vPortExitCritical) for vPortExitCritical
    tasks.o(.ARM.exidx.text.xTaskGenericNotify) refers to tasks.o(.text.xTaskGenericNotify) for [Anonymous Symbol]
    tasks.o(.text.xTaskGenericNotifyFromISR) refers to port.o(.text.vPortValidateInterruptPriority) for vPortValidateInterruptPriority
    tasks.o(.text.xTaskGenericNotifyFromISR) refers to tasks.o(.bss.uxSchedulerSuspended) for uxSchedulerSuspended
    tasks.o(.text.xTaskGenericNotifyFromISR) refers to list.o(.text.uxListRemove) for uxListRemove
    tasks.o(.text.xTaskGenericNotifyFromISR) refers to tasks.o(.bss.uxTopReadyPriority) for uxTopReadyPriority
    tasks.o(.text.xTaskGenericNotifyFromISR) refers to tasks.o(.bss.pxReadyTasksLists) for pxReadyTasksLists
    tasks.o(.text.xTaskGenericNotifyFromISR) refers to list.o(.text.vListInsertEnd) for vListInsertEnd
    tasks.o(.text.xTaskGenericNotifyFromISR) refers to tasks.o(.bss.xPendingReadyList) for xPendingReadyList
    tasks.o(.text.xTaskGenericNotifyFromISR) refers to tasks.o(.bss.pxCurrentTCB) for pxCurrentTCB
    tasks.o(.text.xTaskGenericNotifyFromISR) refers to tasks.o(.bss.xYieldPending) for xYieldPending
    tasks.o(.ARM.exidx.text.xTaskGenericNotifyFromISR) refers to tasks.o(.text.xTaskGenericNotifyFromISR) for [Anonymous Symbol]
    tasks.o(.text.vTaskNotifyGiveFromISR) refers to port.o(.text.vPortValidateInterruptPriority) for vPortValidateInterruptPriority
    tasks.o(.text.vTaskNotifyGiveFromISR) refers to tasks.o(.bss.uxSchedulerSuspended) for uxSchedulerSuspended
    tasks.o(.text.vTaskNotifyGiveFromISR) refers to list.o(.text.uxListRemove) for uxListRemove
    tasks.o(.text.vTaskNotifyGiveFromISR) refers to tasks.o(.bss.uxTopReadyPriority) for uxTopReadyPriority
    tasks.o(.text.vTaskNotifyGiveFromISR) refers to tasks.o(.bss.pxReadyTasksLists) for pxReadyTasksLists
    tasks.o(.text.vTaskNotifyGiveFromISR) refers to list.o(.text.vListInsertEnd) for vListInsertEnd
    tasks.o(.text.vTaskNotifyGiveFromISR) refers to tasks.o(.bss.xPendingReadyList) for xPendingReadyList
    tasks.o(.text.vTaskNotifyGiveFromISR) refers to tasks.o(.bss.pxCurrentTCB) for pxCurrentTCB
    tasks.o(.text.vTaskNotifyGiveFromISR) refers to tasks.o(.bss.xYieldPending) for xYieldPending
    tasks.o(.ARM.exidx.text.vTaskNotifyGiveFromISR) refers to tasks.o(.text.vTaskNotifyGiveFromISR) for [Anonymous Symbol]
    tasks.o(.text.xTaskNotifyStateClear) refers to tasks.o(.bss.pxCurrentTCB) for pxCurrentTCB
    tasks.o(.text.xTaskNotifyStateClear) refers to port.o(.text.vPortEnterCritical) for vPortEnterCritical
    tasks.o(.text.xTaskNotifyStateClear) refers to port.o(.text.vPortExitCritical) for vPortExitCritical
    tasks.o(.ARM.exidx.text.xTaskNotifyStateClear) refers to tasks.o(.text.xTaskNotifyStateClear) for [Anonymous Symbol]
    tasks.o(.text.prvInitialiseTaskLists) refers to tasks.o(.bss.pxReadyTasksLists) for pxReadyTasksLists
    tasks.o(.text.prvInitialiseTaskLists) refers to list.o(.text.vListInitialise) for vListInitialise
    tasks.o(.text.prvInitialiseTaskLists) refers to tasks.o(.bss.xDelayedTaskList1) for xDelayedTaskList1
    tasks.o(.text.prvInitialiseTaskLists) refers to tasks.o(.bss.xDelayedTaskList2) for xDelayedTaskList2
    tasks.o(.text.prvInitialiseTaskLists) refers to tasks.o(.bss.xPendingReadyList) for xPendingReadyList
    tasks.o(.text.prvInitialiseTaskLists) refers to tasks.o(.bss.xTasksWaitingTermination) for xTasksWaitingTermination
    tasks.o(.text.prvInitialiseTaskLists) refers to tasks.o(.bss.xSuspendedTaskList) for xSuspendedTaskList
    tasks.o(.text.prvInitialiseTaskLists) refers to tasks.o(.bss.pxDelayedTaskList) for pxDelayedTaskList
    tasks.o(.text.prvInitialiseTaskLists) refers to tasks.o(.bss.pxOverflowDelayedTaskList) for pxOverflowDelayedTaskList
    tasks.o(.ARM.exidx.text.prvInitialiseTaskLists) refers to tasks.o(.text.prvInitialiseTaskLists) for [Anonymous Symbol]
    tasks.o(.text.prvCheckTasksWaitingTermination) refers to tasks.o(.bss.uxDeletedTasksWaitingCleanUp) for uxDeletedTasksWaitingCleanUp
    tasks.o(.text.prvCheckTasksWaitingTermination) refers to port.o(.text.vPortEnterCritical) for vPortEnterCritical
    tasks.o(.text.prvCheckTasksWaitingTermination) refers to tasks.o(.bss.xTasksWaitingTermination) for xTasksWaitingTermination
    tasks.o(.text.prvCheckTasksWaitingTermination) refers to list.o(.text.uxListRemove) for uxListRemove
    tasks.o(.text.prvCheckTasksWaitingTermination) refers to tasks.o(.bss.uxCurrentNumberOfTasks) for uxCurrentNumberOfTasks
    tasks.o(.text.prvCheckTasksWaitingTermination) refers to port.o(.text.vPortExitCritical) for vPortExitCritical
    tasks.o(.text.prvCheckTasksWaitingTermination) refers to tasks.o(.text.prvDeleteTCB) for prvDeleteTCB
    tasks.o(.ARM.exidx.text.prvCheckTasksWaitingTermination) refers to tasks.o(.text.prvCheckTasksWaitingTermination) for [Anonymous Symbol]
    timers.o(.text.xTimerCreateTimerTask) refers to timers.o(.text.prvCheckForValidListAndQueue) for prvCheckForValidListAndQueue
    timers.o(.text.xTimerCreateTimerTask) refers to timers.o(.bss.xTimerQueue) for xTimerQueue
    timers.o(.text.xTimerCreateTimerTask) refers to static_mem.o(.text.vApplicationGetTimerTaskMemory) for vApplicationGetTimerTaskMemory
    timers.o(.text.xTimerCreateTimerTask) refers to timers.o(.text.prvTimerTask) for prvTimerTask
    timers.o(.text.xTimerCreateTimerTask) refers to timers.o(.rodata.str1.1) for .L.str
    timers.o(.text.xTimerCreateTimerTask) refers to tasks.o(.text.xTaskCreateStatic) for xTaskCreateStatic
    timers.o(.text.xTimerCreateTimerTask) refers to timers.o(.bss.xTimerTaskHandle) for xTimerTaskHandle
    timers.o(.ARM.exidx.text.xTimerCreateTimerTask) refers to timers.o(.text.xTimerCreateTimerTask) for [Anonymous Symbol]
    timers.o(.text.prvCheckForValidListAndQueue) refers to port.o(.text.vPortEnterCritical) for vPortEnterCritical
    timers.o(.text.prvCheckForValidListAndQueue) refers to timers.o(.bss.xTimerQueue) for xTimerQueue
    timers.o(.text.prvCheckForValidListAndQueue) refers to timers.o(.bss.xActiveTimerList1) for xActiveTimerList1
    timers.o(.text.prvCheckForValidListAndQueue) refers to list.o(.text.vListInitialise) for vListInitialise
    timers.o(.text.prvCheckForValidListAndQueue) refers to timers.o(.bss.xActiveTimerList2) for xActiveTimerList2
    timers.o(.text.prvCheckForValidListAndQueue) refers to timers.o(.bss.pxCurrentTimerList) for pxCurrentTimerList
    timers.o(.text.prvCheckForValidListAndQueue) refers to timers.o(.bss.pxOverflowTimerList) for pxOverflowTimerList
    timers.o(.text.prvCheckForValidListAndQueue) refers to timers.o(.bss.prvCheckForValidListAndQueue.ucStaticTimerQueueStorage) for prvCheckForValidListAndQueue.ucStaticTimerQueueStorage
    timers.o(.text.prvCheckForValidListAndQueue) refers to timers.o(.bss.prvCheckForValidListAndQueue.xStaticTimerQueue) for prvCheckForValidListAndQueue.xStaticTimerQueue
    timers.o(.text.prvCheckForValidListAndQueue) refers to queue.o(.text.xQueueGenericCreateStatic) for xQueueGenericCreateStatic
    timers.o(.text.prvCheckForValidListAndQueue) refers to timers.o(.rodata.str1.1) for .L.str.1
    timers.o(.text.prvCheckForValidListAndQueue) refers to queue.o(.text.vQueueAddToRegistry) for vQueueAddToRegistry
    timers.o(.text.prvCheckForValidListAndQueue) refers to port.o(.text.vPortExitCritical) for vPortExitCritical
    timers.o(.ARM.exidx.text.prvCheckForValidListAndQueue) refers to timers.o(.text.prvCheckForValidListAndQueue) for [Anonymous Symbol]
    timers.o(.text.prvTimerTask) refers to timers.o(.text.prvGetNextExpireTime) for prvGetNextExpireTime
    timers.o(.text.prvTimerTask) refers to timers.o(.text.prvProcessTimerOrBlockTask) for prvProcessTimerOrBlockTask
    timers.o(.text.prvTimerTask) refers to timers.o(.text.prvProcessReceivedCommands) for prvProcessReceivedCommands
    timers.o(.ARM.exidx.text.prvTimerTask) refers to timers.o(.text.prvTimerTask) for [Anonymous Symbol]
    timers.o(.text.xTimerCreate) refers to heap_4.o(.text.pvPortMalloc) for pvPortMalloc
    timers.o(.text.xTimerCreate) refers to timers.o(.text.prvInitialiseNewTimer) for prvInitialiseNewTimer
    timers.o(.ARM.exidx.text.xTimerCreate) refers to timers.o(.text.xTimerCreate) for [Anonymous Symbol]
    timers.o(.text.prvInitialiseNewTimer) refers to timers.o(.text.prvCheckForValidListAndQueue) for prvCheckForValidListAndQueue
    timers.o(.text.prvInitialiseNewTimer) refers to list.o(.text.vListInitialiseItem) for vListInitialiseItem
    timers.o(.ARM.exidx.text.prvInitialiseNewTimer) refers to timers.o(.text.prvInitialiseNewTimer) for [Anonymous Symbol]
    timers.o(.text.xTimerCreateStatic) refers to timers.o(.text.prvInitialiseNewTimer) for prvInitialiseNewTimer
    timers.o(.ARM.exidx.text.xTimerCreateStatic) refers to timers.o(.text.xTimerCreateStatic) for [Anonymous Symbol]
    timers.o(.text.xTimerGenericCommand) refers to timers.o(.bss.xTimerQueue) for xTimerQueue
    timers.o(.text.xTimerGenericCommand) refers to tasks.o(.text.xTaskGetSchedulerState) for xTaskGetSchedulerState
    timers.o(.text.xTimerGenericCommand) refers to queue.o(.text.xQueueGenericSend) for xQueueGenericSend
    timers.o(.text.xTimerGenericCommand) refers to queue.o(.text.xQueueGenericSendFromISR) for xQueueGenericSendFromISR
    timers.o(.ARM.exidx.text.xTimerGenericCommand) refers to timers.o(.text.xTimerGenericCommand) for [Anonymous Symbol]
    timers.o(.text.xTimerGetTimerDaemonTaskHandle) refers to timers.o(.bss.xTimerTaskHandle) for xTimerTaskHandle
    timers.o(.ARM.exidx.text.xTimerGetTimerDaemonTaskHandle) refers to timers.o(.text.xTimerGetTimerDaemonTaskHandle) for [Anonymous Symbol]
    timers.o(.ARM.exidx.text.xTimerGetPeriod) refers to timers.o(.text.xTimerGetPeriod) for [Anonymous Symbol]
    timers.o(.ARM.exidx.text.xTimerGetExpiryTime) refers to timers.o(.text.xTimerGetExpiryTime) for [Anonymous Symbol]
    timers.o(.ARM.exidx.text.pcTimerGetName) refers to timers.o(.text.pcTimerGetName) for [Anonymous Symbol]
    timers.o(.text.xTimerIsTimerActive) refers to port.o(.text.vPortEnterCritical) for vPortEnterCritical
    timers.o(.text.xTimerIsTimerActive) refers to port.o(.text.vPortExitCritical) for vPortExitCritical
    timers.o(.ARM.exidx.text.xTimerIsTimerActive) refers to timers.o(.text.xTimerIsTimerActive) for [Anonymous Symbol]
    timers.o(.text.pvTimerGetTimerID) refers to port.o(.text.vPortEnterCritical) for vPortEnterCritical
    timers.o(.text.pvTimerGetTimerID) refers to port.o(.text.vPortExitCritical) for vPortExitCritical
    timers.o(.ARM.exidx.text.pvTimerGetTimerID) refers to timers.o(.text.pvTimerGetTimerID) for [Anonymous Symbol]
    timers.o(.text.vTimerSetTimerID) refers to port.o(.text.vPortEnterCritical) for vPortEnterCritical
    timers.o(.text.vTimerSetTimerID) refers to port.o(.text.vPortExitCritical) for vPortExitCritical
    timers.o(.ARM.exidx.text.vTimerSetTimerID) refers to timers.o(.text.vTimerSetTimerID) for [Anonymous Symbol]
    timers.o(.text.xTimerPendFunctionCallFromISR) refers to timers.o(.bss.xTimerQueue) for xTimerQueue
    timers.o(.text.xTimerPendFunctionCallFromISR) refers to queue.o(.text.xQueueGenericSendFromISR) for xQueueGenericSendFromISR
    timers.o(.ARM.exidx.text.xTimerPendFunctionCallFromISR) refers to timers.o(.text.xTimerPendFunctionCallFromISR) for [Anonymous Symbol]
    timers.o(.text.xTimerPendFunctionCall) refers to timers.o(.bss.xTimerQueue) for xTimerQueue
    timers.o(.text.xTimerPendFunctionCall) refers to queue.o(.text.xQueueGenericSend) for xQueueGenericSend
    timers.o(.ARM.exidx.text.xTimerPendFunctionCall) refers to timers.o(.text.xTimerPendFunctionCall) for [Anonymous Symbol]
    timers.o(.text.prvGetNextExpireTime) refers to timers.o(.bss.pxCurrentTimerList) for pxCurrentTimerList
    timers.o(.ARM.exidx.text.prvGetNextExpireTime) refers to timers.o(.text.prvGetNextExpireTime) for [Anonymous Symbol]
    timers.o(.text.prvProcessTimerOrBlockTask) refers to tasks.o(.text.vTaskSuspendAll) for vTaskSuspendAll
    timers.o(.text.prvProcessTimerOrBlockTask) refers to timers.o(.text.prvSampleTimeNow) for prvSampleTimeNow
    timers.o(.text.prvProcessTimerOrBlockTask) refers to tasks.o(.text.xTaskResumeAll) for xTaskResumeAll
    timers.o(.text.prvProcessTimerOrBlockTask) refers to timers.o(.text.prvProcessExpiredTimer) for prvProcessExpiredTimer
    timers.o(.text.prvProcessTimerOrBlockTask) refers to timers.o(.bss.pxOverflowTimerList) for pxOverflowTimerList
    timers.o(.text.prvProcessTimerOrBlockTask) refers to timers.o(.bss.xTimerQueue) for xTimerQueue
    timers.o(.text.prvProcessTimerOrBlockTask) refers to queue.o(.text.vQueueWaitForMessageRestricted) for vQueueWaitForMessageRestricted
    timers.o(.ARM.exidx.text.prvProcessTimerOrBlockTask) refers to timers.o(.text.prvProcessTimerOrBlockTask) for [Anonymous Symbol]
    timers.o(.text.prvProcessReceivedCommands) refers to timers.o(.bss.xTimerQueue) for xTimerQueue
    timers.o(.text.prvProcessReceivedCommands) refers to queue.o(.text.xQueueReceive) for xQueueReceive
    timers.o(.text.prvProcessReceivedCommands) refers to list.o(.text.uxListRemove) for uxListRemove
    timers.o(.text.prvProcessReceivedCommands) refers to timers.o(.text.prvSampleTimeNow) for prvSampleTimeNow
    timers.o(.text.prvProcessReceivedCommands) refers to timers.o(.text.prvInsertTimerInActiveList) for prvInsertTimerInActiveList
    timers.o(.text.prvProcessReceivedCommands) refers to timers.o(.text.xTimerGenericCommand) for xTimerGenericCommand
    timers.o(.text.prvProcessReceivedCommands) refers to heap_4.o(.text.vPortFree) for vPortFree
    timers.o(.ARM.exidx.text.prvProcessReceivedCommands) refers to timers.o(.text.prvProcessReceivedCommands) for [Anonymous Symbol]
    timers.o(.text.prvSampleTimeNow) refers to tasks.o(.text.xTaskGetTickCount) for xTaskGetTickCount
    timers.o(.text.prvSampleTimeNow) refers to timers.o(.bss.prvSampleTimeNow.xLastTime) for prvSampleTimeNow.xLastTime
    timers.o(.text.prvSampleTimeNow) refers to timers.o(.text.prvSwitchTimerLists) for prvSwitchTimerLists
    timers.o(.ARM.exidx.text.prvSampleTimeNow) refers to timers.o(.text.prvSampleTimeNow) for [Anonymous Symbol]
    timers.o(.text.prvProcessExpiredTimer) refers to timers.o(.bss.pxCurrentTimerList) for pxCurrentTimerList
    timers.o(.text.prvProcessExpiredTimer) refers to list.o(.text.uxListRemove) for uxListRemove
    timers.o(.text.prvProcessExpiredTimer) refers to timers.o(.text.prvInsertTimerInActiveList) for prvInsertTimerInActiveList
    timers.o(.text.prvProcessExpiredTimer) refers to timers.o(.text.xTimerGenericCommand) for xTimerGenericCommand
    timers.o(.ARM.exidx.text.prvProcessExpiredTimer) refers to timers.o(.text.prvProcessExpiredTimer) for [Anonymous Symbol]
    timers.o(.text.prvSwitchTimerLists) refers to timers.o(.bss.pxCurrentTimerList) for pxCurrentTimerList
    timers.o(.text.prvSwitchTimerLists) refers to list.o(.text.uxListRemove) for uxListRemove
    timers.o(.text.prvSwitchTimerLists) refers to list.o(.text.vListInsert) for vListInsert
    timers.o(.text.prvSwitchTimerLists) refers to timers.o(.text.xTimerGenericCommand) for xTimerGenericCommand
    timers.o(.text.prvSwitchTimerLists) refers to timers.o(.bss.pxOverflowTimerList) for pxOverflowTimerList
    timers.o(.ARM.exidx.text.prvSwitchTimerLists) refers to timers.o(.text.prvSwitchTimerLists) for [Anonymous Symbol]
    timers.o(.text.prvInsertTimerInActiveList) refers to timers.o(.bss.pxOverflowTimerList) for pxOverflowTimerList
    timers.o(.text.prvInsertTimerInActiveList) refers to list.o(.text.vListInsert) for vListInsert
    timers.o(.text.prvInsertTimerInActiveList) refers to timers.o(.bss.pxCurrentTimerList) for pxCurrentTimerList
    timers.o(.ARM.exidx.text.prvInsertTimerInActiveList) refers to timers.o(.text.prvInsertTimerInActiveList) for [Anonymous Symbol]
    heap_4.o(.text.pvPortMalloc) refers to tasks.o(.text.vTaskSuspendAll) for vTaskSuspendAll
    heap_4.o(.text.pvPortMalloc) refers to heap_4.o(.bss.pxEnd) for pxEnd
    heap_4.o(.text.pvPortMalloc) refers to heap_4.o(.text.prvHeapInit) for prvHeapInit
    heap_4.o(.text.pvPortMalloc) refers to heap_4.o(.bss.xBlockAllocatedBit) for xBlockAllocatedBit
    heap_4.o(.text.pvPortMalloc) refers to heap_4.o(.bss.xFreeBytesRemaining) for xFreeBytesRemaining
    heap_4.o(.text.pvPortMalloc) refers to heap_4.o(.bss.xStart) for xStart
    heap_4.o(.text.pvPortMalloc) refers to heap_4.o(.text.prvInsertBlockIntoFreeList) for prvInsertBlockIntoFreeList
    heap_4.o(.text.pvPortMalloc) refers to heap_4.o(.bss.xMinimumEverFreeBytesRemaining) for xMinimumEverFreeBytesRemaining
    heap_4.o(.text.pvPortMalloc) refers to tasks.o(.text.xTaskResumeAll) for xTaskResumeAll
    heap_4.o(.ARM.exidx.text.pvPortMalloc) refers to heap_4.o(.text.pvPortMalloc) for [Anonymous Symbol]
    heap_4.o(.text.prvHeapInit) refers to heap_4.o(.AXI_RAM) for ucHeap
    heap_4.o(.text.prvHeapInit) refers to heap_4.o(.bss.xStart) for xStart
    heap_4.o(.text.prvHeapInit) refers to heap_4.o(.bss.pxEnd) for pxEnd
    heap_4.o(.text.prvHeapInit) refers to heap_4.o(.bss.xMinimumEverFreeBytesRemaining) for xMinimumEverFreeBytesRemaining
    heap_4.o(.text.prvHeapInit) refers to heap_4.o(.bss.xFreeBytesRemaining) for xFreeBytesRemaining
    heap_4.o(.text.prvHeapInit) refers to heap_4.o(.bss.xBlockAllocatedBit) for xBlockAllocatedBit
    heap_4.o(.ARM.exidx.text.prvHeapInit) refers to heap_4.o(.text.prvHeapInit) for [Anonymous Symbol]
    heap_4.o(.text.prvInsertBlockIntoFreeList) refers to heap_4.o(.bss.xStart) for xStart
    heap_4.o(.text.prvInsertBlockIntoFreeList) refers to heap_4.o(.bss.pxEnd) for pxEnd
    heap_4.o(.ARM.exidx.text.prvInsertBlockIntoFreeList) refers to heap_4.o(.text.prvInsertBlockIntoFreeList) for [Anonymous Symbol]
    heap_4.o(.text.vPortFree) refers to heap_4.o(.bss.xBlockAllocatedBit) for xBlockAllocatedBit
    heap_4.o(.text.vPortFree) refers to tasks.o(.text.vTaskSuspendAll) for vTaskSuspendAll
    heap_4.o(.text.vPortFree) refers to heap_4.o(.bss.xFreeBytesRemaining) for xFreeBytesRemaining
    heap_4.o(.text.vPortFree) refers to heap_4.o(.text.prvInsertBlockIntoFreeList) for prvInsertBlockIntoFreeList
    heap_4.o(.text.vPortFree) refers to tasks.o(.text.xTaskResumeAll) for xTaskResumeAll
    heap_4.o(.ARM.exidx.text.vPortFree) refers to heap_4.o(.text.vPortFree) for [Anonymous Symbol]
    heap_4.o(.text.xPortGetFreeHeapSize) refers to heap_4.o(.bss.xFreeBytesRemaining) for xFreeBytesRemaining
    heap_4.o(.ARM.exidx.text.xPortGetFreeHeapSize) refers to heap_4.o(.text.xPortGetFreeHeapSize) for [Anonymous Symbol]
    heap_4.o(.text.xPortGetMinimumEverFreeHeapSize) refers to heap_4.o(.bss.xMinimumEverFreeBytesRemaining) for xMinimumEverFreeBytesRemaining
    heap_4.o(.ARM.exidx.text.xPortGetMinimumEverFreeHeapSize) refers to heap_4.o(.text.xPortGetMinimumEverFreeHeapSize) for [Anonymous Symbol]
    heap_4.o(.ARM.exidx.text.vPortInitialiseBlocks) refers to heap_4.o(.text.vPortInitialiseBlocks) for [Anonymous Symbol]
    port.o(.text.pxPortInitialiseStack) refers to port.o(.text.prvTaskExitError) for prvTaskExitError
    port.o(.ARM.exidx.text.pxPortInitialiseStack) refers to port.o(.text.pxPortInitialiseStack) for [Anonymous Symbol]
    port.o(.text.prvTaskExitError) refers to port.o(.data.uxCriticalNesting) for uxCriticalNesting
    port.o(.ARM.exidx.text.prvTaskExitError) refers to port.o(.text.prvTaskExitError) for [Anonymous Symbol]
    port.o(.text.SVC_Handler) refers to tasks.o(.bss.pxCurrentTCB) for pxCurrentTCB
    port.o(.ARM.exidx.text.SVC_Handler) refers to port.o(.text.SVC_Handler) for [Anonymous Symbol]
    port.o(.text.xPortStartScheduler) refers to port.o(.bss.ucMaxSysCallPriority) for ucMaxSysCallPriority
    port.o(.text.xPortStartScheduler) refers to port.o(.bss.ulMaxPRIGROUPValue) for ulMaxPRIGROUPValue
    port.o(.text.xPortStartScheduler) refers to port.o(.text.vPortSetupTimerInterrupt) for vPortSetupTimerInterrupt
    port.o(.text.xPortStartScheduler) refers to port.o(.data.uxCriticalNesting) for uxCriticalNesting
    port.o(.text.xPortStartScheduler) refers to port.o(.text.vPortEnableVFP) for vPortEnableVFP
    port.o(.text.xPortStartScheduler) refers to port.o(.text.prvPortStartFirstTask) for prvPortStartFirstTask
    port.o(.text.xPortStartScheduler) refers to tasks.o(.text.vTaskSwitchContext) for vTaskSwitchContext
    port.o(.text.xPortStartScheduler) refers to port.o(.text.prvTaskExitError) for prvTaskExitError
    port.o(.ARM.exidx.text.xPortStartScheduler) refers to port.o(.text.xPortStartScheduler) for [Anonymous Symbol]
    port.o(.ARM.exidx.text.vPortSetupTimerInterrupt) refers to port.o(.text.vPortSetupTimerInterrupt) for [Anonymous Symbol]
    port.o(.ARM.exidx.text.vPortEnableVFP) refers to port.o(.text.vPortEnableVFP) for [Anonymous Symbol]
    port.o(.ARM.exidx.text.prvPortStartFirstTask) refers to port.o(.text.prvPortStartFirstTask) for [Anonymous Symbol]
    port.o(.text.vPortEndScheduler) refers to port.o(.data.uxCriticalNesting) for uxCriticalNesting
    port.o(.ARM.exidx.text.vPortEndScheduler) refers to port.o(.text.vPortEndScheduler) for [Anonymous Symbol]
    port.o(.text.vPortEnterCritical) refers to port.o(.data.uxCriticalNesting) for uxCriticalNesting
    port.o(.ARM.exidx.text.vPortEnterCritical) refers to port.o(.text.vPortEnterCritical) for [Anonymous Symbol]
    port.o(.text.vPortExitCritical) refers to port.o(.data.uxCriticalNesting) for uxCriticalNesting
    port.o(.ARM.exidx.text.vPortExitCritical) refers to port.o(.text.vPortExitCritical) for [Anonymous Symbol]
    port.o(.text.PendSV_Handler) refers to tasks.o(.text.vTaskSwitchContext) for vTaskSwitchContext
    port.o(.text.PendSV_Handler) refers to tasks.o(.bss.pxCurrentTCB) for pxCurrentTCB
    port.o(.ARM.exidx.text.PendSV_Handler) refers to port.o(.text.PendSV_Handler) for [Anonymous Symbol]
    port.o(.text.SysTick_Handler) refers to tasks.o(.text.xTaskIncrementTick) for xTaskIncrementTick
    port.o(.ARM.exidx.text.SysTick_Handler) refers to port.o(.text.SysTick_Handler) for [Anonymous Symbol]
    port.o(.text.vPortValidateInterruptPriority) refers to port.o(.bss.ucMaxSysCallPriority) for ucMaxSysCallPriority
    port.o(.text.vPortValidateInterruptPriority) refers to port.o(.bss.ulMaxPRIGROUPValue) for ulMaxPRIGROUPValue
    port.o(.ARM.exidx.text.vPortValidateInterruptPriority) refers to port.o(.text.vPortValidateInterruptPriority) for [Anonymous Symbol]
    cmsis_os.o(.text.osKernelStart) refers to tasks.o(.text.vTaskStartScheduler) for vTaskStartScheduler
    cmsis_os.o(.ARM.exidx.text.osKernelStart) refers to cmsis_os.o(.text.osKernelStart) for [Anonymous Symbol]
    cmsis_os.o(.text.osKernelRunning) refers to tasks.o(.text.xTaskGetSchedulerState) for xTaskGetSchedulerState
    cmsis_os.o(.ARM.exidx.text.osKernelRunning) refers to cmsis_os.o(.text.osKernelRunning) for [Anonymous Symbol]
    cmsis_os.o(.text.osKernelSysTick) refers to cmsis_os.o(.text.inHandlerMode) for inHandlerMode
    cmsis_os.o(.text.osKernelSysTick) refers to tasks.o(.text.xTaskGetTickCountFromISR) for xTaskGetTickCountFromISR
    cmsis_os.o(.text.osKernelSysTick) refers to tasks.o(.text.xTaskGetTickCount) for xTaskGetTickCount
    cmsis_os.o(.ARM.exidx.text.osKernelSysTick) refers to cmsis_os.o(.text.osKernelSysTick) for [Anonymous Symbol]
    cmsis_os.o(.ARM.exidx.text.inHandlerMode) refers to cmsis_os.o(.text.inHandlerMode) for [Anonymous Symbol]
    cmsis_os.o(.text.osThreadCreate) refers to cmsis_os.o(.text.makeFreeRtosPriority) for makeFreeRtosPriority
    cmsis_os.o(.text.osThreadCreate) refers to tasks.o(.text.xTaskCreateStatic) for xTaskCreateStatic
    cmsis_os.o(.text.osThreadCreate) refers to tasks.o(.text.xTaskCreate) for xTaskCreate
    cmsis_os.o(.ARM.exidx.text.osThreadCreate) refers to cmsis_os.o(.text.osThreadCreate) for [Anonymous Symbol]
    cmsis_os.o(.ARM.exidx.text.makeFreeRtosPriority) refers to cmsis_os.o(.text.makeFreeRtosPriority) for [Anonymous Symbol]
    cmsis_os.o(.text.osThreadGetId) refers to tasks.o(.text.xTaskGetCurrentTaskHandle) for xTaskGetCurrentTaskHandle
    cmsis_os.o(.ARM.exidx.text.osThreadGetId) refers to cmsis_os.o(.text.osThreadGetId) for [Anonymous Symbol]
    cmsis_os.o(.text.osThreadTerminate) refers to tasks.o(.text.vTaskDelete) for vTaskDelete
    cmsis_os.o(.ARM.exidx.text.osThreadTerminate) refers to cmsis_os.o(.text.osThreadTerminate) for [Anonymous Symbol]
    cmsis_os.o(.ARM.exidx.text.osThreadYield) refers to cmsis_os.o(.text.osThreadYield) for [Anonymous Symbol]
    cmsis_os.o(.text.osThreadSetPriority) refers to cmsis_os.o(.text.makeFreeRtosPriority) for makeFreeRtosPriority
    cmsis_os.o(.text.osThreadSetPriority) refers to tasks.o(.text.vTaskPrioritySet) for vTaskPrioritySet
    cmsis_os.o(.ARM.exidx.text.osThreadSetPriority) refers to cmsis_os.o(.text.osThreadSetPriority) for [Anonymous Symbol]
    cmsis_os.o(.text.osThreadGetPriority) refers to cmsis_os.o(.text.inHandlerMode) for inHandlerMode
    cmsis_os.o(.text.osThreadGetPriority) refers to tasks.o(.text.uxTaskPriorityGetFromISR) for uxTaskPriorityGetFromISR
    cmsis_os.o(.text.osThreadGetPriority) refers to cmsis_os.o(.text.makeCmsisPriority) for makeCmsisPriority
    cmsis_os.o(.text.osThreadGetPriority) refers to tasks.o(.text.uxTaskPriorityGet) for uxTaskPriorityGet
    cmsis_os.o(.ARM.exidx.text.osThreadGetPriority) refers to cmsis_os.o(.text.osThreadGetPriority) for [Anonymous Symbol]
    cmsis_os.o(.ARM.exidx.text.makeCmsisPriority) refers to cmsis_os.o(.text.makeCmsisPriority) for [Anonymous Symbol]
    cmsis_os.o(.text.osDelay) refers to tasks.o(.text.vTaskDelay) for vTaskDelay
    cmsis_os.o(.ARM.exidx.text.osDelay) refers to cmsis_os.o(.text.osDelay) for [Anonymous Symbol]
    cmsis_os.o(.text.osTimerCreate) refers to cmsis_os.o(.rodata.str1.1) for .L.str
    cmsis_os.o(.text.osTimerCreate) refers to timers.o(.text.xTimerCreateStatic) for xTimerCreateStatic
    cmsis_os.o(.text.osTimerCreate) refers to timers.o(.text.xTimerCreate) for xTimerCreate
    cmsis_os.o(.ARM.exidx.text.osTimerCreate) refers to cmsis_os.o(.text.osTimerCreate) for [Anonymous Symbol]
    cmsis_os.o(.text.osTimerStart) refers to cmsis_os.o(.text.inHandlerMode) for inHandlerMode
    cmsis_os.o(.text.osTimerStart) refers to timers.o(.text.xTimerGenericCommand) for xTimerGenericCommand
    cmsis_os.o(.ARM.exidx.text.osTimerStart) refers to cmsis_os.o(.text.osTimerStart) for [Anonymous Symbol]
    cmsis_os.o(.text.osTimerStop) refers to cmsis_os.o(.text.inHandlerMode) for inHandlerMode
    cmsis_os.o(.text.osTimerStop) refers to timers.o(.text.xTimerGenericCommand) for xTimerGenericCommand
    cmsis_os.o(.ARM.exidx.text.osTimerStop) refers to cmsis_os.o(.text.osTimerStop) for [Anonymous Symbol]
    cmsis_os.o(.text.osTimerDelete) refers to cmsis_os.o(.text.inHandlerMode) for inHandlerMode
    cmsis_os.o(.text.osTimerDelete) refers to timers.o(.text.xTimerGenericCommand) for xTimerGenericCommand
    cmsis_os.o(.ARM.exidx.text.osTimerDelete) refers to cmsis_os.o(.text.osTimerDelete) for [Anonymous Symbol]
    cmsis_os.o(.text.osSignalSet) refers to cmsis_os.o(.text.inHandlerMode) for inHandlerMode
    cmsis_os.o(.text.osSignalSet) refers to tasks.o(.text.xTaskGenericNotifyFromISR) for xTaskGenericNotifyFromISR
    cmsis_os.o(.text.osSignalSet) refers to tasks.o(.text.xTaskGenericNotify) for xTaskGenericNotify
    cmsis_os.o(.ARM.exidx.text.osSignalSet) refers to cmsis_os.o(.text.osSignalSet) for [Anonymous Symbol]
    cmsis_os.o(.text.osSignalWait) refers to cmsis_os.o(.text.inHandlerMode) for inHandlerMode
    cmsis_os.o(.text.osSignalWait) refers to tasks.o(.text.xTaskNotifyWait) for xTaskNotifyWait
    cmsis_os.o(.ARM.exidx.text.osSignalWait) refers to cmsis_os.o(.text.osSignalWait) for [Anonymous Symbol]
    cmsis_os.o(.text.osMutexCreate) refers to queue.o(.text.xQueueCreateMutexStatic) for xQueueCreateMutexStatic
    cmsis_os.o(.text.osMutexCreate) refers to queue.o(.text.xQueueCreateMutex) for xQueueCreateMutex
    cmsis_os.o(.ARM.exidx.text.osMutexCreate) refers to cmsis_os.o(.text.osMutexCreate) for [Anonymous Symbol]
    cmsis_os.o(.text.osMutexWait) refers to cmsis_os.o(.text.inHandlerMode) for inHandlerMode
    cmsis_os.o(.text.osMutexWait) refers to queue.o(.text.xQueueReceiveFromISR) for xQueueReceiveFromISR
    cmsis_os.o(.text.osMutexWait) refers to queue.o(.text.xQueueSemaphoreTake) for xQueueSemaphoreTake
    cmsis_os.o(.ARM.exidx.text.osMutexWait) refers to cmsis_os.o(.text.osMutexWait) for [Anonymous Symbol]
    cmsis_os.o(.text.osMutexRelease) refers to cmsis_os.o(.text.inHandlerMode) for inHandlerMode
    cmsis_os.o(.text.osMutexRelease) refers to queue.o(.text.xQueueGiveFromISR) for xQueueGiveFromISR
    cmsis_os.o(.text.osMutexRelease) refers to queue.o(.text.xQueueGenericSend) for xQueueGenericSend
    cmsis_os.o(.ARM.exidx.text.osMutexRelease) refers to cmsis_os.o(.text.osMutexRelease) for [Anonymous Symbol]
    cmsis_os.o(.text.osMutexDelete) refers to cmsis_os.o(.text.inHandlerMode) for inHandlerMode
    cmsis_os.o(.text.osMutexDelete) refers to queue.o(.text.vQueueDelete) for vQueueDelete
    cmsis_os.o(.ARM.exidx.text.osMutexDelete) refers to cmsis_os.o(.text.osMutexDelete) for [Anonymous Symbol]
    cmsis_os.o(.text.osSemaphoreCreate) refers to queue.o(.text.xQueueGenericCreateStatic) for xQueueGenericCreateStatic
    cmsis_os.o(.text.osSemaphoreCreate) refers to queue.o(.text.xQueueGenericCreate) for xQueueGenericCreate
    cmsis_os.o(.text.osSemaphoreCreate) refers to queue.o(.text.xQueueGenericSend) for xQueueGenericSend
    cmsis_os.o(.ARM.exidx.text.osSemaphoreCreate) refers to cmsis_os.o(.text.osSemaphoreCreate) for [Anonymous Symbol]
    cmsis_os.o(.text.osSemaphoreWait) refers to cmsis_os.o(.text.inHandlerMode) for inHandlerMode
    cmsis_os.o(.text.osSemaphoreWait) refers to queue.o(.text.xQueueReceiveFromISR) for xQueueReceiveFromISR
    cmsis_os.o(.text.osSemaphoreWait) refers to queue.o(.text.xQueueSemaphoreTake) for xQueueSemaphoreTake
    cmsis_os.o(.ARM.exidx.text.osSemaphoreWait) refers to cmsis_os.o(.text.osSemaphoreWait) for [Anonymous Symbol]
    cmsis_os.o(.text.osSemaphoreRelease) refers to cmsis_os.o(.text.inHandlerMode) for inHandlerMode
    cmsis_os.o(.text.osSemaphoreRelease) refers to queue.o(.text.xQueueGiveFromISR) for xQueueGiveFromISR
    cmsis_os.o(.text.osSemaphoreRelease) refers to queue.o(.text.xQueueGenericSend) for xQueueGenericSend
    cmsis_os.o(.ARM.exidx.text.osSemaphoreRelease) refers to cmsis_os.o(.text.osSemaphoreRelease) for [Anonymous Symbol]
    cmsis_os.o(.text.osSemaphoreDelete) refers to cmsis_os.o(.text.inHandlerMode) for inHandlerMode
    cmsis_os.o(.text.osSemaphoreDelete) refers to queue.o(.text.vQueueDelete) for vQueueDelete
    cmsis_os.o(.ARM.exidx.text.osSemaphoreDelete) refers to cmsis_os.o(.text.osSemaphoreDelete) for [Anonymous Symbol]
    cmsis_os.o(.text.osPoolCreate) refers to heap_4.o(.text.pvPortMalloc) for pvPortMalloc
    cmsis_os.o(.text.osPoolCreate) refers to heap_4.o(.text.vPortFree) for vPortFree
    cmsis_os.o(.ARM.exidx.text.osPoolCreate) refers to cmsis_os.o(.text.osPoolCreate) for [Anonymous Symbol]
    cmsis_os.o(.text.osPoolAlloc) refers to cmsis_os.o(.text.inHandlerMode) for inHandlerMode
    cmsis_os.o(.text.osPoolAlloc) refers to port.o(.text.vPortEnterCritical) for vPortEnterCritical
    cmsis_os.o(.text.osPoolAlloc) refers to port.o(.text.vPortExitCritical) for vPortExitCritical
    cmsis_os.o(.ARM.exidx.text.osPoolAlloc) refers to cmsis_os.o(.text.osPoolAlloc) for [Anonymous Symbol]
    cmsis_os.o(.text.osPoolCAlloc) refers to cmsis_os.o(.text.osPoolAlloc) for osPoolAlloc
    cmsis_os.o(.ARM.exidx.text.osPoolCAlloc) refers to cmsis_os.o(.text.osPoolCAlloc) for [Anonymous Symbol]
    cmsis_os.o(.ARM.exidx.text.osPoolFree) refers to cmsis_os.o(.text.osPoolFree) for [Anonymous Symbol]
    cmsis_os.o(.text.osMessageCreate) refers to queue.o(.text.xQueueGenericCreateStatic) for xQueueGenericCreateStatic
    cmsis_os.o(.text.osMessageCreate) refers to queue.o(.text.xQueueGenericCreate) for xQueueGenericCreate
    cmsis_os.o(.ARM.exidx.text.osMessageCreate) refers to cmsis_os.o(.text.osMessageCreate) for [Anonymous Symbol]
    cmsis_os.o(.text.osMessagePut) refers to cmsis_os.o(.text.inHandlerMode) for inHandlerMode
    cmsis_os.o(.text.osMessagePut) refers to queue.o(.text.xQueueGenericSendFromISR) for xQueueGenericSendFromISR
    cmsis_os.o(.text.osMessagePut) refers to queue.o(.text.xQueueGenericSend) for xQueueGenericSend
    cmsis_os.o(.ARM.exidx.text.osMessagePut) refers to cmsis_os.o(.text.osMessagePut) for [Anonymous Symbol]
    cmsis_os.o(.text.osMessageGet) refers to cmsis_os.o(.text.inHandlerMode) for inHandlerMode
    cmsis_os.o(.text.osMessageGet) refers to queue.o(.text.xQueueReceiveFromISR) for xQueueReceiveFromISR
    cmsis_os.o(.text.osMessageGet) refers to queue.o(.text.xQueueReceive) for xQueueReceive
    cmsis_os.o(.ARM.exidx.text.osMessageGet) refers to cmsis_os.o(.text.osMessageGet) for [Anonymous Symbol]
    cmsis_os.o(.text.osMailCreate) refers to heap_4.o(.text.pvPortMalloc) for pvPortMalloc
    cmsis_os.o(.text.osMailCreate) refers to queue.o(.text.xQueueGenericCreate) for xQueueGenericCreate
    cmsis_os.o(.text.osMailCreate) refers to heap_4.o(.text.vPortFree) for vPortFree
    cmsis_os.o(.text.osMailCreate) refers to cmsis_os.o(.text.osPoolCreate) for osPoolCreate
    cmsis_os.o(.ARM.exidx.text.osMailCreate) refers to cmsis_os.o(.text.osMailCreate) for [Anonymous Symbol]
    cmsis_os.o(.text.osMailAlloc) refers to cmsis_os.o(.text.osPoolAlloc) for osPoolAlloc
    cmsis_os.o(.ARM.exidx.text.osMailAlloc) refers to cmsis_os.o(.text.osMailAlloc) for [Anonymous Symbol]
    cmsis_os.o(.text.osMailCAlloc) refers to cmsis_os.o(.text.osMailAlloc) for osMailAlloc
    cmsis_os.o(.ARM.exidx.text.osMailCAlloc) refers to cmsis_os.o(.text.osMailCAlloc) for [Anonymous Symbol]
    cmsis_os.o(.text.osMailPut) refers to cmsis_os.o(.text.inHandlerMode) for inHandlerMode
    cmsis_os.o(.text.osMailPut) refers to queue.o(.text.xQueueGenericSendFromISR) for xQueueGenericSendFromISR
    cmsis_os.o(.text.osMailPut) refers to queue.o(.text.xQueueGenericSend) for xQueueGenericSend
    cmsis_os.o(.ARM.exidx.text.osMailPut) refers to cmsis_os.o(.text.osMailPut) for [Anonymous Symbol]
    cmsis_os.o(.text.osMailGet) refers to cmsis_os.o(.text.inHandlerMode) for inHandlerMode
    cmsis_os.o(.text.osMailGet) refers to queue.o(.text.xQueueReceiveFromISR) for xQueueReceiveFromISR
    cmsis_os.o(.text.osMailGet) refers to queue.o(.text.xQueueReceive) for xQueueReceive
    cmsis_os.o(.ARM.exidx.text.osMailGet) refers to cmsis_os.o(.text.osMailGet) for [Anonymous Symbol]
    cmsis_os.o(.text.osMailFree) refers to cmsis_os.o(.text.osPoolFree) for osPoolFree
    cmsis_os.o(.ARM.exidx.text.osMailFree) refers to cmsis_os.o(.text.osMailFree) for [Anonymous Symbol]
    cmsis_os.o(.text.osSystickHandler) refers to tasks.o(.text.xTaskGetSchedulerState) for xTaskGetSchedulerState
    cmsis_os.o(.text.osSystickHandler) refers to port.o(.text.SysTick_Handler) for SysTick_Handler
    cmsis_os.o(.ARM.exidx.text.osSystickHandler) refers to cmsis_os.o(.text.osSystickHandler) for [Anonymous Symbol]
    cmsis_os.o(.text.osThreadSuspend) refers to tasks.o(.text.vTaskSuspend) for vTaskSuspend
    cmsis_os.o(.ARM.exidx.text.osThreadSuspend) refers to cmsis_os.o(.text.osThreadSuspend) for [Anonymous Symbol]
    cmsis_os.o(.text.osThreadResume) refers to cmsis_os.o(.text.inHandlerMode) for inHandlerMode
    cmsis_os.o(.text.osThreadResume) refers to tasks.o(.text.xTaskResumeFromISR) for xTaskResumeFromISR
    cmsis_os.o(.text.osThreadResume) refers to tasks.o(.text.vTaskResume) for vTaskResume
    cmsis_os.o(.ARM.exidx.text.osThreadResume) refers to cmsis_os.o(.text.osThreadResume) for [Anonymous Symbol]
    cmsis_os.o(.text.osThreadSuspendAll) refers to tasks.o(.text.vTaskSuspendAll) for vTaskSuspendAll
    cmsis_os.o(.ARM.exidx.text.osThreadSuspendAll) refers to cmsis_os.o(.text.osThreadSuspendAll) for [Anonymous Symbol]
    cmsis_os.o(.text.osThreadResumeAll) refers to tasks.o(.text.xTaskResumeAll) for xTaskResumeAll
    cmsis_os.o(.ARM.exidx.text.osThreadResumeAll) refers to cmsis_os.o(.text.osThreadResumeAll) for [Anonymous Symbol]
    cmsis_os.o(.text.osDelayUntil) refers to tasks.o(.text.vTaskDelayUntil) for vTaskDelayUntil
    cmsis_os.o(.ARM.exidx.text.osDelayUntil) refers to cmsis_os.o(.text.osDelayUntil) for [Anonymous Symbol]
    cmsis_os.o(.ARM.exidx.text.osAbortDelay) refers to cmsis_os.o(.text.osAbortDelay) for [Anonymous Symbol]
    cmsis_os.o(.ARM.exidx.text.osThreadList) refers to cmsis_os.o(.text.osThreadList) for [Anonymous Symbol]
    cmsis_os.o(.text.osMessagePeek) refers to queue.o(.text.xQueuePeek) for xQueuePeek
    cmsis_os.o(.ARM.exidx.text.osMessagePeek) refers to cmsis_os.o(.text.osMessagePeek) for [Anonymous Symbol]
    cmsis_os.o(.text.osMessageWaiting) refers to cmsis_os.o(.text.inHandlerMode) for inHandlerMode
    cmsis_os.o(.text.osMessageWaiting) refers to queue.o(.text.uxQueueMessagesWaitingFromISR) for uxQueueMessagesWaitingFromISR
    cmsis_os.o(.text.osMessageWaiting) refers to queue.o(.text.uxQueueMessagesWaiting) for uxQueueMessagesWaiting
    cmsis_os.o(.ARM.exidx.text.osMessageWaiting) refers to cmsis_os.o(.text.osMessageWaiting) for [Anonymous Symbol]
    cmsis_os.o(.text.osMessageAvailableSpace) refers to queue.o(.text.uxQueueSpacesAvailable) for uxQueueSpacesAvailable
    cmsis_os.o(.ARM.exidx.text.osMessageAvailableSpace) refers to cmsis_os.o(.text.osMessageAvailableSpace) for [Anonymous Symbol]
    cmsis_os.o(.text.osMessageDelete) refers to cmsis_os.o(.text.inHandlerMode) for inHandlerMode
    cmsis_os.o(.text.osMessageDelete) refers to queue.o(.text.vQueueDelete) for vQueueDelete
    cmsis_os.o(.ARM.exidx.text.osMessageDelete) refers to cmsis_os.o(.text.osMessageDelete) for [Anonymous Symbol]
    cmsis_os.o(.text.osRecursiveMutexCreate) refers to queue.o(.text.xQueueCreateMutexStatic) for xQueueCreateMutexStatic
    cmsis_os.o(.text.osRecursiveMutexCreate) refers to queue.o(.text.xQueueCreateMutex) for xQueueCreateMutex
    cmsis_os.o(.ARM.exidx.text.osRecursiveMutexCreate) refers to cmsis_os.o(.text.osRecursiveMutexCreate) for [Anonymous Symbol]
    cmsis_os.o(.text.osRecursiveMutexRelease) refers to queue.o(.text.xQueueGiveMutexRecursive) for xQueueGiveMutexRecursive
    cmsis_os.o(.ARM.exidx.text.osRecursiveMutexRelease) refers to cmsis_os.o(.text.osRecursiveMutexRelease) for [Anonymous Symbol]
    cmsis_os.o(.text.osRecursiveMutexWait) refers to queue.o(.text.xQueueTakeMutexRecursive) for xQueueTakeMutexRecursive
    cmsis_os.o(.ARM.exidx.text.osRecursiveMutexWait) refers to cmsis_os.o(.text.osRecursiveMutexWait) for [Anonymous Symbol]
    cmsis_os.o(.text.osSemaphoreGetCount) refers to queue.o(.text.uxQueueMessagesWaiting) for uxQueueMessagesWaiting
    cmsis_os.o(.ARM.exidx.text.osSemaphoreGetCount) refers to cmsis_os.o(.text.osSemaphoreGetCount) for [Anonymous Symbol]
    static_mem.o(.text.vApplicationGetIdleTaskMemory) refers to static_mem.o(.DTCM) for vApplicationGetIdleTaskMemory.xIdleTaskTCB
    static_mem.o(.ARM.exidx.text.vApplicationGetIdleTaskMemory) refers to static_mem.o(.text.vApplicationGetIdleTaskMemory) for [Anonymous Symbol]
    static_mem.o(.text.vApplicationGetTimerTaskMemory) refers to static_mem.o(.DTCM) for vApplicationGetTimerTaskMemory.xTimerTaskTCB
    static_mem.o(.ARM.exidx.text.vApplicationGetTimerTaskMemory) refers to static_mem.o(.text.vApplicationGetTimerTaskMemory) for [Anonymous Symbol]
    cpu_load.o(.text.__cxx_global_var_init) refers to cpu_load.o(.bss._ZL8IdleTime) for _ZL8IdleTime
    cpu_load.o(.text.__cxx_global_var_init) refers to gui.o(.text._ZN4TIMEC2Eb) for TIME::TIME__sub_object(bool)
    cpu_load.o(.ARM.exidx.text.__cxx_global_var_init) refers to cpu_load.o(.text.__cxx_global_var_init) for [Anonymous Symbol]
    cpu_load.o(.text.__cxx_global_var_init.1) refers to cpu_load.o(.bss._ZL13IdleStartTime) for _ZL13IdleStartTime
    cpu_load.o(.text.__cxx_global_var_init.1) refers to gui.o(.text._ZN4TIMEC2Eb) for TIME::TIME__sub_object(bool)
    cpu_load.o(.ARM.exidx.text.__cxx_global_var_init.1) refers to cpu_load.o(.text.__cxx_global_var_init.1) for [Anonymous Symbol]
    cpu_load.o(.text.EnterIdleTask) refers to timebase.o(.text._ZN4TIME3nowEv) for TIME::now()
    cpu_load.o(.text.EnterIdleTask) refers to cpu_load.o(.bss._ZL13IdleStartTime) for _ZL13IdleStartTime
    cpu_load.o(.text.EnterIdleTask) refers to sdstorage.o(.text._ZN4TIMEaSERKS_) for TIME::operator =(const TIME&)
    cpu_load.o(.ARM.exidx.text.EnterIdleTask) refers to cpu_load.o(.text.EnterIdleTask) for [Anonymous Symbol]
    cpu_load.o(.text.ExitIdleTask) refers to timebase.o(.text._ZN4TIME3nowEv) for TIME::now()
    cpu_load.o(.text.ExitIdleTask) refers to cpu_load.o(.bss._ZL13IdleStartTime) for _ZL13IdleStartTime
    cpu_load.o(.text.ExitIdleTask) refers to cpu_load.o(.text._ZN4TIMEmIERKS_) for TIME::operator -=(const TIME&)
    cpu_load.o(.text.ExitIdleTask) refers to cpu_load.o(.bss._ZL8IdleTime) for _ZL8IdleTime
    cpu_load.o(.text.ExitIdleTask) refers to cpu_load.o(.text._ZN4TIMEpLERKS_) for TIME::operator +=(const TIME&)
    cpu_load.o(.ARM.exidx.text.ExitIdleTask) refers to cpu_load.o(.text.ExitIdleTask) for [Anonymous Symbol]
    cpu_load.o(.text.vApplicationTickHook) refers to cpu_load.o(.bss._ZZ20vApplicationTickHookE5ticks) for vApplicationTickHook::ticks
    cpu_load.o(.text.vApplicationTickHook) refers to cpu_load.o(.bss._ZL8IdleTime) for _ZL8IdleTime
    cpu_load.o(.text.vApplicationTickHook) refers to cpu_load.o(.text._ZNK4TIME25get_pass_time_fromStartUpEv) for TIME::get_pass_time_fromStartUp() const
    cpu_load.o(.text.vApplicationTickHook) refers to cpu_load.o(.bss._ZL7CPULoad) for _ZL7CPULoad
    cpu_load.o(.text.vApplicationTickHook) refers to gui.o(.text._ZN4TIME11set_invalidEv) for TIME::set_invalid()
    cpu_load.o(.ARM.exidx.text.vApplicationTickHook) refers to cpu_load.o(.text.vApplicationTickHook) for [Anonymous Symbol]
    cpu_load.o(.text.getCPULoad) refers to cpu_load.o(.bss._ZL7CPULoad) for _ZL7CPULoad
    cpu_load.o(.ARM.exidx.text.getCPULoad) refers to cpu_load.o(.text.getCPULoad) for [Anonymous Symbol]
    cpu_load.o(.text._GLOBAL__sub_I_cpu_load.cpp) refers to cpu_load.o(.text.__cxx_global_var_init) for __cxx_global_var_init
    cpu_load.o(.text._GLOBAL__sub_I_cpu_load.cpp) refers to cpu_load.o(.text.__cxx_global_var_init.1) for __cxx_global_var_init.1
    cpu_load.o(.ARM.exidx.text._GLOBAL__sub_I_cpu_load.cpp) refers to cpu_load.o(.text._GLOBAL__sub_I_cpu_load.cpp) for [Anonymous Symbol]
    cpu_load.o(.init_array) refers to cpu_load.o(.text._GLOBAL__sub_I_cpu_load.cpp) for _GLOBAL__sub_I_cpu_load.cpp
    sensors.o(.text.__cxx_global_var_init) refers to queue.o(.text.xQueueCreateMutex) for xQueueCreateMutex
    sensors.o(.text.__cxx_global_var_init) refers to sensors.o(.bss._ZL19AccelerometersMutex) for _ZL19AccelerometersMutex
    sensors.o(.ARM.exidx.text.__cxx_global_var_init) refers to sensors.o(.text.__cxx_global_var_init) for [Anonymous Symbol]
    sensors.o(.text.__cxx_global_var_init.1) refers to queue.o(.text.xQueueCreateMutex) for xQueueCreateMutex
    sensors.o(.text.__cxx_global_var_init.1) refers to sensors.o(.bss._ZL15GyroscopesMutex) for _ZL15GyroscopesMutex
    sensors.o(.ARM.exidx.text.__cxx_global_var_init.1) refers to sensors.o(.text.__cxx_global_var_init.1) for [Anonymous Symbol]
    sensors.o(.text.__cxx_global_var_init.2) refers to queue.o(.text.xQueueCreateMutex) for xQueueCreateMutex
    sensors.o(.text.__cxx_global_var_init.2) refers to sensors.o(.bss._ZL18MagnetometersMutex) for _ZL18MagnetometersMutex
    sensors.o(.ARM.exidx.text.__cxx_global_var_init.2) refers to sensors.o(.text.__cxx_global_var_init.2) for [Anonymous Symbol]
    sensors.o(.text._Z24IMUAccelerometerRegisterh5SNamedd) refers to sensors.o(.bss._ZL19AccelerometersMutex) for _ZL19AccelerometersMutex
    sensors.o(.text._Z24IMUAccelerometerRegisterh5SNamedd) refers to queue.o(.text.xQueueSemaphoreTake) for xQueueSemaphoreTake
    sensors.o(.text._Z24IMUAccelerometerRegisterh5SNamedd) refers to sensors.o(.bss._ZL14Accelerometers) for _ZL14Accelerometers
    sensors.o(.text._Z24IMUAccelerometerRegisterh5SNamedd) refers to queue.o(.text.xQueueGenericSend) for xQueueGenericSend
    sensors.o(.text._Z24IMUAccelerometerRegisterh5SNamedd) refers to basic.o(.text._Znwj) for operator new(unsigned)
    sensors.o(.text._Z24IMUAccelerometerRegisterh5SNamedd) refers to gui.o(.text._ZN10IMU_SensorC2Ev) for IMU_Sensor::IMU_Sensor__sub_object()
    sensors.o(.text._Z24IMUAccelerometerRegisterh5SNamedd) refers to timebase.o(.text._ZN4TIME3nowEv) for TIME::now()
    sensors.o(.text._Z24IMUAccelerometerRegisterh5SNamedd) refers to sdstorage.o(.text._ZN4TIMEaSERKS_) for TIME::operator =(const TIME&)
    sensors.o(.text._Z24IMUAccelerometerRegisterh5SNamedd) refers to sensors.o(.text._ZN7vector3IdE4zeroEv) for vector3<double>::zero()
    sensors.o(.text._Z24IMUAccelerometerRegisterh5SNamedd) refers to sensors.o(.text._ZN7vector3IiE4zeroEv) for vector3<int>::zero()
    sensors.o(.text._Z24IMUAccelerometerRegisterh5SNamedd) refers to sensors.o(.rodata..L__const._Z24IMUAccelerometerRegisterh5SNamedd.types) for .L__const._Z24IMUAccelerometerRegisterh5SNamedd.types
    sensors.o(.text._Z24IMUAccelerometerRegisterh5SNamedd) refers to sensors.o(.rodata.str1.1) for .L.str
    sensors.o(.text._Z24IMUAccelerometerRegisterh5SNamedd) refers to ms_attitude.o(.text._ZN5SNameC2EPKc) for SName::SName__sub_object(const char*)
    sensors.o(.text._Z24IMUAccelerometerRegisterh5SNamedd) refers to sensors.o(.text._ZN5SNameplERKS_) for SName::operator +(const SName&)
    sensors.o(.text._Z24IMUAccelerometerRegisterh5SNamedd) refers to parameters.o(.text._Z18ParamGroupRegister5SNametjPK14MAV_PARAM_TYPEPKS_PKy) for ParamGroupRegister(SName, unsigned short, unsigned, const MAV_PARAM_TYPE*, const SName*, const unsigned long long*)
    sensors.o(.ARM.exidx.text._Z24IMUAccelerometerRegisterh5SNamedd) refers to sensors.o(.text._Z24IMUAccelerometerRegisterh5SNamedd) for [Anonymous Symbol]
    sensors.o(.text._Z26IMUAccelerometerUnRegisterhd) refers to sensors.o(.bss._ZL19AccelerometersMutex) for _ZL19AccelerometersMutex
    sensors.o(.text._Z26IMUAccelerometerUnRegisterhd) refers to queue.o(.text.xQueueSemaphoreTake) for xQueueSemaphoreTake
    sensors.o(.text._Z26IMUAccelerometerUnRegisterhd) refers to sensors.o(.bss._ZL14Accelerometers) for _ZL14Accelerometers
    sensors.o(.text._Z26IMUAccelerometerUnRegisterhd) refers to queue.o(.text.xQueueGenericSend) for xQueueGenericSend
    sensors.o(.text._Z26IMUAccelerometerUnRegisterhd) refers to basic.o(.text._ZdlPv) for operator delete (void*)
    sensors.o(.ARM.exidx.text._Z26IMUAccelerometerUnRegisterhd) refers to sensors.o(.text._Z26IMUAccelerometerUnRegisterhd) for [Anonymous Symbol]
    sensors.o(.text._Z20IMUGyroscopeRegisterh5SNamedd) refers to sensors.o(.bss._ZL15GyroscopesMutex) for _ZL15GyroscopesMutex
    sensors.o(.text._Z20IMUGyroscopeRegisterh5SNamedd) refers to queue.o(.text.xQueueSemaphoreTake) for xQueueSemaphoreTake
    sensors.o(.text._Z20IMUGyroscopeRegisterh5SNamedd) refers to sensors.o(.bss._ZL10Gyroscopes) for _ZL10Gyroscopes
    sensors.o(.text._Z20IMUGyroscopeRegisterh5SNamedd) refers to queue.o(.text.xQueueGenericSend) for xQueueGenericSend
    sensors.o(.text._Z20IMUGyroscopeRegisterh5SNamedd) refers to basic.o(.text._Znwj) for operator new(unsigned)
    sensors.o(.text._Z20IMUGyroscopeRegisterh5SNamedd) refers to gui.o(.text._ZN10IMU_SensorC2Ev) for IMU_Sensor::IMU_Sensor__sub_object()
    sensors.o(.text._Z20IMUGyroscopeRegisterh5SNamedd) refers to timebase.o(.text._ZN4TIME3nowEv) for TIME::now()
    sensors.o(.text._Z20IMUGyroscopeRegisterh5SNamedd) refers to sdstorage.o(.text._ZN4TIMEaSERKS_) for TIME::operator =(const TIME&)
    sensors.o(.text._Z20IMUGyroscopeRegisterh5SNamedd) refers to sensors.o(.text._ZN7vector3IdE4zeroEv) for vector3<double>::zero()
    sensors.o(.text._Z20IMUGyroscopeRegisterh5SNamedd) refers to sensors.o(.text._ZN7vector3IiE4zeroEv) for vector3<int>::zero()
    sensors.o(.text._Z20IMUGyroscopeRegisterh5SNamedd) refers to sensors.o(.rodata..L__const._Z20IMUGyroscopeRegisterh5SNamedd.types) for .L__const._Z20IMUGyroscopeRegisterh5SNamedd.types
    sensors.o(.text._Z20IMUGyroscopeRegisterh5SNamedd) refers to sensors.o(.rodata.str1.1) for .L.str.3
    sensors.o(.text._Z20IMUGyroscopeRegisterh5SNamedd) refers to ms_attitude.o(.text._ZN5SNameC2EPKc) for SName::SName__sub_object(const char*)
    sensors.o(.text._Z20IMUGyroscopeRegisterh5SNamedd) refers to sensors.o(.text._ZN5SNameplERKS_) for SName::operator +(const SName&)
    sensors.o(.text._Z20IMUGyroscopeRegisterh5SNamedd) refers to parameters.o(.text._Z18ParamGroupRegister5SNametjPK14MAV_PARAM_TYPEPKS_PKy) for ParamGroupRegister(SName, unsigned short, unsigned, const MAV_PARAM_TYPE*, const SName*, const unsigned long long*)
    sensors.o(.ARM.exidx.text._Z20IMUGyroscopeRegisterh5SNamedd) refers to sensors.o(.text._Z20IMUGyroscopeRegisterh5SNamedd) for [Anonymous Symbol]
    sensors.o(.text._Z22IMUGyroscopeUnRegisterhd) refers to sensors.o(.bss._ZL15GyroscopesMutex) for _ZL15GyroscopesMutex
    sensors.o(.text._Z22IMUGyroscopeUnRegisterhd) refers to queue.o(.text.xQueueSemaphoreTake) for xQueueSemaphoreTake
    sensors.o(.text._Z22IMUGyroscopeUnRegisterhd) refers to sensors.o(.bss._ZL10Gyroscopes) for _ZL10Gyroscopes
    sensors.o(.text._Z22IMUGyroscopeUnRegisterhd) refers to queue.o(.text.xQueueGenericSend) for xQueueGenericSend
    sensors.o(.text._Z22IMUGyroscopeUnRegisterhd) refers to basic.o(.text._ZdlPv) for operator delete (void*)
    sensors.o(.ARM.exidx.text._Z22IMUGyroscopeUnRegisterhd) refers to sensors.o(.text._Z22IMUGyroscopeUnRegisterhd) for [Anonymous Symbol]
    sensors.o(.text._Z23IMUMagnetometerRegisterh5SNamedd) refers to sensors.o(.bss._ZL18MagnetometersMutex) for _ZL18MagnetometersMutex
    sensors.o(.text._Z23IMUMagnetometerRegisterh5SNamedd) refers to queue.o(.text.xQueueSemaphoreTake) for xQueueSemaphoreTake
    sensors.o(.text._Z23IMUMagnetometerRegisterh5SNamedd) refers to sensors.o(.bss._ZL13Magnetometers) for _ZL13Magnetometers
    sensors.o(.text._Z23IMUMagnetometerRegisterh5SNamedd) refers to queue.o(.text.xQueueGenericSend) for xQueueGenericSend
    sensors.o(.text._Z23IMUMagnetometerRegisterh5SNamedd) refers to basic.o(.text._Znwj) for operator new(unsigned)
    sensors.o(.text._Z23IMUMagnetometerRegisterh5SNamedd) refers to gui.o(.text._ZN10IMU_SensorC2Ev) for IMU_Sensor::IMU_Sensor__sub_object()
    sensors.o(.text._Z23IMUMagnetometerRegisterh5SNamedd) refers to timebase.o(.text._ZN4TIME3nowEv) for TIME::now()
    sensors.o(.text._Z23IMUMagnetometerRegisterh5SNamedd) refers to sdstorage.o(.text._ZN4TIMEaSERKS_) for TIME::operator =(const TIME&)
    sensors.o(.text._Z23IMUMagnetometerRegisterh5SNamedd) refers to sensors.o(.text._ZN7vector3IdE4zeroEv) for vector3<double>::zero()
    sensors.o(.text._Z23IMUMagnetometerRegisterh5SNamedd) refers to sensors.o(.text._ZN7vector3IiE4zeroEv) for vector3<int>::zero()
    sensors.o(.text._Z23IMUMagnetometerRegisterh5SNamedd) refers to sensors.o(.rodata..L__const._Z23IMUMagnetometerRegisterh5SNamedd.types) for .L__const._Z23IMUMagnetometerRegisterh5SNamedd.types
    sensors.o(.text._Z23IMUMagnetometerRegisterh5SNamedd) refers to sensors.o(.rodata.str1.1) for .L.str.4
    sensors.o(.text._Z23IMUMagnetometerRegisterh5SNamedd) refers to ms_attitude.o(.text._ZN5SNameC2EPKc) for SName::SName__sub_object(const char*)
    sensors.o(.text._Z23IMUMagnetometerRegisterh5SNamedd) refers to sensors.o(.text._ZN5SNameplERKS_) for SName::operator +(const SName&)
    sensors.o(.text._Z23IMUMagnetometerRegisterh5SNamedd) refers to parameters.o(.text._Z18ParamGroupRegister5SNametjPK14MAV_PARAM_TYPEPKS_PKy) for ParamGroupRegister(SName, unsigned short, unsigned, const MAV_PARAM_TYPE*, const SName*, const unsigned long long*)
    sensors.o(.ARM.exidx.text._Z23IMUMagnetometerRegisterh5SNamedd) refers to sensors.o(.text._Z23IMUMagnetometerRegisterh5SNamedd) for [Anonymous Symbol]
    sensors.o(.text._Z25IMUMagnetometerUnRegisterhd) refers to sensors.o(.bss._ZL18MagnetometersMutex) for _ZL18MagnetometersMutex
    sensors.o(.text._Z25IMUMagnetometerUnRegisterhd) refers to queue.o(.text.xQueueSemaphoreTake) for xQueueSemaphoreTake
    sensors.o(.text._Z25IMUMagnetometerUnRegisterhd) refers to sensors.o(.bss._ZL13Magnetometers) for _ZL13Magnetometers
    sensors.o(.text._Z25IMUMagnetometerUnRegisterhd) refers to queue.o(.text.xQueueGenericSend) for xQueueGenericSend
    sensors.o(.text._Z25IMUMagnetometerUnRegisterhd) refers to basic.o(.text._ZdlPv) for operator delete (void*)
    sensors.o(.ARM.exidx.text._Z25IMUMagnetometerUnRegisterhd) refers to sensors.o(.text._Z25IMUMagnetometerUnRegisterhd) for [Anonymous Symbol]
    sensors.o(.text._Z22IMUAccelerometerUpdateh7vector3IiEbd) refers to sensors.o(.text._ZN7vector3IiEC2Eiii) for vector3<int>::vector3__sub_object(int, int, int)
    sensors.o(.text._Z22IMUAccelerometerUpdateh7vector3IiEbd) refers to sensors.o(.text._ZN7vector3IdEC2Eddd) for vector3<double>::vector3__sub_object(double, double, double)
    sensors.o(.text._Z22IMUAccelerometerUpdateh7vector3IiEbd) refers to sensors.o(.bss._ZL19AccelerometersMutex) for _ZL19AccelerometersMutex
    sensors.o(.text._Z22IMUAccelerometerUpdateh7vector3IiEbd) refers to queue.o(.text.xQueueSemaphoreTake) for xQueueSemaphoreTake
    sensors.o(.text._Z22IMUAccelerometerUpdateh7vector3IiEbd) refers to sensors.o(.bss._ZL14Accelerometers) for _ZL14Accelerometers
    sensors.o(.text._Z22IMUAccelerometerUpdateh7vector3IiEbd) refers to queue.o(.text.xQueueGenericSend) for xQueueGenericSend
    sensors.o(.text._Z22IMUAccelerometerUpdateh7vector3IiEbd) refers to sensors.o(.rodata.str1.1) for .L.str
    sensors.o(.text._Z22IMUAccelerometerUpdateh7vector3IiEbd) refers to ms_attitude.o(.text._ZN5SNameC2EPKc) for SName::SName__sub_object(const char*)
    sensors.o(.text._Z22IMUAccelerometerUpdateh7vector3IiEbd) refers to sensors.o(.text._ZN5SNameplERKS_) for SName::operator +(const SName&)
    sensors.o(.text._Z22IMUAccelerometerUpdateh7vector3IiEbd) refers to parameters.o(.text._Z14ReadParamGroup5SNamePyPbd) for ReadParamGroup(SName, unsigned long long*, bool*, double)
    sensors.o(.text._Z22IMUAccelerometerUpdateh7vector3IiEbd) refers to sensors.o(.text._ZN7vector3IiE10set_vectorEiii) for vector3<int>::set_vector(int, int, int)
    sensors.o(.text._Z22IMUAccelerometerUpdateh7vector3IiEbd) refers to sensors.o(.text._ZN7vector3IdE10set_vectorEddd) for vector3<double>::set_vector(double, double, double)
    sensors.o(.text._Z22IMUAccelerometerUpdateh7vector3IiEbd) refers to sensors.o(.text._ZN4TIME16get_pass_time_stEv) for TIME::get_pass_time_st()
    sensors.o(.text._Z22IMUAccelerometerUpdateh7vector3IiEbd) refers to sensors.o(.text._ZN7vector3IiEaSERKS0_) for vector3<int>::operator =(const vector3<int>&)
    sensors.o(.ARM.exidx.text._Z22IMUAccelerometerUpdateh7vector3IiEbd) refers to sensors.o(.text._Z22IMUAccelerometerUpdateh7vector3IiEbd) for [Anonymous Symbol]
    sensors.o(.text._Z24IMUAccelerometerUpdateTCh7vector3IiEbdd) refers to sensors.o(.text._ZN7vector3IiEC2Eiii) for vector3<int>::vector3__sub_object(int, int, int)
    sensors.o(.text._Z24IMUAccelerometerUpdateTCh7vector3IiEbdd) refers to sensors.o(.text._ZN7vector3IdEC2Eddd) for vector3<double>::vector3__sub_object(double, double, double)
    sensors.o(.text._Z24IMUAccelerometerUpdateTCh7vector3IiEbdd) refers to sensors.o(.bss._ZL19AccelerometersMutex) for _ZL19AccelerometersMutex
    sensors.o(.text._Z24IMUAccelerometerUpdateTCh7vector3IiEbdd) refers to queue.o(.text.xQueueSemaphoreTake) for xQueueSemaphoreTake
    sensors.o(.text._Z24IMUAccelerometerUpdateTCh7vector3IiEbdd) refers to sensors.o(.bss._ZL14Accelerometers) for _ZL14Accelerometers
    sensors.o(.text._Z24IMUAccelerometerUpdateTCh7vector3IiEbdd) refers to queue.o(.text.xQueueGenericSend) for xQueueGenericSend
    sensors.o(.text._Z24IMUAccelerometerUpdateTCh7vector3IiEbdd) refers to sensors.o(.rodata.str1.1) for .L.str
    sensors.o(.text._Z24IMUAccelerometerUpdateTCh7vector3IiEbdd) refers to ms_attitude.o(.text._ZN5SNameC2EPKc) for SName::SName__sub_object(const char*)
    sensors.o(.text._Z24IMUAccelerometerUpdateTCh7vector3IiEbdd) refers to sensors.o(.text._ZN5SNameplERKS_) for SName::operator +(const SName&)
    sensors.o(.text._Z24IMUAccelerometerUpdateTCh7vector3IiEbdd) refers to parameters.o(.text._Z14ReadParamGroup5SNamePyPbd) for ReadParamGroup(SName, unsigned long long*, bool*, double)
    sensors.o(.text._Z24IMUAccelerometerUpdateTCh7vector3IiEbdd) refers to sensors.o(.text._ZN7vector3IiE10set_vectorEiii) for vector3<int>::set_vector(int, int, int)
    sensors.o(.text._Z24IMUAccelerometerUpdateTCh7vector3IiEbdd) refers to sensors.o(.text._ZN7vector3IdE10set_vectorEddd) for vector3<double>::set_vector(double, double, double)
    sensors.o(.text._Z24IMUAccelerometerUpdateTCh7vector3IiEbdd) refers to sensors.o(.text._ZN4TIME16get_pass_time_stEv) for TIME::get_pass_time_st()
    sensors.o(.text._Z24IMUAccelerometerUpdateTCh7vector3IiEbdd) refers to sensors.o(.text._ZN7vector3IiEaSERKS0_) for vector3<int>::operator =(const vector3<int>&)
    sensors.o(.ARM.exidx.text._Z24IMUAccelerometerUpdateTCh7vector3IiEbdd) refers to sensors.o(.text._Z24IMUAccelerometerUpdateTCh7vector3IiEbdd) for [Anonymous Symbol]
    sensors.o(.text._Z18IMUGyroscopeUpdateh7vector3IiEbd) refers to sensors.o(.text._ZN7vector3IdEC2Eddd) for vector3<double>::vector3__sub_object(double, double, double)
    sensors.o(.text._Z18IMUGyroscopeUpdateh7vector3IiEbd) refers to sensors.o(.bss._ZL15GyroscopesMutex) for _ZL15GyroscopesMutex
    sensors.o(.text._Z18IMUGyroscopeUpdateh7vector3IiEbd) refers to queue.o(.text.xQueueSemaphoreTake) for xQueueSemaphoreTake
    sensors.o(.text._Z18IMUGyroscopeUpdateh7vector3IiEbd) refers to sensors.o(.bss._ZL10Gyroscopes) for _ZL10Gyroscopes
    sensors.o(.text._Z18IMUGyroscopeUpdateh7vector3IiEbd) refers to queue.o(.text.xQueueGenericSend) for xQueueGenericSend
    sensors.o(.text._Z18IMUGyroscopeUpdateh7vector3IiEbd) refers to sensors.o(.rodata.str1.1) for .L.str.3
    sensors.o(.text._Z18IMUGyroscopeUpdateh7vector3IiEbd) refers to ms_attitude.o(.text._ZN5SNameC2EPKc) for SName::SName__sub_object(const char*)
    sensors.o(.text._Z18IMUGyroscopeUpdateh7vector3IiEbd) refers to sensors.o(.text._ZN5SNameplERKS_) for SName::operator +(const SName&)
    sensors.o(.text._Z18IMUGyroscopeUpdateh7vector3IiEbd) refers to parameters.o(.text._Z14ReadParamGroup5SNamePyPbd) for ReadParamGroup(SName, unsigned long long*, bool*, double)
    sensors.o(.text._Z18IMUGyroscopeUpdateh7vector3IiEbd) refers to sensors.o(.text._ZN7vector3IdE10set_vectorEddd) for vector3<double>::set_vector(double, double, double)
    sensors.o(.text._Z18IMUGyroscopeUpdateh7vector3IiEbd) refers to sensors.o(.text._ZN4TIME16get_pass_time_stEv) for TIME::get_pass_time_st()
    sensors.o(.text._Z18IMUGyroscopeUpdateh7vector3IiEbd) refers to sensors.o(.text._ZN7vector3IiEaSERKS0_) for vector3<int>::operator =(const vector3<int>&)
    sensors.o(.ARM.exidx.text._Z18IMUGyroscopeUpdateh7vector3IiEbd) refers to sensors.o(.text._Z18IMUGyroscopeUpdateh7vector3IiEbd) for [Anonymous Symbol]
    sensors.o(.text._Z20IMUGyroscopeUpdateTCh7vector3IiEbdd) refers to sensors.o(.text._ZN7vector3IdEC2Eddd) for vector3<double>::vector3__sub_object(double, double, double)
    sensors.o(.text._Z20IMUGyroscopeUpdateTCh7vector3IiEbdd) refers to sensors.o(.bss._ZL15GyroscopesMutex) for _ZL15GyroscopesMutex
    sensors.o(.text._Z20IMUGyroscopeUpdateTCh7vector3IiEbdd) refers to queue.o(.text.xQueueSemaphoreTake) for xQueueSemaphoreTake
    sensors.o(.text._Z20IMUGyroscopeUpdateTCh7vector3IiEbdd) refers to sensors.o(.bss._ZL10Gyroscopes) for _ZL10Gyroscopes
    sensors.o(.text._Z20IMUGyroscopeUpdateTCh7vector3IiEbdd) refers to queue.o(.text.xQueueGenericSend) for xQueueGenericSend
    sensors.o(.text._Z20IMUGyroscopeUpdateTCh7vector3IiEbdd) refers to sensors.o(.rodata.str1.1) for .L.str.3
    sensors.o(.text._Z20IMUGyroscopeUpdateTCh7vector3IiEbdd) refers to ms_attitude.o(.text._ZN5SNameC2EPKc) for SName::SName__sub_object(const char*)
    sensors.o(.text._Z20IMUGyroscopeUpdateTCh7vector3IiEbdd) refers to sensors.o(.text._ZN5SNameplERKS_) for SName::operator +(const SName&)
    sensors.o(.text._Z20IMUGyroscopeUpdateTCh7vector3IiEbdd) refers to parameters.o(.text._Z14ReadParamGroup5SNamePyPbd) for ReadParamGroup(SName, unsigned long long*, bool*, double)
    sensors.o(.text._Z20IMUGyroscopeUpdateTCh7vector3IiEbdd) refers to sensors.o(.text._ZN7vector3IdE10set_vectorEddd) for vector3<double>::set_vector(double, double, double)
    sensors.o(.text._Z20IMUGyroscopeUpdateTCh7vector3IiEbdd) refers to sensors.o(.text._ZN4TIME16get_pass_time_stEv) for TIME::get_pass_time_st()
    sensors.o(.text._Z20IMUGyroscopeUpdateTCh7vector3IiEbdd) refers to sensors.o(.text._ZN7vector3IiEaSERKS0_) for vector3<int>::operator =(const vector3<int>&)
    sensors.o(.ARM.exidx.text._Z20IMUGyroscopeUpdateTCh7vector3IiEbdd) refers to sensors.o(.text._Z20IMUGyroscopeUpdateTCh7vector3IiEbdd) for [Anonymous Symbol]
    sensors.o(.text._Z21IMUMagnetometerUpdateh7vector3IiEbd) refers to sensors.o(.text._ZN7vector3IdEC2Eddd) for vector3<double>::vector3__sub_object(double, double, double)
    sensors.o(.text._Z21IMUMagnetometerUpdateh7vector3IiEbd) refers to sensors.o(.bss._ZL18MagnetometersMutex) for _ZL18MagnetometersMutex
    sensors.o(.text._Z21IMUMagnetometerUpdateh7vector3IiEbd) refers to queue.o(.text.xQueueSemaphoreTake) for xQueueSemaphoreTake
    sensors.o(.text._Z21IMUMagnetometerUpdateh7vector3IiEbd) refers to sensors.o(.bss._ZL13Magnetometers) for _ZL13Magnetometers
    sensors.o(.text._Z21IMUMagnetometerUpdateh7vector3IiEbd) refers to queue.o(.text.xQueueGenericSend) for xQueueGenericSend
    sensors.o(.text._Z21IMUMagnetometerUpdateh7vector3IiEbd) refers to sensors.o(.rodata.str1.1) for .L.str.4
    sensors.o(.text._Z21IMUMagnetometerUpdateh7vector3IiEbd) refers to ms_attitude.o(.text._ZN5SNameC2EPKc) for SName::SName__sub_object(const char*)
    sensors.o(.text._Z21IMUMagnetometerUpdateh7vector3IiEbd) refers to sensors.o(.text._ZN5SNameplERKS_) for SName::operator +(const SName&)
    sensors.o(.text._Z21IMUMagnetometerUpdateh7vector3IiEbd) refers to parameters.o(.text._Z14ReadParamGroup5SNamePyPbd) for ReadParamGroup(SName, unsigned long long*, bool*, double)
    sensors.o(.text._Z21IMUMagnetometerUpdateh7vector3IiEbd) refers to sensors.o(.text._ZN7vector3IdE10set_vectorEddd) for vector3<double>::set_vector(double, double, double)
    sensors.o(.text._Z21IMUMagnetometerUpdateh7vector3IiEbd) refers to sensors.o(.text._ZN4TIME16get_pass_time_stEv) for TIME::get_pass_time_st()
    sensors.o(.text._Z21IMUMagnetometerUpdateh7vector3IiEbd) refers to sensors.o(.text._ZN7vector3IiEaSERKS0_) for vector3<int>::operator =(const vector3<int>&)
    sensors.o(.ARM.exidx.text._Z21IMUMagnetometerUpdateh7vector3IiEbd) refers to sensors.o(.text._Z21IMUMagnetometerUpdateh7vector3IiEbd) for [Anonymous Symbol]
    sensors.o(.text._Z23IMUMagnetometerUpdateTCh7vector3IiEbdd) refers to sensors.o(.text._ZN7vector3IdEC2Eddd) for vector3<double>::vector3__sub_object(double, double, double)
    sensors.o(.text._Z23IMUMagnetometerUpdateTCh7vector3IiEbdd) refers to sensors.o(.bss._ZL18MagnetometersMutex) for _ZL18MagnetometersMutex
    sensors.o(.text._Z23IMUMagnetometerUpdateTCh7vector3IiEbdd) refers to queue.o(.text.xQueueSemaphoreTake) for xQueueSemaphoreTake
    sensors.o(.text._Z23IMUMagnetometerUpdateTCh7vector3IiEbdd) refers to sensors.o(.bss._ZL13Magnetometers) for _ZL13Magnetometers
    sensors.o(.text._Z23IMUMagnetometerUpdateTCh7vector3IiEbdd) refers to queue.o(.text.xQueueGenericSend) for xQueueGenericSend
    sensors.o(.text._Z23IMUMagnetometerUpdateTCh7vector3IiEbdd) refers to sensors.o(.rodata.str1.1) for .L.str.4
    sensors.o(.text._Z23IMUMagnetometerUpdateTCh7vector3IiEbdd) refers to ms_attitude.o(.text._ZN5SNameC2EPKc) for SName::SName__sub_object(const char*)
    sensors.o(.text._Z23IMUMagnetometerUpdateTCh7vector3IiEbdd) refers to sensors.o(.text._ZN5SNameplERKS_) for SName::operator +(const SName&)
    sensors.o(.text._Z23IMUMagnetometerUpdateTCh7vector3IiEbdd) refers to parameters.o(.text._Z14ReadParamGroup5SNamePyPbd) for ReadParamGroup(SName, unsigned long long*, bool*, double)
    sensors.o(.text._Z23IMUMagnetometerUpdateTCh7vector3IiEbdd) refers to sensors.o(.text._ZN7vector3IdE10set_vectorEddd) for vector3<double>::set_vector(double, double, double)
    sensors.o(.text._Z23IMUMagnetometerUpdateTCh7vector3IiEbdd) refers to sensors.o(.text._ZN4TIME16get_pass_time_stEv) for TIME::get_pass_time_st()
    sensors.o(.text._Z23IMUMagnetometerUpdateTCh7vector3IiEbdd) refers to sensors.o(.text._ZN7vector3IiEaSERKS0_) for vector3<int>::operator =(const vector3<int>&)
    sensors.o(.ARM.exidx.text._Z23IMUMagnetometerUpdateTCh7vector3IiEbdd) refers to sensors.o(.text._Z23IMUMagnetometerUpdateTCh7vector3IiEbdd) for [Anonymous Symbol]
    sensors.o(.text._Z16GetAccelerometerhP10IMU_Sensord) refers to sensors.o(.bss._ZL19AccelerometersMutex) for _ZL19AccelerometersMutex
    sensors.o(.text._Z16GetAccelerometerhP10IMU_Sensord) refers to queue.o(.text.xQueueSemaphoreTake) for xQueueSemaphoreTake
    sensors.o(.text._Z16GetAccelerometerhP10IMU_Sensord) refers to sensors.o(.bss._ZL14Accelerometers) for _ZL14Accelerometers
    sensors.o(.text._Z16GetAccelerometerhP10IMU_Sensord) refers to queue.o(.text.xQueueGenericSend) for xQueueGenericSend
    sensors.o(.text._Z16GetAccelerometerhP10IMU_Sensord) refers to sensors.o(.text._ZN10IMU_SensoraSERKS_) for IMU_Sensor::operator =(const IMU_Sensor&)
    sensors.o(.ARM.exidx.text._Z16GetAccelerometerhP10IMU_Sensord) refers to sensors.o(.text._Z16GetAccelerometerhP10IMU_Sensord) for [Anonymous Symbol]
    sensors.o(.text._Z12GetGyroscopehP10IMU_Sensord) refers to sensors.o(.bss._ZL15GyroscopesMutex) for _ZL15GyroscopesMutex
    sensors.o(.text._Z12GetGyroscopehP10IMU_Sensord) refers to queue.o(.text.xQueueSemaphoreTake) for xQueueSemaphoreTake
    sensors.o(.text._Z12GetGyroscopehP10IMU_Sensord) refers to sensors.o(.bss._ZL10Gyroscopes) for _ZL10Gyroscopes
    sensors.o(.text._Z12GetGyroscopehP10IMU_Sensord) refers to queue.o(.text.xQueueGenericSend) for xQueueGenericSend
    sensors.o(.text._Z12GetGyroscopehP10IMU_Sensord) refers to sensors.o(.text._ZN10IMU_SensoraSERKS_) for IMU_Sensor::operator =(const IMU_Sensor&)
    sensors.o(.ARM.exidx.text._Z12GetGyroscopehP10IMU_Sensord) refers to sensors.o(.text._Z12GetGyroscopehP10IMU_Sensord) for [Anonymous Symbol]
    sensors.o(.text._Z15GetMagnetometerhP10IMU_Sensord) refers to sensors.o(.bss._ZL18MagnetometersMutex) for _ZL18MagnetometersMutex
    sensors.o(.text._Z15GetMagnetometerhP10IMU_Sensord) refers to queue.o(.text.xQueueSemaphoreTake) for xQueueSemaphoreTake
    sensors.o(.text._Z15GetMagnetometerhP10IMU_Sensord) refers to sensors.o(.bss._ZL13Magnetometers) for _ZL13Magnetometers
    sensors.o(.text._Z15GetMagnetometerhP10IMU_Sensord) refers to queue.o(.text.xQueueGenericSend) for xQueueGenericSend
    sensors.o(.text._Z15GetMagnetometerhP10IMU_Sensord) refers to sensors.o(.text._ZN10IMU_SensoraSERKS_) for IMU_Sensor::operator =(const IMU_Sensor&)
    sensors.o(.ARM.exidx.text._Z15GetMagnetometerhP10IMU_Sensord) refers to sensors.o(.text._Z15GetMagnetometerhP10IMU_Sensord) for [Anonymous Symbol]
    sensors.o(.text._Z22PositionSensorRegisterh20Position_Sensor_Type24Position_Sensor_DataType21Position_Sensor_framedddPKdd) refers to sdstorage.o(.text._ZN10QuaternionC2Ev) for Quaternion::Quaternion__sub_object()
    sensors.o(.text._Z22PositionSensorRegisterh20Position_Sensor_Type24Position_Sensor_DataType21Position_Sensor_framedddPKdd) refers to ms_attitude.o(.text._Z18get_AirframeY_quatP10Quaterniond) for get_AirframeY_quat(Quaternion*, double)
    sensors.o(.text._Z22PositionSensorRegisterh20Position_Sensor_Type24Position_Sensor_DataType21Position_Sensor_framedddPKdd) refers to sensors.o(.bss._ZL22Position_Sensors_Mutex) for _ZL22Position_Sensors_Mutex
    sensors.o(.text._Z22PositionSensorRegisterh20Position_Sensor_Type24Position_Sensor_DataType21Position_Sensor_framedddPKdd) refers to queue.o(.text.xQueueSemaphoreTake) for xQueueSemaphoreTake
    sensors.o(.text._Z22PositionSensorRegisterh20Position_Sensor_Type24Position_Sensor_DataType21Position_Sensor_framedddPKdd) refers to sensors.o(.bss._ZL16Position_Sensors) for _ZL16Position_Sensors
    sensors.o(.text._Z22PositionSensorRegisterh20Position_Sensor_Type24Position_Sensor_DataType21Position_Sensor_framedddPKdd) refers to queue.o(.text.xQueueGenericSend) for xQueueGenericSend
    sensors.o(.text._Z22PositionSensorRegisterh20Position_Sensor_Type24Position_Sensor_DataType21Position_Sensor_framedddPKdd) refers to basic.o(.text._Znwj) for operator new(unsigned)
    sensors.o(.text._Z22PositionSensorRegisterh20Position_Sensor_Type24Position_Sensor_DataType21Position_Sensor_framedddPKdd) refers to gui.o(.text._ZN15Position_SensorC2Ev) for Position_Sensor::Position_Sensor__sub_object()
    sensors.o(.text._Z22PositionSensorRegisterh20Position_Sensor_Type24Position_Sensor_DataType21Position_Sensor_framedddPKdd) refers to timebase.o(.text._ZN4TIME3nowEv) for TIME::now()
    sensors.o(.text._Z22PositionSensorRegisterh20Position_Sensor_Type24Position_Sensor_DataType21Position_Sensor_framedddPKdd) refers to sdstorage.o(.text._ZN4TIMEaSERKS_) for TIME::operator =(const TIME&)
    sensors.o(.text._Z22PositionSensorRegisterh20Position_Sensor_Type24Position_Sensor_DataType21Position_Sensor_framedddPKdd) refers to rt_memclr_w.o(.text) for __aeabi_memclr8
    sensors.o(.ARM.exidx.text._Z22PositionSensorRegisterh20Position_Sensor_Type24Position_Sensor_DataType21Position_Sensor_framedddPKdd) refers to sensors.o(.text._Z22PositionSensorRegisterh20Position_Sensor_Type24Position_Sensor_DataType21Position_Sensor_framedddPKdd) for [Anonymous Symbol]
    sensors.o(.text._Z24PositionSensorUnRegisterhd) refers to sensors.o(.bss._ZL22Position_Sensors_Mutex) for _ZL22Position_Sensors_Mutex
    sensors.o(.text._Z24PositionSensorUnRegisterhd) refers to queue.o(.text.xQueueSemaphoreTake) for xQueueSemaphoreTake
    sensors.o(.text._Z24PositionSensorUnRegisterhd) refers to sensors.o(.bss._ZL16Position_Sensors) for _ZL16Position_Sensors
    sensors.o(.text._Z24PositionSensorUnRegisterhd) refers to queue.o(.text.xQueueGenericSend) for xQueueGenericSend
    sensors.o(.text._Z24PositionSensorUnRegisterhd) refers to basic.o(.text._ZdlPv) for operator delete (void*)
    sensors.o(.ARM.exidx.text._Z24PositionSensorUnRegisterhd) refers to sensors.o(.text._Z24PositionSensorUnRegisterhd) for [Anonymous Symbol]
    sensors.o(.text._Z28PositionSensorChangeDataTypeh24Position_Sensor_DataTyped) refers to sensors.o(.bss._ZL22Position_Sensors_Mutex) for _ZL22Position_Sensors_Mutex
    sensors.o(.text._Z28PositionSensorChangeDataTypeh24Position_Sensor_DataTyped) refers to queue.o(.text.xQueueSemaphoreTake) for xQueueSemaphoreTake
    sensors.o(.text._Z28PositionSensorChangeDataTypeh24Position_Sensor_DataTyped) refers to sensors.o(.bss._ZL16Position_Sensors) for _ZL16Position_Sensors
    sensors.o(.text._Z28PositionSensorChangeDataTypeh24Position_Sensor_DataTyped) refers to queue.o(.text.xQueueGenericSend) for xQueueGenericSend
    sensors.o(.ARM.exidx.text._Z28PositionSensorChangeDataTypeh24Position_Sensor_DataTyped) refers to sensors.o(.text._Z28PositionSensorChangeDataTypeh24Position_Sensor_DataTyped) for [Anonymous Symbol]
    sensors.o(.text._Z28PositionSensorSetInavailablehPKdd) refers to ctrl_attitude.o(.text._Z15get_is_inFlightPbd) for get_is_inFlight(bool*, double)
    sensors.o(.text._Z28PositionSensorSetInavailablehPKdd) refers to sensors.o(.rodata.str1.1) for .L.str.5
    sensors.o(.text._Z28PositionSensorSetInavailablehPKdd) refers to ms_attitude.o(.text._ZN5SNameC2EPKc) for SName::SName__sub_object(const char*)
    sensors.o(.text._Z28PositionSensorSetInavailablehPKdd) refers to parameters.o(.text._Z9ReadParam5SNamePjP14MAV_PARAM_TYPEPyPbd) for ReadParam(SName, unsigned*, MAV_PARAM_TYPE*, unsigned long long*, bool*, double)
    sensors.o(.text._Z28PositionSensorSetInavailablehPKdd) refers to sdstorage.o(.text._ZN10QuaternionC2Ev) for Quaternion::Quaternion__sub_object()
    sensors.o(.text._Z28PositionSensorSetInavailablehPKdd) refers to ms_attitude.o(.text._Z18get_AirframeY_quatP10Quaterniond) for get_AirframeY_quat(Quaternion*, double)
    sensors.o(.text._Z28PositionSensorSetInavailablehPKdd) refers to sensors.o(.bss._ZL22Position_Sensors_Mutex) for _ZL22Position_Sensors_Mutex
    sensors.o(.text._Z28PositionSensorSetInavailablehPKdd) refers to queue.o(.text.xQueueSemaphoreTake) for xQueueSemaphoreTake
    sensors.o(.text._Z28PositionSensorSetInavailablehPKdd) refers to sensors.o(.bss._ZL16Position_Sensors) for _ZL16Position_Sensors
    sensors.o(.text._Z28PositionSensorSetInavailablehPKdd) refers to queue.o(.text.xQueueGenericSend) for xQueueGenericSend
    sensors.o(.text._Z28PositionSensorSetInavailablehPKdd) refers to timebase.o(.text._ZN4TIME3nowEv) for TIME::now()
    sensors.o(.text._Z28PositionSensorSetInavailablehPKdd) refers to sdstorage.o(.text._ZN4TIMEaSERKS_) for TIME::operator =(const TIME&)
    sensors.o(.text._Z28PositionSensorSetInavailablehPKdd) refers to sensors.o(.text._ZN4TIME16get_pass_time_stEv) for TIME::get_pass_time_st()
    sensors.o(.text._Z28PositionSensorSetInavailablehPKdd) refers to rt_memcpy_w.o(.text) for __aeabi_memcpy8
    sensors.o(.text._Z28PositionSensorSetInavailablehPKdd) refers to sdstorage.o(.text._Z19SDLog_Msg_PosSensorh15Position_Sensord) for SDLog_Msg_PosSensor(unsigned char, Position_Sensor, double)
    sensors.o(.ARM.exidx.text._Z28PositionSensorSetInavailablehPKdd) refers to sensors.o(.text._Z28PositionSensorSetInavailablehPKdd) for [Anonymous Symbol]
    sensors.o(.text._Z34PositionSensorUpdatePositionGlobalh7vector3IdEbdddPKdd) refers to ctrl_attitude.o(.text._Z15get_is_inFlightPbd) for get_is_inFlight(bool*, double)
    sensors.o(.text._Z34PositionSensorUpdatePositionGlobalh7vector3IdEbdddPKdd) refers to sensors.o(.rodata.str1.1) for .L.str.5
    sensors.o(.text._Z34PositionSensorUpdatePositionGlobalh7vector3IdEbdddPKdd) refers to ms_attitude.o(.text._ZN5SNameC2EPKc) for SName::SName__sub_object(const char*)
    sensors.o(.text._Z34PositionSensorUpdatePositionGlobalh7vector3IdEbdddPKdd) refers to parameters.o(.text._Z9ReadParam5SNamePjP14MAV_PARAM_TYPEPyPbd) for ReadParam(SName, unsigned*, MAV_PARAM_TYPE*, unsigned long long*, bool*, double)
    sensors.o(.text._Z34PositionSensorUpdatePositionGlobalh7vector3IdEbdddPKdd) refers to sensors.o(.text._ZN5SNameplERKS_) for SName::operator +(const SName&)
    sensors.o(.text._Z34PositionSensorUpdatePositionGlobalh7vector3IdEbdddPKdd) refers to sensors.o(.bss._ZL22Position_Sensors_Mutex) for _ZL22Position_Sensors_Mutex
    sensors.o(.text._Z34PositionSensorUpdatePositionGlobalh7vector3IdEbdddPKdd) refers to queue.o(.text.xQueueSemaphoreTake) for xQueueSemaphoreTake
    sensors.o(.text._Z34PositionSensorUpdatePositionGlobalh7vector3IdEbdddPKdd) refers to sensors.o(.bss._ZL16Position_Sensors) for _ZL16Position_Sensors
    sensors.o(.text._Z34PositionSensorUpdatePositionGlobalh7vector3IdEbdddPKdd) refers to queue.o(.text.xQueueGenericSend) for xQueueGenericSend
    sensors.o(.text._Z34PositionSensorUpdatePositionGlobalh7vector3IdEbdddPKdd) refers to sdstorage.o(.text._ZN10QuaternionC2Ev) for Quaternion::Quaternion__sub_object()
    sensors.o(.text._Z34PositionSensorUpdatePositionGlobalh7vector3IdEbdddPKdd) refers to ms_attitude.o(.text._Z25get_history_AirframeQuatYP10Quaterniondd) for get_history_AirframeQuatY(Quaternion*, double, double)
    sensors.o(.text._Z34PositionSensorUpdatePositionGlobalh7vector3IdEbdddPKdd) refers to sensors.o(.text.__ARM_isnan) for __ARM_isnan
    sensors.o(.text._Z34PositionSensorUpdatePositionGlobalh7vector3IdEbdddPKdd) refers to sensors.o(.text.__ARM_isinf) for __ARM_isinf
    sensors.o(.text._Z34PositionSensorUpdatePositionGlobalh7vector3IdEbdddPKdd) refers to timebase.o(.text._ZN4TIME3nowEv) for TIME::now()
    sensors.o(.text._Z34PositionSensorUpdatePositionGlobalh7vector3IdEbdddPKdd) refers to sdstorage.o(.text._ZN4TIMEaSERKS_) for TIME::operator =(const TIME&)
    sensors.o(.text._Z34PositionSensorUpdatePositionGlobalh7vector3IdEbdddPKdd) refers to sensors.o(.text._ZN4TIME16get_pass_time_stEv) for TIME::get_pass_time_st()
    sensors.o(.text._Z34PositionSensorUpdatePositionGlobalh7vector3IdEbdddPKdd) refers to sensors.o(.text._ZN7vector3IdEaSERKS0_) for vector3<double>::operator =(const vector3<double>&)
    sensors.o(.text._Z34PositionSensorUpdatePositionGlobalh7vector3IdEbdddPKdd) refers to sensors.o(.text._ZL19map_projection_initP14Map_Projectiondd) for _ZL19map_projection_initP14Map_Projectiondd
    sensors.o(.text._Z34PositionSensorUpdatePositionGlobalh7vector3IdEbdddPKdd) refers to sensors.o(.text._ZL22map_projection_projectPK14Map_ProjectionddPdS2_) for _ZL22map_projection_projectPK14Map_ProjectionddPdS2_
    sensors.o(.text._Z34PositionSensorUpdatePositionGlobalh7vector3IdEbdddPKdd) refers to sensors.o(.text._ZN7vector3IdEC2Eddd) for vector3<double>::vector3__sub_object(double, double, double)
    sensors.o(.text._Z34PositionSensorUpdatePositionGlobalh7vector3IdEbdddPKdd) refers to sensors.o(.text._ZNK10Quaternion6rotateE7vector3IdE) for Quaternion::rotate(vector3<double>) const
    sensors.o(.text._Z34PositionSensorUpdatePositionGlobalh7vector3IdEbdddPKdd) refers to rt_memcpy_w.o(.text) for __aeabi_memcpy8
    sensors.o(.text._Z34PositionSensorUpdatePositionGlobalh7vector3IdEbdddPKdd) refers to sdstorage.o(.text._Z19SDLog_Msg_PosSensorh15Position_Sensord) for SDLog_Msg_PosSensor(unsigned char, Position_Sensor, double)
    sensors.o(.ARM.exidx.text._Z34PositionSensorUpdatePositionGlobalh7vector3IdEbdddPKdd) refers to sensors.o(.text._Z34PositionSensorUpdatePositionGlobalh7vector3IdEbdddPKdd) for [Anonymous Symbol]
    sensors.o(.text._ZL19map_projection_initP14Map_Projectiondd) refers to sensors.o(.text._Z10degree2radd) for degree2rad(double)
    sensors.o(.ARM.exidx.text._ZL19map_projection_initP14Map_Projectiondd) refers to sensors.o(.text._ZL19map_projection_initP14Map_Projectiondd) for [Anonymous Symbol]
    sensors.o(.text._ZL22map_projection_projectPK14Map_ProjectionddPdS2_) refers to sensors.o(.text._Z10degree2radd) for degree2rad(double)
    sensors.o(.text._ZL22map_projection_projectPK14Map_ProjectionddPdS2_) refers to cos.o(i.__hardfp_cos) for __hardfp_cos
    sensors.o(.ARM.exidx.text._ZL22map_projection_projectPK14Map_ProjectionddPdS2_) refers to sensors.o(.text._ZL22map_projection_projectPK14Map_ProjectionddPdS2_) for [Anonymous Symbol]
    sensors.o(.text._Z28PositionSensorUpdatePositionh7vector3IdEbdddPKdd) refers to ctrl_attitude.o(.text._Z15get_is_inFlightPbd) for get_is_inFlight(bool*, double)
    sensors.o(.text._Z28PositionSensorUpdatePositionh7vector3IdEbdddPKdd) refers to sensors.o(.rodata.str1.1) for .L.str.5
    sensors.o(.text._Z28PositionSensorUpdatePositionh7vector3IdEbdddPKdd) refers to ms_attitude.o(.text._ZN5SNameC2EPKc) for SName::SName__sub_object(const char*)
    sensors.o(.text._Z28PositionSensorUpdatePositionh7vector3IdEbdddPKdd) refers to parameters.o(.text._Z9ReadParam5SNamePjP14MAV_PARAM_TYPEPyPbd) for ReadParam(SName, unsigned*, MAV_PARAM_TYPE*, unsigned long long*, bool*, double)
    sensors.o(.text._Z28PositionSensorUpdatePositionh7vector3IdEbdddPKdd) refers to sensors.o(.text._ZN5SNameplERKS_) for SName::operator +(const SName&)
    sensors.o(.text._Z28PositionSensorUpdatePositionh7vector3IdEbdddPKdd) refers to sensors.o(.bss._ZL22Position_Sensors_Mutex) for _ZL22Position_Sensors_Mutex
    sensors.o(.text._Z28PositionSensorUpdatePositionh7vector3IdEbdddPKdd) refers to queue.o(.text.xQueueSemaphoreTake) for xQueueSemaphoreTake
    sensors.o(.text._Z28PositionSensorUpdatePositionh7vector3IdEbdddPKdd) refers to sensors.o(.bss._ZL16Position_Sensors) for _ZL16Position_Sensors
    sensors.o(.text._Z28PositionSensorUpdatePositionh7vector3IdEbdddPKdd) refers to queue.o(.text.xQueueGenericSend) for xQueueGenericSend
    sensors.o(.text._Z28PositionSensorUpdatePositionh7vector3IdEbdddPKdd) refers to sdstorage.o(.text._ZN10QuaternionC2Ev) for Quaternion::Quaternion__sub_object()
    sensors.o(.text._Z28PositionSensorUpdatePositionh7vector3IdEbdddPKdd) refers to ms_attitude.o(.text._Z25get_history_AirframeQuatYP10Quaterniondd) for get_history_AirframeQuatY(Quaternion*, double, double)
    sensors.o(.text._Z28PositionSensorUpdatePositionh7vector3IdEbdddPKdd) refers to sensors.o(.text.__ARM_isnan) for __ARM_isnan
    sensors.o(.text._Z28PositionSensorUpdatePositionh7vector3IdEbdddPKdd) refers to sensors.o(.text.__ARM_isinf) for __ARM_isinf
    sensors.o(.text._Z28PositionSensorUpdatePositionh7vector3IdEbdddPKdd) refers to timebase.o(.text._ZN4TIME3nowEv) for TIME::now()
    sensors.o(.text._Z28PositionSensorUpdatePositionh7vector3IdEbdddPKdd) refers to sdstorage.o(.text._ZN4TIMEaSERKS_) for TIME::operator =(const TIME&)
    sensors.o(.text._Z28PositionSensorUpdatePositionh7vector3IdEbdddPKdd) refers to sensors.o(.text._ZN4TIME16get_pass_time_stEv) for TIME::get_pass_time_st()
    sensors.o(.text._Z28PositionSensorUpdatePositionh7vector3IdEbdddPKdd) refers to sensors.o(.text._ZN7vector3IdEC2Eddd) for vector3<double>::vector3__sub_object(double, double, double)
    sensors.o(.text._Z28PositionSensorUpdatePositionh7vector3IdEbdddPKdd) refers to sensors.o(.text._ZNK10Quaternion6rotateE7vector3IdE) for Quaternion::rotate(vector3<double>) const
    sensors.o(.text._Z28PositionSensorUpdatePositionh7vector3IdEbdddPKdd) refers to sensors.o(.text._ZNK7vector3IdEmiERKS0_) for vector3<double>::operator -(const vector3<double>&) const
    sensors.o(.text._Z28PositionSensorUpdatePositionh7vector3IdEbdddPKdd) refers to sensors.o(.text._ZN7vector3IdEaSERKS0_) for vector3<double>::operator =(const vector3<double>&)
    sensors.o(.text._Z28PositionSensorUpdatePositionh7vector3IdEbdddPKdd) refers to rt_memcpy_w.o(.text) for __aeabi_memcpy8
    sensors.o(.text._Z28PositionSensorUpdatePositionh7vector3IdEbdddPKdd) refers to sdstorage.o(.text._Z19SDLog_Msg_PosSensorh15Position_Sensord) for SDLog_Msg_PosSensor(unsigned char, Position_Sensor, double)
    sensors.o(.ARM.exidx.text._Z28PositionSensorUpdatePositionh7vector3IdEbdddPKdd) refers to sensors.o(.text._Z28PositionSensorUpdatePositionh7vector3IdEbdddPKdd) for [Anonymous Symbol]
    sensors.o(.text._Z37PositionSensorUpdatePositionGlobalVelh7vector3IdES0_bdddPKdd) refers to ctrl_attitude.o(.text._Z15get_is_inFlightPbd) for get_is_inFlight(bool*, double)
    sensors.o(.text._Z37PositionSensorUpdatePositionGlobalVelh7vector3IdES0_bdddPKdd) refers to sensors.o(.rodata.str1.1) for .L.str.5
    sensors.o(.text._Z37PositionSensorUpdatePositionGlobalVelh7vector3IdES0_bdddPKdd) refers to ms_attitude.o(.text._ZN5SNameC2EPKc) for SName::SName__sub_object(const char*)
    sensors.o(.text._Z37PositionSensorUpdatePositionGlobalVelh7vector3IdES0_bdddPKdd) refers to parameters.o(.text._Z9ReadParam5SNamePjP14MAV_PARAM_TYPEPyPbd) for ReadParam(SName, unsigned*, MAV_PARAM_TYPE*, unsigned long long*, bool*, double)
    sensors.o(.text._Z37PositionSensorUpdatePositionGlobalVelh7vector3IdES0_bdddPKdd) refers to sensors.o(.text._ZN5SNameplERKS_) for SName::operator +(const SName&)
    sensors.o(.text._Z37PositionSensorUpdatePositionGlobalVelh7vector3IdES0_bdddPKdd) refers to sensors.o(.bss._ZL22Position_Sensors_Mutex) for _ZL22Position_Sensors_Mutex
    sensors.o(.text._Z37PositionSensorUpdatePositionGlobalVelh7vector3IdES0_bdddPKdd) refers to queue.o(.text.xQueueSemaphoreTake) for xQueueSemaphoreTake
    sensors.o(.text._Z37PositionSensorUpdatePositionGlobalVelh7vector3IdES0_bdddPKdd) refers to sensors.o(.bss._ZL16Position_Sensors) for _ZL16Position_Sensors
    sensors.o(.text._Z37PositionSensorUpdatePositionGlobalVelh7vector3IdES0_bdddPKdd) refers to queue.o(.text.xQueueGenericSend) for xQueueGenericSend
    sensors.o(.text._Z37PositionSensorUpdatePositionGlobalVelh7vector3IdES0_bdddPKdd) refers to sdstorage.o(.text._ZN10QuaternionC2Ev) for Quaternion::Quaternion__sub_object()
    sensors.o(.text._Z37PositionSensorUpdatePositionGlobalVelh7vector3IdES0_bdddPKdd) refers to ms_attitude.o(.text._Z25get_history_AirframeQuatYP10Quaterniondd) for get_history_AirframeQuatY(Quaternion*, double, double)
    sensors.o(.text._Z37PositionSensorUpdatePositionGlobalVelh7vector3IdES0_bdddPKdd) refers to sensors.o(.text.__ARM_isnan) for __ARM_isnan
    sensors.o(.text._Z37PositionSensorUpdatePositionGlobalVelh7vector3IdES0_bdddPKdd) refers to sensors.o(.text.__ARM_isinf) for __ARM_isinf
    sensors.o(.text._Z37PositionSensorUpdatePositionGlobalVelh7vector3IdES0_bdddPKdd) refers to timebase.o(.text._ZN4TIME3nowEv) for TIME::now()
    sensors.o(.text._Z37PositionSensorUpdatePositionGlobalVelh7vector3IdES0_bdddPKdd) refers to sdstorage.o(.text._ZN4TIMEaSERKS_) for TIME::operator =(const TIME&)
    sensors.o(.text._Z37PositionSensorUpdatePositionGlobalVelh7vector3IdES0_bdddPKdd) refers to sensors.o(.text._ZN4TIME16get_pass_time_stEv) for TIME::get_pass_time_st()
    sensors.o(.text._Z37PositionSensorUpdatePositionGlobalVelh7vector3IdES0_bdddPKdd) refers to sensors.o(.text._ZN7vector3IdEaSERKS0_) for vector3<double>::operator =(const vector3<double>&)
    sensors.o(.text._Z37PositionSensorUpdatePositionGlobalVelh7vector3IdES0_bdddPKdd) refers to sensors.o(.text._ZN7vector3IdEC2Eddd) for vector3<double>::vector3__sub_object(double, double, double)
    sensors.o(.text._Z37PositionSensorUpdatePositionGlobalVelh7vector3IdES0_bdddPKdd) refers to sensors.o(.text._ZNK10Quaternion6rotateE7vector3IdE) for Quaternion::rotate(vector3<double>) const
    sensors.o(.text._Z37PositionSensorUpdatePositionGlobalVelh7vector3IdES0_bdddPKdd) refers to sdstorage.o(.text._ZN7vector3IdEC2Ev) for vector3<double>::vector3__sub_object()
    sensors.o(.text._Z37PositionSensorUpdatePositionGlobalVelh7vector3IdES0_bdddPKdd) refers to sensors.o(.text._ZNK7vector3IdEmiERKS0_) for vector3<double>::operator -(const vector3<double>&) const
    sensors.o(.text._Z37PositionSensorUpdatePositionGlobalVelh7vector3IdES0_bdddPKdd) refers to sensors.o(.text._ZNK10Quaternion11get_RP_quatEv) for Quaternion::get_RP_quat() const
    sensors.o(.text._Z37PositionSensorUpdatePositionGlobalVelh7vector3IdES0_bdddPKdd) refers to sensors.o(.text._ZNK7vector3IdEmlEd) for vector3<double>::operator *(double) const
    sensors.o(.text._Z37PositionSensorUpdatePositionGlobalVelh7vector3IdES0_bdddPKdd) refers to sensors.o(.text._ZL19map_projection_initP14Map_Projectiondd) for _ZL19map_projection_initP14Map_Projectiondd
    sensors.o(.text._Z37PositionSensorUpdatePositionGlobalVelh7vector3IdES0_bdddPKdd) refers to sensors.o(.text._ZL22map_projection_projectPK14Map_ProjectionddPdS2_) for _ZL22map_projection_projectPK14Map_ProjectionddPdS2_
    sensors.o(.text._Z37PositionSensorUpdatePositionGlobalVelh7vector3IdES0_bdddPKdd) refers to rt_memcpy_w.o(.text) for __aeabi_memcpy8
    sensors.o(.text._Z37PositionSensorUpdatePositionGlobalVelh7vector3IdES0_bdddPKdd) refers to sdstorage.o(.text._Z19SDLog_Msg_PosSensorh15Position_Sensord) for SDLog_Msg_PosSensor(unsigned char, Position_Sensor, double)
    sensors.o(.ARM.exidx.text._Z37PositionSensorUpdatePositionGlobalVelh7vector3IdES0_bdddPKdd) refers to sensors.o(.text._Z37PositionSensorUpdatePositionGlobalVelh7vector3IdES0_bdddPKdd) for [Anonymous Symbol]
    sensors.o(.text._Z31PositionSensorUpdatePositionVelh7vector3IdES0_bdddPKdd) refers to ctrl_attitude.o(.text._Z15get_is_inFlightPbd) for get_is_inFlight(bool*, double)
    sensors.o(.text._Z31PositionSensorUpdatePositionVelh7vector3IdES0_bdddPKdd) refers to sensors.o(.rodata.str1.1) for .L.str.5
    sensors.o(.text._Z31PositionSensorUpdatePositionVelh7vector3IdES0_bdddPKdd) refers to ms_attitude.o(.text._ZN5SNameC2EPKc) for SName::SName__sub_object(const char*)
    sensors.o(.text._Z31PositionSensorUpdatePositionVelh7vector3IdES0_bdddPKdd) refers to parameters.o(.text._Z9ReadParam5SNamePjP14MAV_PARAM_TYPEPyPbd) for ReadParam(SName, unsigned*, MAV_PARAM_TYPE*, unsigned long long*, bool*, double)
    sensors.o(.text._Z31PositionSensorUpdatePositionVelh7vector3IdES0_bdddPKdd) refers to sensors.o(.text._ZN5SNameplERKS_) for SName::operator +(const SName&)
    sensors.o(.text._Z31PositionSensorUpdatePositionVelh7vector3IdES0_bdddPKdd) refers to sensors.o(.bss._ZL22Position_Sensors_Mutex) for _ZL22Position_Sensors_Mutex
    sensors.o(.text._Z31PositionSensorUpdatePositionVelh7vector3IdES0_bdddPKdd) refers to queue.o(.text.xQueueSemaphoreTake) for xQueueSemaphoreTake
    sensors.o(.text._Z31PositionSensorUpdatePositionVelh7vector3IdES0_bdddPKdd) refers to sensors.o(.bss._ZL16Position_Sensors) for _ZL16Position_Sensors
    sensors.o(.text._Z31PositionSensorUpdatePositionVelh7vector3IdES0_bdddPKdd) refers to queue.o(.text.xQueueGenericSend) for xQueueGenericSend
    sensors.o(.text._Z31PositionSensorUpdatePositionVelh7vector3IdES0_bdddPKdd) refers to sdstorage.o(.text._ZN10QuaternionC2Ev) for Quaternion::Quaternion__sub_object()
    sensors.o(.text._Z31PositionSensorUpdatePositionVelh7vector3IdES0_bdddPKdd) refers to ms_attitude.o(.text._Z25get_history_AirframeQuatYP10Quaterniondd) for get_history_AirframeQuatY(Quaternion*, double, double)
    sensors.o(.text._Z31PositionSensorUpdatePositionVelh7vector3IdES0_bdddPKdd) refers to sensors.o(.text.__ARM_isnan) for __ARM_isnan
    sensors.o(.text._Z31PositionSensorUpdatePositionVelh7vector3IdES0_bdddPKdd) refers to sensors.o(.text.__ARM_isinf) for __ARM_isinf
    sensors.o(.text._Z31PositionSensorUpdatePositionVelh7vector3IdES0_bdddPKdd) refers to timebase.o(.text._ZN4TIME3nowEv) for TIME::now()
    sensors.o(.text._Z31PositionSensorUpdatePositionVelh7vector3IdES0_bdddPKdd) refers to sdstorage.o(.text._ZN4TIMEaSERKS_) for TIME::operator =(const TIME&)
    sensors.o(.text._Z31PositionSensorUpdatePositionVelh7vector3IdES0_bdddPKdd) refers to sensors.o(.text._ZN4TIME16get_pass_time_stEv) for TIME::get_pass_time_st()
    sensors.o(.text._Z31PositionSensorUpdatePositionVelh7vector3IdES0_bdddPKdd) refers to sensors.o(.text._ZN7vector3IdEC2Eddd) for vector3<double>::vector3__sub_object(double, double, double)
    sensors.o(.text._Z31PositionSensorUpdatePositionVelh7vector3IdES0_bdddPKdd) refers to sensors.o(.text._ZNK10Quaternion6rotateE7vector3IdE) for Quaternion::rotate(vector3<double>) const
    sensors.o(.text._Z31PositionSensorUpdatePositionVelh7vector3IdES0_bdddPKdd) refers to sdstorage.o(.text._ZN7vector3IdEC2Ev) for vector3<double>::vector3__sub_object()
    sensors.o(.text._Z31PositionSensorUpdatePositionVelh7vector3IdES0_bdddPKdd) refers to sensors.o(.text._ZNK7vector3IdEmiERKS0_) for vector3<double>::operator -(const vector3<double>&) const
    sensors.o(.text._Z31PositionSensorUpdatePositionVelh7vector3IdES0_bdddPKdd) refers to sensors.o(.text._ZN7vector3IdEaSERKS0_) for vector3<double>::operator =(const vector3<double>&)
    sensors.o(.text._Z31PositionSensorUpdatePositionVelh7vector3IdES0_bdddPKdd) refers to sensors.o(.text._ZNK10Quaternion11get_RP_quatEv) for Quaternion::get_RP_quat() const
    sensors.o(.text._Z31PositionSensorUpdatePositionVelh7vector3IdES0_bdddPKdd) refers to sensors.o(.text._ZNK7vector3IdEmlEd) for vector3<double>::operator *(double) const
    sensors.o(.text._Z31PositionSensorUpdatePositionVelh7vector3IdES0_bdddPKdd) refers to rt_memcpy_w.o(.text) for __aeabi_memcpy8
    sensors.o(.text._Z31PositionSensorUpdatePositionVelh7vector3IdES0_bdddPKdd) refers to sdstorage.o(.text._Z19SDLog_Msg_PosSensorh15Position_Sensord) for SDLog_Msg_PosSensor(unsigned char, Position_Sensor, double)
    sensors.o(.ARM.exidx.text._Z31PositionSensorUpdatePositionVelh7vector3IdES0_bdddPKdd) refers to sensors.o(.text._Z31PositionSensorUpdatePositionVelh7vector3IdES0_bdddPKdd) for [Anonymous Symbol]
    sensors.o(.text._Z23PositionSensorUpdateVelh7vector3IdEbdddPKdd) refers to ctrl_attitude.o(.text._Z15get_is_inFlightPbd) for get_is_inFlight(bool*, double)
    sensors.o(.text._Z23PositionSensorUpdateVelh7vector3IdEbdddPKdd) refers to sensors.o(.rodata.str1.1) for .L.str.5
    sensors.o(.text._Z23PositionSensorUpdateVelh7vector3IdEbdddPKdd) refers to ms_attitude.o(.text._ZN5SNameC2EPKc) for SName::SName__sub_object(const char*)
    sensors.o(.text._Z23PositionSensorUpdateVelh7vector3IdEbdddPKdd) refers to parameters.o(.text._Z9ReadParam5SNamePjP14MAV_PARAM_TYPEPyPbd) for ReadParam(SName, unsigned*, MAV_PARAM_TYPE*, unsigned long long*, bool*, double)
    sensors.o(.text._Z23PositionSensorUpdateVelh7vector3IdEbdddPKdd) refers to sensors.o(.text._ZN5SNameplERKS_) for SName::operator +(const SName&)
    sensors.o(.text._Z23PositionSensorUpdateVelh7vector3IdEbdddPKdd) refers to sensors.o(.bss._ZL22Position_Sensors_Mutex) for _ZL22Position_Sensors_Mutex
    sensors.o(.text._Z23PositionSensorUpdateVelh7vector3IdEbdddPKdd) refers to queue.o(.text.xQueueSemaphoreTake) for xQueueSemaphoreTake
    sensors.o(.text._Z23PositionSensorUpdateVelh7vector3IdEbdddPKdd) refers to sensors.o(.bss._ZL16Position_Sensors) for _ZL16Position_Sensors
    sensors.o(.text._Z23PositionSensorUpdateVelh7vector3IdEbdddPKdd) refers to queue.o(.text.xQueueGenericSend) for xQueueGenericSend
    sensors.o(.text._Z23PositionSensorUpdateVelh7vector3IdEbdddPKdd) refers to sdstorage.o(.text._ZN10QuaternionC2Ev) for Quaternion::Quaternion__sub_object()
    sensors.o(.text._Z23PositionSensorUpdateVelh7vector3IdEbdddPKdd) refers to ms_attitude.o(.text._Z25get_history_AirframeQuatYP10Quaterniondd) for get_history_AirframeQuatY(Quaternion*, double, double)
    sensors.o(.text._Z23PositionSensorUpdateVelh7vector3IdEbdddPKdd) refers to sensors.o(.text.__ARM_isnan) for __ARM_isnan
    sensors.o(.text._Z23PositionSensorUpdateVelh7vector3IdEbdddPKdd) refers to sensors.o(.text.__ARM_isinf) for __ARM_isinf
    sensors.o(.text._Z23PositionSensorUpdateVelh7vector3IdEbdddPKdd) refers to timebase.o(.text._ZN4TIME3nowEv) for TIME::now()
    sensors.o(.text._Z23PositionSensorUpdateVelh7vector3IdEbdddPKdd) refers to sdstorage.o(.text._ZN4TIMEaSERKS_) for TIME::operator =(const TIME&)
    sensors.o(.text._Z23PositionSensorUpdateVelh7vector3IdEbdddPKdd) refers to sensors.o(.text._ZN4TIME16get_pass_time_stEv) for TIME::get_pass_time_st()
    sensors.o(.text._Z23PositionSensorUpdateVelh7vector3IdEbdddPKdd) refers to sensors.o(.text._ZN7vector3IdEC2Eddd) for vector3<double>::vector3__sub_object(double, double, double)
    sensors.o(.text._Z23PositionSensorUpdateVelh7vector3IdEbdddPKdd) refers to sensors.o(.text._ZNK10Quaternion6rotateE7vector3IdE) for Quaternion::rotate(vector3<double>) const
    sensors.o(.text._Z23PositionSensorUpdateVelh7vector3IdEbdddPKdd) refers to sdstorage.o(.text._ZN7vector3IdEC2Ev) for vector3<double>::vector3__sub_object()
    sensors.o(.text._Z23PositionSensorUpdateVelh7vector3IdEbdddPKdd) refers to sensors.o(.text._ZNK7vector3IdEmiERKS0_) for vector3<double>::operator -(const vector3<double>&) const
    sensors.o(.text._Z23PositionSensorUpdateVelh7vector3IdEbdddPKdd) refers to sensors.o(.text._ZN7vector3IdEaSERKS0_) for vector3<double>::operator =(const vector3<double>&)
    sensors.o(.text._Z23PositionSensorUpdateVelh7vector3IdEbdddPKdd) refers to sensors.o(.text._ZNK10Quaternion11get_RP_quatEv) for Quaternion::get_RP_quat() const
    sensors.o(.text._Z23PositionSensorUpdateVelh7vector3IdEbdddPKdd) refers to sensors.o(.text._ZNK7vector3IdEmlEd) for vector3<double>::operator *(double) const
    sensors.o(.text._Z23PositionSensorUpdateVelh7vector3IdEbdddPKdd) refers to rt_memcpy_w.o(.text) for __aeabi_memcpy8
    sensors.o(.text._Z23PositionSensorUpdateVelh7vector3IdEbdddPKdd) refers to sdstorage.o(.text._Z19SDLog_Msg_PosSensorh15Position_Sensord) for SDLog_Msg_PosSensor(unsigned char, Position_Sensor, double)
    sensors.o(.ARM.exidx.text._Z23PositionSensorUpdateVelh7vector3IdEbdddPKdd) refers to sensors.o(.text._Z23PositionSensorUpdateVelh7vector3IdEbdddPKdd) for [Anonymous Symbol]
    sensors.o(.text._Z17GetPositionSensorhP15Position_Sensord) refers to sensors.o(.bss._ZL22Position_Sensors_Mutex) for _ZL22Position_Sensors_Mutex
    sensors.o(.text._Z17GetPositionSensorhP15Position_Sensord) refers to queue.o(.text.xQueueSemaphoreTake) for xQueueSemaphoreTake
    sensors.o(.text._Z17GetPositionSensorhP15Position_Sensord) refers to sensors.o(.bss._ZL16Position_Sensors) for _ZL16Position_Sensors
    sensors.o(.text._Z17GetPositionSensorhP15Position_Sensord) refers to queue.o(.text.xQueueGenericSend) for xQueueGenericSend
    sensors.o(.text._Z17GetPositionSensorhP15Position_Sensord) refers to sensors.o(.text._ZN15Position_SensoraSERKS_) for Position_Sensor::operator =(const Position_Sensor&)
    sensors.o(.ARM.exidx.text._Z17GetPositionSensorhP15Position_Sensord) refers to sensors.o(.text._Z17GetPositionSensorhP15Position_Sensord) for [Anonymous Symbol]
    sensors.o(.text._Z12init_Sensorsv) refers to queue.o(.text.xQueueCreateMutex) for xQueueCreateMutex
    sensors.o(.text._Z12init_Sensorsv) refers to sensors.o(.bss._ZL22Position_Sensors_Mutex) for _ZL22Position_Sensors_Mutex
    sensors.o(.text._Z12init_Sensorsv) refers to sensors.o(.rodata..L__const._Z12init_Sensorsv.param_types) for .L__const._Z12init_Sensorsv.param_types
    sensors.o(.text._Z12init_Sensorsv) refers to rt_memcpy_w.o(.text) for __aeabi_memcpy4
    sensors.o(.text._Z12init_Sensorsv) refers to sensors.o(.rodata.str1.1) for .L.str.10
    sensors.o(.text._Z12init_Sensorsv) refers to ms_attitude.o(.text._ZN5SNameC2EPKc) for SName::SName__sub_object(const char*)
    sensors.o(.text._Z12init_Sensorsv) refers to parameters.o(.text._Z18ParamGroupRegister5SNametjPK14MAV_PARAM_TYPEPKS_PKy) for ParamGroupRegister(SName, unsigned short, unsigned, const MAV_PARAM_TYPE*, const SName*, const unsigned long long*)
    sensors.o(.ARM.exidx.text._Z12init_Sensorsv) refers to sensors.o(.text._Z12init_Sensorsv) for [Anonymous Symbol]
    sensors.o(.text._GLOBAL__sub_I_Sensors.cpp) refers to sensors.o(.text.__cxx_global_var_init) for __cxx_global_var_init
    sensors.o(.text._GLOBAL__sub_I_Sensors.cpp) refers to sensors.o(.text.__cxx_global_var_init.1) for __cxx_global_var_init.1
    sensors.o(.text._GLOBAL__sub_I_Sensors.cpp) refers to sensors.o(.text.__cxx_global_var_init.2) for __cxx_global_var_init.2
    sensors.o(.ARM.exidx.text._GLOBAL__sub_I_Sensors.cpp) refers to sensors.o(.text._GLOBAL__sub_I_Sensors.cpp) for [Anonymous Symbol]
    sensors.o(.init_array) refers to sensors.o(.text._GLOBAL__sub_I_Sensors.cpp) for _GLOBAL__sub_I_Sensors.cpp
    receiver.o(.text.__cxx_global_var_init) refers to receiver.o(.bss._ZL9Receivers) for _ZL9Receivers
    receiver.o(.text.__cxx_global_var_init) refers to receiver.o(.text._ZNSt3__16__treeINS_12__value_typeI5SName12ReceiverSyncEENS_19__map_value_compareIS2_S4_NS_4lessIS2_EELb1EEENS_9allocatorIS4_EEEC2ERKS8_) for std::__1::__tree<std::__1::__value_type<SName, ReceiverSync>, std::__1::__map_value_compare<SName, std::__1::__value_type<SName, ReceiverSync>, std::__1::less<SName>, (bool)1>, std::__1::allocator<std::__1::__value_type<SName, ReceiverSync>>>::__tree__sub_object(const std::__1::__map_value_compare<SName, std::__1::__value_type<SName, ReceiverSync>, std::__1::less<SName>, (bool)1>&)
    receiver.o(.text.__cxx_global_var_init) refers to receiver.o(.text._ZNSt3__13mapI5SName12ReceiverSyncNS_4lessIS1_EENS_9allocatorINS_4pairIKS1_S2_EEEEED2Ev) for std::__1::map<SName, ReceiverSync, std::__1::less<SName>, std::__1::allocator<std::__1::pair<const SName, ReceiverSync>>>::~map__sub_object()
    receiver.o(.text.__cxx_global_var_init) refers to cxa_atexit.o(.text) for __cxa_atexit
    receiver.o(.ARM.exidx.text.__cxx_global_var_init) refers to receiver.o(.text.__cxx_global_var_init) for [Anonymous Symbol]
    receiver.o(.text._Z16ReceiverRegister5SName) refers to basic.o(.text._Z24LockInitializationStatusv) for LockInitializationStatus()
    receiver.o(.text._Z16ReceiverRegister5SName) refers to basic.o(.text._Z26getInitializationCompletedv) for getInitializationCompleted()
    receiver.o(.text._Z16ReceiverRegister5SName) refers to basic.o(.text._Z26UnLockInitializationStatusv) for UnLockInitializationStatus()
    receiver.o(.text._Z16ReceiverRegister5SName) refers to receiver.o(.rodata..L__const._Z16ReceiverRegister5SName.param_types) for .L__const._Z16ReceiverRegister5SName.param_types
    receiver.o(.text._Z16ReceiverRegister5SName) refers to receiver.o(.rodata.str1.1) for .L.str
    receiver.o(.text._Z16ReceiverRegister5SName) refers to ms_attitude.o(.text._ZN5SNameC2EPKc) for SName::SName__sub_object(const char*)
    receiver.o(.text._Z16ReceiverRegister5SName) refers to sensors.o(.text._ZN5SNameplERKS_) for SName::operator +(const SName&)
    receiver.o(.text._Z16ReceiverRegister5SName) refers to parameters.o(.text._Z18ParamGroupRegister5SNametjPK14MAV_PARAM_TYPEPKS_PKy) for ParamGroupRegister(SName, unsigned short, unsigned, const MAV_PARAM_TYPE*, const SName*, const unsigned long long*)
    receiver.o(.text._Z16ReceiverRegister5SName) refers to receiver.o(.text._ZN12ReceiverSyncC2Ev) for ReceiverSync::ReceiverSync__sub_object()
    receiver.o(.text._Z16ReceiverRegister5SName) refers to timebase.o(.text._ZN4TIME3nowEv) for TIME::now()
    receiver.o(.text._Z16ReceiverRegister5SName) refers to sdstorage.o(.text._ZN4TIMEaSERKS_) for TIME::operator =(const TIME&)
    receiver.o(.text._Z16ReceiverRegister5SName) refers to queue.o(.text.xQueueCreateMutex) for xQueueCreateMutex
    receiver.o(.text._Z16ReceiverRegister5SName) refers to port.o(.text.vPortEnterCritical) for vPortEnterCritical
    receiver.o(.text._Z16ReceiverRegister5SName) refers to rt_memcpy_w.o(.text) for __aeabi_memcpy8
    receiver.o(.text._Z16ReceiverRegister5SName) refers to receiver.o(.bss._ZL9Receivers) for _ZL9Receivers
    receiver.o(.text._Z16ReceiverRegister5SName) refers to receiver.o(.text._ZNSt3__16__treeINS_12__value_typeI5SName12ReceiverSyncEENS_19__map_value_compareIS2_S4_NS_4lessIS2_EELb1EEENS_9allocatorIS4_EEE25__emplace_unique_key_argsIS2_JNS_4pairIS2_S3_EEEEENSD_INS_15__tree_iteratorIS4_PNS_11__tree_nodeIS4_PvEEiEEbEERKT_DpOT0_) for std::__1::pair<std::__1::__tree_iterator<std::__1::__value_type<SName, ReceiverSync>, std::__1::__tree_node<std::__1::__value_type<SName, ReceiverSync>, void*>*, int>, bool> std::__1::__tree<std::__1::__value_type<SName, ReceiverSync>, std::__1::__map_value_compare<SName, std::__1::__value_type<SName, ReceiverSync>, std::__1::less<SName>, (bool)1>, std::__1::allocator<std::__1::__value_type<SName, ReceiverSync>>>::__emplace_unique_key_args<SName, <std::__1::pair<SName, ReceiverSync>>>(const T1&, T2&&...)
    receiver.o(.text._Z16ReceiverRegister5SName) refers to port.o(.text.vPortExitCritical) for vPortExitCritical
    receiver.o(.ARM.exidx.text._Z16ReceiverRegister5SName) refers to receiver.o(.text._Z16ReceiverRegister5SName) for [Anonymous Symbol]
    receiver.o(.text._Z14ReceiverUpdate5SNamebPfhd) refers to basic.o(.text._Z26getInitializationCompletedv) for getInitializationCompleted()
    receiver.o(.text._Z14ReceiverUpdate5SNamebPfhd) refers to receiver.o(.bss._ZL9Receivers) for _ZL9Receivers
    receiver.o(.text._Z14ReceiverUpdate5SNamebPfhd) refers to receiver.o(.text._ZNSt3__16__treeINS_12__value_typeI5SName12ReceiverSyncEENS_19__map_value_compareIS2_S4_NS_4lessIS2_EELb1EEENS_9allocatorIS4_EEE4findIS2_EENS_15__tree_iteratorIS4_PNS_11__tree_nodeIS4_PvEEiEERKT_) for std::__1::__tree_iterator<std::__1::__value_type<SName, ReceiverSync>, std::__1::__tree_node<std::__1::__value_type<SName, ReceiverSync>, void*>*, int> std::__1::__tree<std::__1::__value_type<SName, ReceiverSync>, std::__1::__map_value_compare<SName, std::__1::__value_type<SName, ReceiverSync>, std::__1::less<SName>, (bool)1>, std::__1::allocator<std::__1::__value_type<SName, ReceiverSync>>>::find<SName>(const T1&)
    receiver.o(.text._Z14ReceiverUpdate5SNamebPfhd) refers to receiver.o(.rodata.str1.1) for .L.str
    receiver.o(.text._Z14ReceiverUpdate5SNamebPfhd) refers to ms_attitude.o(.text._ZN5SNameC2EPKc) for SName::SName__sub_object(const char*)
    receiver.o(.text._Z14ReceiverUpdate5SNamebPfhd) refers to sensors.o(.text._ZN5SNameplERKS_) for SName::operator +(const SName&)
    receiver.o(.text._Z14ReceiverUpdate5SNamebPfhd) refers to parameters.o(.text._Z14ReadParamGroup5SNamePyPbd) for ReadParamGroup(SName, unsigned long long*, bool*, double)
    receiver.o(.text._Z14ReceiverUpdate5SNamebPfhd) refers to queue.o(.text.xQueueSemaphoreTake) for xQueueSemaphoreTake
    receiver.o(.text._Z14ReceiverUpdate5SNamebPfhd) refers to sensors.o(.text._ZN4TIME16get_pass_time_stEv) for TIME::get_pass_time_st()
